
/home/user44/Projects/MIET/soc_programming/software/user_programm/build/user_programm.elf:     file format elf32-littleriscv


Disassembly of section .text.init:

00000000 <SIM_EXIT-0xf4>:
	...

000000f4 <SIM_EXIT>:
  f4:	00000013          	nop

000000f8 <SIM_STOP>:
  f8:	0000006f          	j	f8 <SIM_STOP>
  fc:	ffff                	0xffff
  fe:	ffff                	0xffff

Disassembly of section .text:

00000100 <machine_trap_entry-0xc0>:
	...

000001c0 <machine_trap_entry>:
     1c0:	11c0006f          	j	2dc <trap_entry>
     1c4:	00000013          	nop
     1c8:	00000013          	nop
     1cc:	00000013          	nop
     1d0:	00000013          	nop
     1d4:	00000013          	nop
     1d8:	00000013          	nop
     1dc:	00000013          	nop
     1e0:	00000013          	nop
     1e4:	00000013          	nop
     1e8:	00000013          	nop
     1ec:	00000013          	nop
     1f0:	00000013          	nop
     1f4:	00000013          	nop
     1f8:	00000013          	nop
     1fc:	00000013          	nop

00000200 <_start>:
     200:	00000093          	li	ra,0
     204:	00000113          	li	sp,0
     208:	00000193          	li	gp,0
     20c:	00000213          	li	tp,0
     210:	00000293          	li	t0,0
     214:	00000313          	li	t1,0
     218:	00000393          	li	t2,0
     21c:	00000413          	li	s0,0
     220:	00000493          	li	s1,0
     224:	00000513          	li	a0,0
     228:	00000593          	li	a1,0
     22c:	00000613          	li	a2,0
     230:	00000693          	li	a3,0
     234:	00000713          	li	a4,0
     238:	00000793          	li	a5,0
     23c:	00000813          	li	a6,0
     240:	00000893          	li	a7,0
     244:	00000913          	li	s2,0
     248:	00000993          	li	s3,0
     24c:	00000a13          	li	s4,0
     250:	00000a93          	li	s5,0
     254:	00000b13          	li	s6,0
     258:	00000b93          	li	s7,0
     25c:	00000c13          	li	s8,0
     260:	00000c93          	li	s9,0
     264:	00000d13          	li	s10,0
     268:	00000d93          	li	s11,0
     26c:	00000e13          	li	t3,0
     270:	00000e93          	li	t4,0
     274:	00000f13          	li	t5,0
     278:	00000f93          	li	t6,0
     27c:	00003197          	auipc	gp,0x3
     280:	f0418193          	addi	gp,gp,-252 # 3180 <__global_pointer$>
     284:	00002597          	auipc	a1,0x2
     288:	6fc58593          	addi	a1,a1,1788 # 2980 <__BSS_END__>
     28c:	00002617          	auipc	a2,0x2
     290:	6f460613          	addi	a2,a2,1780 # 2980 <__BSS_END__>
     294:	a021                	j	29c <_start+0x9c>
     296:	0005a023          	sw	zero,0(a1)
     29a:	0591                	addi	a1,a1,4
     29c:	fec59de3          	bne	a1,a2,296 <_start+0x96>
     2a0:	00010117          	auipc	sp,0x10
     2a4:	d6010113          	addi	sp,sp,-672 # 10000 <__C_STACK_TOP__>
     2a8:	004902b7          	lui	t0,0x490
     2ac:	4305                	li	t1,1
     2ae:	0062a023          	sw	t1,0(t0) # 490000 <__C_STACK_TOP__+0x480000>
     2b2:	004902b7          	lui	t0,0x490
     2b6:	0291                	addi	t0,t0,4
     2b8:	06300313          	li	t1,99
     2bc:	0062a023          	sw	t1,0(t0) # 490000 <__C_STACK_TOP__+0x480000>
     2c0:	004902b7          	lui	t0,0x490
     2c4:	02c1                	addi	t0,t0,16
     2c6:	537d                	li	t1,-1
     2c8:	0062a023          	sw	t1,0(t0) # 490000 <__C_STACK_TOP__+0x480000>
     2cc:	0062a223          	sw	t1,4(t0)
     2d0:	4501                	li	a0,0
     2d2:	4581                	li	a1,0
     2d4:	2c6010ef          	jal	ra,159a <main>
     2d8:	4080206f          	j	26e0 <sc_exit>

000002dc <trap_entry>:
     2dc:	716d                	addi	sp,sp,-272
     2de:	c206                	sw	ra,4(sp)
     2e0:	c40a                	sw	sp,8(sp)
     2e2:	c60e                	sw	gp,12(sp)
     2e4:	c812                	sw	tp,16(sp)
     2e6:	ca16                	sw	t0,20(sp)
     2e8:	cc1a                	sw	t1,24(sp)
     2ea:	ce1e                	sw	t2,28(sp)
     2ec:	d022                	sw	s0,32(sp)
     2ee:	d226                	sw	s1,36(sp)
     2f0:	d42a                	sw	a0,40(sp)
     2f2:	d62e                	sw	a1,44(sp)
     2f4:	d832                	sw	a2,48(sp)
     2f6:	da36                	sw	a3,52(sp)
     2f8:	dc3a                	sw	a4,56(sp)
     2fa:	de3e                	sw	a5,60(sp)
     2fc:	c0c2                	sw	a6,64(sp)
     2fe:	c2c6                	sw	a7,68(sp)
     300:	c4ca                	sw	s2,72(sp)
     302:	c6ce                	sw	s3,76(sp)
     304:	c8d2                	sw	s4,80(sp)
     306:	cad6                	sw	s5,84(sp)
     308:	ccda                	sw	s6,88(sp)
     30a:	cede                	sw	s7,92(sp)
     30c:	d0e2                	sw	s8,96(sp)
     30e:	d2e6                	sw	s9,100(sp)
     310:	d4ea                	sw	s10,104(sp)
     312:	d6ee                	sw	s11,108(sp)
     314:	d8f2                	sw	t3,112(sp)
     316:	daf6                	sw	t4,116(sp)
     318:	dcfa                	sw	t5,120(sp)
     31a:	defe                	sw	t6,124(sp)
     31c:	34202573          	csrr	a0,mcause
     320:	341025f3          	csrr	a1,mepc
     324:	860a                	mv	a2,sp
     326:	048000ef          	jal	ra,36e <handle_trap>
     32a:	4092                	lw	ra,4(sp)
     32c:	4122                	lw	sp,8(sp)
     32e:	41b2                	lw	gp,12(sp)
     330:	4242                	lw	tp,16(sp)
     332:	42d2                	lw	t0,20(sp)
     334:	4362                	lw	t1,24(sp)
     336:	43f2                	lw	t2,28(sp)
     338:	5402                	lw	s0,32(sp)
     33a:	5492                	lw	s1,36(sp)
     33c:	5522                	lw	a0,40(sp)
     33e:	55b2                	lw	a1,44(sp)
     340:	5642                	lw	a2,48(sp)
     342:	56d2                	lw	a3,52(sp)
     344:	5762                	lw	a4,56(sp)
     346:	57f2                	lw	a5,60(sp)
     348:	4806                	lw	a6,64(sp)
     34a:	4896                	lw	a7,68(sp)
     34c:	4926                	lw	s2,72(sp)
     34e:	49b6                	lw	s3,76(sp)
     350:	4a46                	lw	s4,80(sp)
     352:	4ad6                	lw	s5,84(sp)
     354:	4b66                	lw	s6,88(sp)
     356:	4bf6                	lw	s7,92(sp)
     358:	5c06                	lw	s8,96(sp)
     35a:	5c96                	lw	s9,100(sp)
     35c:	5d26                	lw	s10,104(sp)
     35e:	5db6                	lw	s11,108(sp)
     360:	5e46                	lw	t3,112(sp)
     362:	5ed6                	lw	t4,116(sp)
     364:	5f66                	lw	t5,120(sp)
     366:	5ff6                	lw	t6,124(sp)
     368:	6151                	addi	sp,sp,272
     36a:	30200073          	mret

0000036e <handle_trap>:
     36e:	d87ff06f          	j	f4 <SIM_EXIT>
	...

00000380 <printf_putch>:
     380:	04022603          	lw	a2,64(tp) # 40 <buflen.0>
     384:	00020293          	mv	t0,tp
     388:	00160593          	addi	a1,a2,1
     38c:	00c28333          	add	t1,t0,a2
     390:	04b22023          	sw	a1,64(tp) # 40 <buflen.0>
     394:	00a30023          	sb	a0,0(t1)
     398:	43a9                	li	t2,10
     39a:	00750763          	beq	a0,t2,3a8 <printf_putch+0x28>
     39e:	04000513          	li	a0,64
     3a2:	00a58563          	beq	a1,a0,3ac <printf_putch+0x2c>
     3a6:	8082                	ret
     3a8:	0eb05c63          	blez	a1,4a0 <STACK_SIZE+0xa0>
     3ac:	00020e13          	mv	t3,tp
     3b0:	000e4e83          	lbu	t4,0(t3)
     3b4:	fffe4f13          	not	t5,t3
     3b8:	6f85                	lui	t6,0x1
     3ba:	01ee06b3          	add	a3,t3,t5
     3be:	00b68633          	add	a2,a3,a1
     3c2:	01df8023          	sb	t4,0(t6) # 1000 <vprintfmt.constprop.0+0xb5a>
     3c6:	fff58713          	addi	a4,a1,-1
     3ca:	00767293          	andi	t0,a2,7
     3ce:	001e0793          	addi	a5,t3,1
     3d2:	0ce05763          	blez	a4,4a0 <STACK_SIZE+0xa0>
     3d6:	06028e63          	beqz	t0,452 <STACK_SIZE+0x52>
     3da:	4305                	li	t1,1
     3dc:	06628063          	beq	t0,t1,43c <STACK_SIZE+0x3c>
     3e0:	4389                	li	t2,2
     3e2:	04728863          	beq	t0,t2,432 <STACK_SIZE+0x32>
     3e6:	450d                	li	a0,3
     3e8:	04a28063          	beq	t0,a0,428 <STACK_SIZE+0x28>
     3ec:	4891                	li	a7,4
     3ee:	03128863          	beq	t0,a7,41e <STACK_SIZE+0x1e>
     3f2:	4e95                	li	t4,5
     3f4:	03d28063          	beq	t0,t4,414 <STACK_SIZE+0x14>
     3f8:	4f19                	li	t5,6
     3fa:	01e28863          	beq	t0,t5,40a <STACK_SIZE+0xa>
     3fe:	001e4683          	lbu	a3,1(t3)
     402:	002e0793          	addi	a5,t3,2
     406:	00df8023          	sb	a3,0(t6)
     40a:	0007c603          	lbu	a2,0(a5)
     40e:	0785                	addi	a5,a5,1
     410:	00cf8023          	sb	a2,0(t6)
     414:	0007c703          	lbu	a4,0(a5)
     418:	0785                	addi	a5,a5,1
     41a:	00ef8023          	sb	a4,0(t6)
     41e:	0007c283          	lbu	t0,0(a5)
     422:	0785                	addi	a5,a5,1
     424:	005f8023          	sb	t0,0(t6)
     428:	0007c303          	lbu	t1,0(a5)
     42c:	0785                	addi	a5,a5,1
     42e:	006f8023          	sb	t1,0(t6)
     432:	0007c383          	lbu	t2,0(a5)
     436:	0785                	addi	a5,a5,1
     438:	007f8023          	sb	t2,0(t6)
     43c:	0007c503          	lbu	a0,0(a5)
     440:	0785                	addi	a5,a5,1
     442:	40fe08b3          	sub	a7,t3,a5
     446:	00af8023          	sb	a0,0(t6)
     44a:	00b88eb3          	add	t4,a7,a1
     44e:	05d05963          	blez	t4,4a0 <STACK_SIZE+0xa0>
     452:	0007cf03          	lbu	t5,0(a5)
     456:	07a1                	addi	a5,a5,8
     458:	40fe0533          	sub	a0,t3,a5
     45c:	01ef8023          	sb	t5,0(t6)
     460:	ff97c683          	lbu	a3,-7(a5)
     464:	00b508b3          	add	a7,a0,a1
     468:	00df8023          	sb	a3,0(t6)
     46c:	ffa7c603          	lbu	a2,-6(a5)
     470:	00cf8023          	sb	a2,0(t6)
     474:	ffb7c703          	lbu	a4,-5(a5)
     478:	00ef8023          	sb	a4,0(t6)
     47c:	ffc7c283          	lbu	t0,-4(a5)
     480:	005f8023          	sb	t0,0(t6)
     484:	ffd7c303          	lbu	t1,-3(a5)
     488:	006f8023          	sb	t1,0(t6)
     48c:	ffe7c383          	lbu	t2,-2(a5)
     490:	007f8023          	sb	t2,0(t6)
     494:	fff7ce83          	lbu	t4,-1(a5)
     498:	01df8023          	sb	t4,0(t6)
     49c:	fb104be3          	bgtz	a7,452 <STACK_SIZE+0x52>
     4a0:	04022023          	sw	zero,64(tp) # 40 <buflen.0>
     4a4:	8082                	ret

000004a6 <vprintfmt.constprop.0>:
     4a6:	710d                	addi	sp,sp,-352
     4a8:	14112e23          	sw	ra,348(sp)
     4ac:	13712e23          	sw	s7,316(sp)
     4b0:	13b12623          	sw	s11,300(sp)
     4b4:	6b89                	lui	s7,0x2
     4b6:	00020d93          	mv	s11,tp
     4ba:	40000737          	lui	a4,0x40000
     4be:	728b8313          	addi	t1,s7,1832 # 2728 <sc_exit+0x48>
     4c2:	14812c23          	sw	s0,344(sp)
     4c6:	14912a23          	sw	s1,340(sp)
     4ca:	06100293          	li	t0,97
     4ce:	040d8413          	addi	s0,s11,64
     4d2:	fff70493          	addi	s1,a4,-1 # 3fffffff <__C_STACK_TOP__+0x3ffeffff>
     4d6:	13812c23          	sw	s8,312(sp)
     4da:	13912a23          	sw	s9,308(sp)
     4de:	13a12823          	sw	s10,304(sp)
     4e2:	15212823          	sw	s2,336(sp)
     4e6:	15312623          	sw	s3,332(sp)
     4ea:	15412423          	sw	s4,328(sp)
     4ee:	15512223          	sw	s5,324(sp)
     4f2:	15612023          	sw	s6,320(sp)
     4f6:	c206                	sw	ra,4(sp)
     4f8:	8caa                	mv	s9,a0
     4fa:	c42e                	sw	a1,8(sp)
     4fc:	ca16                	sw	t0,20(sp)
     4fe:	c81a                	sw	t1,16(sp)
     500:	04000d13          	li	s10,64
     504:	6b85                	lui	s7,0x1
     506:	cc22                	sw	s0,24(sp)
     508:	ce26                	sw	s1,28(sp)
     50a:	000cc503          	lbu	a0,0(s9)
     50e:	02500593          	li	a1,37
     512:	12b50263          	beq	a0,a1,636 <vprintfmt.constprop.0+0x190>
     516:	16050363          	beqz	a0,67c <vprintfmt.constprop.0+0x1d6>
     51a:	04022983          	lw	s3,64(tp) # 40 <buflen.0>
     51e:	48a9                	li	a7,10
     520:	0c85                	addi	s9,s9,1
     522:	00198a13          	addi	s4,s3,1
     526:	013d8733          	add	a4,s11,s3
     52a:	05422023          	sw	s4,64(tp) # 40 <buflen.0>
     52e:	00a70023          	sb	a0,0(a4)
     532:	15150063          	beq	a0,a7,672 <vprintfmt.constprop.0+0x1cc>
     536:	fdaa1ae3          	bne	s4,s10,50a <vprintfmt.constprop.0+0x64>
     53a:	4092                	lw	ra,4(sp)
     53c:	00020693          	mv	a3,tp
     540:	0006c283          	lbu	t0,0(a3)
     544:	fff6cf93          	not	t6,a3
     548:	00168793          	addi	a5,a3,1
     54c:	01fd83b3          	add	t2,s11,t6
     550:	40fd84b3          	sub	s1,s11,a5
     554:	01438333          	add	t1,t2,s4
     558:	005b8023          	sb	t0,0(s7) # 1000 <vprintfmt.constprop.0+0xb5a>
     55c:	014485b3          	add	a1,s1,s4
     560:	00737813          	andi	a6,t1,7
     564:	0cb05163          	blez	a1,626 <vprintfmt.constprop.0+0x180>
     568:	06080863          	beqz	a6,5d8 <vprintfmt.constprop.0+0x132>
     56c:	4e05                	li	t3,1
     56e:	05c80a63          	beq	a6,t3,5c2 <vprintfmt.constprop.0+0x11c>
     572:	4e89                	li	t4,2
     574:	05d80263          	beq	a6,t4,5b8 <vprintfmt.constprop.0+0x112>
     578:	4f0d                	li	t5,3
     57a:	03e80a63          	beq	a6,t5,5ae <vprintfmt.constprop.0+0x108>
     57e:	4611                	li	a2,4
     580:	02c80263          	beq	a6,a2,5a4 <vprintfmt.constprop.0+0xfe>
     584:	4a95                	li	s5,5
     586:	01580a63          	beq	a6,s5,59a <vprintfmt.constprop.0+0xf4>
     58a:	4519                	li	a0,6
     58c:	12a81463          	bne	a6,a0,6b4 <vprintfmt.constprop.0+0x20e>
     590:	0007c903          	lbu	s2,0(a5)
     594:	0785                	addi	a5,a5,1
     596:	012b8023          	sb	s2,0(s7)
     59a:	0007cb03          	lbu	s6,0(a5)
     59e:	0785                	addi	a5,a5,1
     5a0:	016b8023          	sb	s6,0(s7)
     5a4:	0007c983          	lbu	s3,0(a5)
     5a8:	0785                	addi	a5,a5,1
     5aa:	013b8023          	sb	s3,0(s7)
     5ae:	0007c883          	lbu	a7,0(a5)
     5b2:	0785                	addi	a5,a5,1
     5b4:	011b8023          	sb	a7,0(s7)
     5b8:	0007c703          	lbu	a4,0(a5)
     5bc:	0785                	addi	a5,a5,1
     5be:	00eb8023          	sb	a4,0(s7)
     5c2:	0007c083          	lbu	ra,0(a5)
     5c6:	0785                	addi	a5,a5,1
     5c8:	40fd86b3          	sub	a3,s11,a5
     5cc:	001b8023          	sb	ra,0(s7)
     5d0:	014682b3          	add	t0,a3,s4
     5d4:	04505963          	blez	t0,626 <vprintfmt.constprop.0+0x180>
     5d8:	0007cf83          	lbu	t6,0(a5)
     5dc:	07a1                	addi	a5,a5,8
     5de:	40fd8eb3          	sub	t4,s11,a5
     5e2:	01fb8023          	sb	t6,0(s7)
     5e6:	ff97c383          	lbu	t2,-7(a5)
     5ea:	014e8f33          	add	t5,t4,s4
     5ee:	007b8023          	sb	t2,0(s7)
     5f2:	ffa7c483          	lbu	s1,-6(a5)
     5f6:	009b8023          	sb	s1,0(s7)
     5fa:	ffb7c303          	lbu	t1,-5(a5)
     5fe:	006b8023          	sb	t1,0(s7)
     602:	ffc7c583          	lbu	a1,-4(a5)
     606:	00bb8023          	sb	a1,0(s7)
     60a:	ffd7c803          	lbu	a6,-3(a5)
     60e:	010b8023          	sb	a6,0(s7)
     612:	ffe7ce03          	lbu	t3,-2(a5)
     616:	01cb8023          	sb	t3,0(s7)
     61a:	fff7c603          	lbu	a2,-1(a5)
     61e:	00cb8023          	sb	a2,0(s7)
     622:	fbe04be3          	bgtz	t5,5d8 <vprintfmt.constprop.0+0x132>
     626:	04022023          	sw	zero,64(tp) # 40 <buflen.0>
     62a:	000cc503          	lbu	a0,0(s9)
     62e:	02500593          	li	a1,37
     632:	eeb512e3          	bne	a0,a1,516 <vprintfmt.constprop.0+0x70>
     636:	001cc303          	lbu	t1,1(s9)
     63a:	001c8993          	addi	s3,s9,1
     63e:	02000613          	li	a2,32
     642:	874e                	mv	a4,s3
     644:	c632                	sw	a2,12(sp)
     646:	547d                	li	s0,-1
     648:	597d                	li	s2,-1
     64a:	4381                	li	t2,0
     64c:	05500813          	li	a6,85
     650:	48a5                	li	a7,9
     652:	fdd30a13          	addi	s4,t1,-35
     656:	0ffa7a93          	zext.b	s5,s4
     65a:	00170c93          	addi	s9,a4,1
     65e:	07586e63          	bltu	a6,s5,6da <vprintfmt.constprop.0+0x234>
     662:	4e42                	lw	t3,16(sp)
     664:	002a9b13          	slli	s6,s5,0x2
     668:	01cb0eb3          	add	t4,s6,t3
     66c:	000eaf03          	lw	t5,0(t4)
     670:	8f02                	jr	t5
     672:	ed4044e3          	bgtz	s4,53a <vprintfmt.constprop.0+0x94>
     676:	04022023          	sw	zero,64(tp) # 40 <buflen.0>
     67a:	bf45                	j	62a <vprintfmt.constprop.0+0x184>
     67c:	15c12083          	lw	ra,348(sp)
     680:	15812403          	lw	s0,344(sp)
     684:	15412483          	lw	s1,340(sp)
     688:	15012903          	lw	s2,336(sp)
     68c:	14c12983          	lw	s3,332(sp)
     690:	14812a03          	lw	s4,328(sp)
     694:	14412a83          	lw	s5,324(sp)
     698:	14012b03          	lw	s6,320(sp)
     69c:	13c12b83          	lw	s7,316(sp)
     6a0:	13812c03          	lw	s8,312(sp)
     6a4:	13412c83          	lw	s9,308(sp)
     6a8:	13012d03          	lw	s10,304(sp)
     6ac:	12c12d83          	lw	s11,300(sp)
     6b0:	6135                	addi	sp,sp,352
     6b2:	8082                	ret
     6b4:	0016c403          	lbu	s0,1(a3)
     6b8:	00268793          	addi	a5,a3,2
     6bc:	008b8023          	sb	s0,0(s7)
     6c0:	bdc1                	j	590 <vprintfmt.constprop.0+0xea>
     6c2:	c61a                	sw	t1,12(sp)
     6c4:	00174303          	lbu	t1,1(a4)
     6c8:	8766                	mv	a4,s9
     6ca:	00170c93          	addi	s9,a4,1
     6ce:	fdd30a13          	addi	s4,t1,-35
     6d2:	0ffa7a93          	zext.b	s5,s4
     6d6:	f95876e3          	bgeu	a6,s5,662 <vprintfmt.constprop.0+0x1bc>
     6da:	04022f03          	lw	t5,64(tp) # 40 <buflen.0>
     6de:	02500513          	li	a0,37
     6e2:	8cce                	mv	s9,s3
     6e4:	001f0613          	addi	a2,t5,1
     6e8:	01ed8ab3          	add	s5,s11,t5
     6ec:	04c22023          	sw	a2,64(tp) # 40 <buflen.0>
     6f0:	00aa8023          	sb	a0,0(s5)
     6f4:	e1a61be3          	bne	a2,s10,50a <vprintfmt.constprop.0+0x64>
     6f8:	4ce2                	lw	s9,24(sp)
     6fa:	87ee                	mv	a5,s11
     6fc:	41bc8433          	sub	s0,s9,s11
     700:	00747913          	andi	s2,s0,7
     704:	06090b63          	beqz	s2,77a <vprintfmt.constprop.0+0x2d4>
     708:	4b05                	li	s6,1
     70a:	07690063          	beq	s2,s6,76a <vprintfmt.constprop.0+0x2c4>
     70e:	4889                	li	a7,2
     710:	05190863          	beq	s2,a7,760 <vprintfmt.constprop.0+0x2ba>
     714:	470d                	li	a4,3
     716:	04e90063          	beq	s2,a4,756 <vprintfmt.constprop.0+0x2b0>
     71a:	4a11                	li	s4,4
     71c:	03490863          	beq	s2,s4,74c <vprintfmt.constprop.0+0x2a6>
     720:	4095                	li	ra,5
     722:	02190063          	beq	s2,ra,742 <vprintfmt.constprop.0+0x29c>
     726:	4699                	li	a3,6
     728:	00d90863          	beq	s2,a3,738 <vprintfmt.constprop.0+0x292>
     72c:	000dc283          	lbu	t0,0(s11)
     730:	001d8793          	addi	a5,s11,1
     734:	005b8023          	sb	t0,0(s7)
     738:	0007cf83          	lbu	t6,0(a5)
     73c:	0785                	addi	a5,a5,1
     73e:	01fb8023          	sb	t6,0(s7)
     742:	0007c383          	lbu	t2,0(a5)
     746:	0785                	addi	a5,a5,1
     748:	007b8023          	sb	t2,0(s7)
     74c:	0007c483          	lbu	s1,0(a5)
     750:	0785                	addi	a5,a5,1
     752:	009b8023          	sb	s1,0(s7)
     756:	0007c303          	lbu	t1,0(a5)
     75a:	0785                	addi	a5,a5,1
     75c:	006b8023          	sb	t1,0(s7)
     760:	0007c583          	lbu	a1,0(a5)
     764:	0785                	addi	a5,a5,1
     766:	00bb8023          	sb	a1,0(s7)
     76a:	0007c803          	lbu	a6,0(a5)
     76e:	0785                	addi	a5,a5,1
     770:	010b8023          	sb	a6,0(s7)
     774:	4e62                	lw	t3,24(sp)
     776:	05c78663          	beq	a5,t3,7c2 <vprintfmt.constprop.0+0x31c>
     77a:	0007ce83          	lbu	t4,0(a5)
     77e:	07a1                	addi	a5,a5,8
     780:	01db8023          	sb	t4,0(s7)
     784:	ff97cf03          	lbu	t5,-7(a5)
     788:	01eb8023          	sb	t5,0(s7)
     78c:	ffa7c603          	lbu	a2,-6(a5)
     790:	00cb8023          	sb	a2,0(s7)
     794:	ffb7ca83          	lbu	s5,-5(a5)
     798:	015b8023          	sb	s5,0(s7)
     79c:	ffc7c503          	lbu	a0,-4(a5)
     7a0:	00ab8023          	sb	a0,0(s7)
     7a4:	ffd7cc83          	lbu	s9,-3(a5)
     7a8:	019b8023          	sb	s9,0(s7)
     7ac:	ffe7c403          	lbu	s0,-2(a5)
     7b0:	008b8023          	sb	s0,0(s7)
     7b4:	fff7c903          	lbu	s2,-1(a5)
     7b8:	012b8023          	sb	s2,0(s7)
     7bc:	4b62                	lw	s6,24(sp)
     7be:	fb679ee3          	bne	a5,s6,77a <vprintfmt.constprop.0+0x2d4>
     7c2:	04022023          	sw	zero,64(tp) # 40 <buflen.0>
     7c6:	8cce                	mv	s9,s3
     7c8:	b389                	j	50a <vprintfmt.constprop.0+0x64>
     7ca:	00174a03          	lbu	s4,1(a4)
     7ce:	fd030413          	addi	s0,t1,-48
     7d2:	8766                	mv	a4,s9
     7d4:	fd0a0493          	addi	s1,s4,-48
     7d8:	8352                	mv	t1,s4
     7da:	0298e463          	bltu	a7,s1,802 <vprintfmt.constprop.0+0x35c>
     7de:	00241c93          	slli	s9,s0,0x2
     7e2:	008c8333          	add	t1,s9,s0
     7e6:	00131a93          	slli	s5,t1,0x1
     7ea:	0705                	addi	a4,a4,1
     7ec:	014a85b3          	add	a1,s5,s4
     7f0:	00074a03          	lbu	s4,0(a4)
     7f4:	fd058413          	addi	s0,a1,-48
     7f8:	fd0a0513          	addi	a0,s4,-48
     7fc:	8352                	mv	t1,s4
     7fe:	fea8f0e3          	bgeu	a7,a0,7de <vprintfmt.constprop.0+0x338>
     802:	e40958e3          	bgez	s2,652 <vprintfmt.constprop.0+0x1ac>
     806:	8922                	mv	s2,s0
     808:	547d                	li	s0,-1
     80a:	b5a1                	j	652 <vprintfmt.constprop.0+0x1ac>
     80c:	fff94793          	not	a5,s2
     810:	41f7d293          	srai	t0,a5,0x1f
     814:	00174303          	lbu	t1,1(a4)
     818:	00597933          	and	s2,s2,t0
     81c:	8766                	mv	a4,s9
     81e:	bd15                	j	652 <vprintfmt.constprop.0+0x1ac>
     820:	00174303          	lbu	t1,1(a4)
     824:	8766                	mv	a4,s9
     826:	b535                	j	652 <vprintfmt.constprop.0+0x1ac>
     828:	04022783          	lw	a5,64(tp) # 40 <buflen.0>
     82c:	02500313          	li	t1,37
     830:	00178393          	addi	t2,a5,1
     834:	00fd84b3          	add	s1,s11,a5
     838:	04722023          	sw	t2,64(tp) # 40 <buflen.0>
     83c:	00648023          	sb	t1,0(s1)
     840:	cda395e3          	bne	t2,s10,50a <vprintfmt.constprop.0+0x64>
     844:	45e2                	lw	a1,24(sp)
     846:	86ee                	mv	a3,s11
     848:	41b58833          	sub	a6,a1,s11
     84c:	00787e13          	andi	t3,a6,7
     850:	060e0b63          	beqz	t3,8c6 <vprintfmt.constprop.0+0x420>
     854:	4e85                	li	t4,1
     856:	07de0063          	beq	t3,t4,8b6 <vprintfmt.constprop.0+0x410>
     85a:	4f09                	li	t5,2
     85c:	05ee0863          	beq	t3,t5,8ac <vprintfmt.constprop.0+0x406>
     860:	498d                	li	s3,3
     862:	053e0063          	beq	t3,s3,8a2 <vprintfmt.constprop.0+0x3fc>
     866:	4611                	li	a2,4
     868:	02ce0863          	beq	t3,a2,898 <vprintfmt.constprop.0+0x3f2>
     86c:	4a95                	li	s5,5
     86e:	035e0063          	beq	t3,s5,88e <vprintfmt.constprop.0+0x3e8>
     872:	4519                	li	a0,6
     874:	00ae0863          	beq	t3,a0,884 <vprintfmt.constprop.0+0x3de>
     878:	000dc403          	lbu	s0,0(s11)
     87c:	001d8693          	addi	a3,s11,1
     880:	008b8023          	sb	s0,0(s7)
     884:	0006c903          	lbu	s2,0(a3)
     888:	0685                	addi	a3,a3,1
     88a:	012b8023          	sb	s2,0(s7)
     88e:	0006cb03          	lbu	s6,0(a3)
     892:	0685                	addi	a3,a3,1
     894:	016b8023          	sb	s6,0(s7)
     898:	0006c883          	lbu	a7,0(a3)
     89c:	0685                	addi	a3,a3,1
     89e:	011b8023          	sb	a7,0(s7)
     8a2:	0006c703          	lbu	a4,0(a3)
     8a6:	0685                	addi	a3,a3,1
     8a8:	00eb8023          	sb	a4,0(s7)
     8ac:	0006ca03          	lbu	s4,0(a3)
     8b0:	0685                	addi	a3,a3,1
     8b2:	014b8023          	sb	s4,0(s7)
     8b6:	0006c083          	lbu	ra,0(a3)
     8ba:	0685                	addi	a3,a3,1
     8bc:	001b8023          	sb	ra,0(s7)
     8c0:	42e2                	lw	t0,24(sp)
     8c2:	d65682e3          	beq	a3,t0,626 <vprintfmt.constprop.0+0x180>
     8c6:	0006cf83          	lbu	t6,0(a3)
     8ca:	06a1                	addi	a3,a3,8
     8cc:	01fb8023          	sb	t6,0(s7)
     8d0:	ff96c783          	lbu	a5,-7(a3)
     8d4:	00fb8023          	sb	a5,0(s7)
     8d8:	ffa6c383          	lbu	t2,-6(a3)
     8dc:	007b8023          	sb	t2,0(s7)
     8e0:	ffb6c483          	lbu	s1,-5(a3)
     8e4:	009b8023          	sb	s1,0(s7)
     8e8:	ffc6c303          	lbu	t1,-4(a3)
     8ec:	006b8023          	sb	t1,0(s7)
     8f0:	ffd6c583          	lbu	a1,-3(a3)
     8f4:	00bb8023          	sb	a1,0(s7)
     8f8:	ffe6c803          	lbu	a6,-2(a3)
     8fc:	010b8023          	sb	a6,0(s7)
     900:	fff6ce03          	lbu	t3,-1(a3)
     904:	01cb8023          	sb	t3,0(s7)
     908:	4ee2                	lw	t4,24(sp)
     90a:	fbd69ee3          	bne	a3,t4,8c6 <vprintfmt.constprop.0+0x420>
     90e:	bb21                	j	626 <vprintfmt.constprop.0+0x180>
     910:	42a2                	lw	t0,8(sp)
     912:	00174303          	lbu	t1,1(a4)
     916:	8766                	mv	a4,s9
     918:	00428f93          	addi	t6,t0,4
     91c:	0002a403          	lw	s0,0(t0)
     920:	c47e                	sw	t6,8(sp)
     922:	b5c5                	j	802 <vprintfmt.constprop.0+0x35c>
     924:	04100413          	li	s0,65
     928:	4ac1                	li	s5,16
     92a:	c002                	sw	zero,0(sp)
     92c:	ca22                	sw	s0,20(sp)
     92e:	4885                	li	a7,1
     930:	04022403          	lw	s0,64(tp) # 40 <buflen.0>
     934:	2c78c563          	blt	a7,t2,bfe <vprintfmt.constprop.0+0x758>
     938:	43a2                	lw	t2,8(sp)
     93a:	00438713          	addi	a4,t2,4
     93e:	4b22                	lw	s6,8(sp)
     940:	4481                	li	s1,0
     942:	000b2b03          	lw	s6,0(s6)
     946:	c43a                	sw	a4,8(sp)
     948:	8656                	mv	a2,s5
     94a:	4681                	li	a3,0
     94c:	855a                	mv	a0,s6
     94e:	85a6                	mv	a1,s1
     950:	7ac010ef          	jal	ra,20fc <__umoddi3>
     954:	d02a                	sw	a0,32(sp)
     956:	4f01                	li	t5,0
     958:	549f0d63          	beq	t5,s1,eb2 <vprintfmt.constprop.0+0xa0c>
     95c:	02410993          	addi	s3,sp,36
     960:	4a05                	li	s4,1
     962:	8656                	mv	a2,s5
     964:	4681                	li	a3,0
     966:	855a                	mv	a0,s6
     968:	85a6                	mv	a1,s1
     96a:	1ba010ef          	jal	ra,1b24 <__udivdi3>
     96e:	8656                	mv	a2,s5
     970:	4681                	li	a3,0
     972:	8b2a                	mv	s6,a0
     974:	84ae                	mv	s1,a1
     976:	786010ef          	jal	ra,20fc <__umoddi3>
     97a:	4602                	lw	a2,0(sp)
     97c:	00a9a023          	sw	a0,0(s3)
     980:	8fd2                	mv	t6,s4
     982:	0991                	addi	s3,s3,4
     984:	0a05                	addi	s4,s4,1
     986:	fc961ee3          	bne	a2,s1,962 <vprintfmt.constprop.0+0x4bc>
     98a:	fd5b7ce3          	bgeu	s6,s5,962 <vprintfmt.constprop.0+0x4bc>
     98e:	112a5363          	bge	s4,s2,a94 <vprintfmt.constprop.0+0x5ee>
     992:	00020593          	mv	a1,tp
     996:	43b2                	lw	t2,12(sp)
     998:	04058813          	addi	a6,a1,64
     99c:	a021                	j	9a4 <vprintfmt.constprop.0+0x4fe>
     99e:	197d                	addi	s2,s2,-1
     9a0:	0f2a5363          	bge	s4,s2,a86 <vprintfmt.constprop.0+0x5e0>
     9a4:	00140793          	addi	a5,s0,1
     9a8:	942e                	add	s0,s0,a1
     9aa:	00740023          	sb	t2,0(s0)
     9ae:	04f22023          	sw	a5,64(tp) # 40 <buflen.0>
     9b2:	843e                	mv	s0,a5
     9b4:	ffa795e3          	bne	a5,s10,99e <vprintfmt.constprop.0+0x4f8>
     9b8:	40b808b3          	sub	a7,a6,a1
     9bc:	0078f713          	andi	a4,a7,7
     9c0:	87ae                	mv	a5,a1
     9c2:	cb2d                	beqz	a4,a34 <vprintfmt.constprop.0+0x58e>
     9c4:	4685                	li	a3,1
     9c6:	06d70063          	beq	a4,a3,a26 <vprintfmt.constprop.0+0x580>
     9ca:	4e09                	li	t3,2
     9cc:	05c70863          	beq	a4,t3,a1c <vprintfmt.constprop.0+0x576>
     9d0:	4e8d                	li	t4,3
     9d2:	05d70063          	beq	a4,t4,a12 <vprintfmt.constprop.0+0x56c>
     9d6:	4f11                	li	t5,4
     9d8:	03e70863          	beq	a4,t5,a08 <vprintfmt.constprop.0+0x562>
     9dc:	4095                	li	ra,5
     9de:	02170063          	beq	a4,ra,9fe <vprintfmt.constprop.0+0x558>
     9e2:	4b19                	li	s6,6
     9e4:	01670863          	beq	a4,s6,9f4 <vprintfmt.constprop.0+0x54e>
     9e8:	0005c483          	lbu	s1,0(a1)
     9ec:	00158793          	addi	a5,a1,1
     9f0:	009b8023          	sb	s1,0(s7)
     9f4:	0007c983          	lbu	s3,0(a5)
     9f8:	0785                	addi	a5,a5,1
     9fa:	013b8023          	sb	s3,0(s7)
     9fe:	0007c603          	lbu	a2,0(a5)
     a02:	0785                	addi	a5,a5,1
     a04:	00cb8023          	sb	a2,0(s7)
     a08:	0007c303          	lbu	t1,0(a5)
     a0c:	0785                	addi	a5,a5,1
     a0e:	006b8023          	sb	t1,0(s7)
     a12:	0007ca83          	lbu	s5,0(a5)
     a16:	0785                	addi	a5,a5,1
     a18:	015b8023          	sb	s5,0(s7)
     a1c:	0007c503          	lbu	a0,0(a5)
     a20:	0785                	addi	a5,a5,1
     a22:	00ab8023          	sb	a0,0(s7)
     a26:	0007c403          	lbu	s0,0(a5)
     a2a:	0785                	addi	a5,a5,1
     a2c:	008b8023          	sb	s0,0(s7)
     a30:	05078563          	beq	a5,a6,a7a <vprintfmt.constprop.0+0x5d4>
     a34:	0007c883          	lbu	a7,0(a5)
     a38:	07a1                	addi	a5,a5,8
     a3a:	011b8023          	sb	a7,0(s7)
     a3e:	ff97c703          	lbu	a4,-7(a5)
     a42:	00eb8023          	sb	a4,0(s7)
     a46:	ffa7c683          	lbu	a3,-6(a5)
     a4a:	00db8023          	sb	a3,0(s7)
     a4e:	ffb7ce03          	lbu	t3,-5(a5)
     a52:	01cb8023          	sb	t3,0(s7)
     a56:	ffc7ce83          	lbu	t4,-4(a5)
     a5a:	01db8023          	sb	t4,0(s7)
     a5e:	ffd7cf03          	lbu	t5,-3(a5)
     a62:	01eb8023          	sb	t5,0(s7)
     a66:	ffe7c083          	lbu	ra,-2(a5)
     a6a:	001b8023          	sb	ra,0(s7)
     a6e:	fff7cb03          	lbu	s6,-1(a5)
     a72:	016b8023          	sb	s6,0(s7)
     a76:	fb079fe3          	bne	a5,a6,a34 <vprintfmt.constprop.0+0x58e>
     a7a:	04022023          	sw	zero,64(tp) # 40 <buflen.0>
     a7e:	197d                	addi	s2,s2,-1
     a80:	4401                	li	s0,0
     a82:	f32a41e3          	blt	s4,s2,9a4 <vprintfmt.constprop.0+0x4fe>
     a86:	002f9a13          	slli	s4,t6,0x2
     a8a:	120c                	addi	a1,sp,288
     a8c:	014582b3          	add	t0,a1,s4
     a90:	f002a503          	lw	a0,-256(t0)
     a94:	4872                	lw	a6,28(sp)
     a96:	4652                	lw	a2,20(sp)
     a98:	9fc2                	add	t6,t6,a6
     a9a:	002f9393          	slli	t2,t6,0x2
     a9e:	02010993          	addi	s3,sp,32
     aa2:	007986b3          	add	a3,s3,t2
     aa6:	4e25                	li	t3,9
     aa8:	ff660f13          	addi	t5,a2,-10
     aac:	00020593          	mv	a1,tp
     ab0:	4329                	li	t1,10
     ab2:	a819                	j	ac8 <vprintfmt.constprop.0+0x622>
     ab4:	03a08b63          	beq	ra,s10,aea <vprintfmt.constprop.0+0x644>
     ab8:	01c10093          	addi	ra,sp,28
     abc:	a4d087e3          	beq	ra,a3,50a <vprintfmt.constprop.0+0x64>
     ac0:	04022403          	lw	s0,64(tp) # 40 <buflen.0>
     ac4:	4288                	lw	a0,0(a3)
     ac6:	16f1                	addi	a3,a3,-4
     ac8:	03000a93          	li	s5,48
     acc:	00ae7363          	bgeu	t3,a0,ad2 <vprintfmt.constprop.0+0x62c>
     ad0:	8afa                	mv	s5,t5
     ad2:	00140093          	addi	ra,s0,1
     ad6:	9556                	add	a0,a0,s5
     ad8:	942e                	add	s0,s0,a1
     ada:	04122023          	sw	ra,64(tp) # 40 <buflen.0>
     ade:	00a40023          	sb	a0,0(s0)
     ae2:	fc6519e3          	bne	a0,t1,ab4 <vprintfmt.constprop.0+0x60e>
     ae6:	0e105d63          	blez	ra,be0 <vprintfmt.constprop.0+0x73a>
     aea:	00020b13          	mv	s6,tp
     aee:	000b4903          	lbu	s2,0(s6)
     af2:	fffb4893          	not	a7,s6
     af6:	001b0793          	addi	a5,s6,1
     afa:	01158733          	add	a4,a1,a7
     afe:	40f58a33          	sub	s4,a1,a5
     b02:	001702b3          	add	t0,a4,ra
     b06:	012b8023          	sb	s2,0(s7)
     b0a:	001a0fb3          	add	t6,s4,ra
     b0e:	0072f393          	andi	t2,t0,7
     b12:	0df05763          	blez	t6,be0 <vprintfmt.constprop.0+0x73a>
     b16:	06038e63          	beqz	t2,b92 <vprintfmt.constprop.0+0x6ec>
     b1a:	4485                	li	s1,1
     b1c:	06938063          	beq	t2,s1,b7c <vprintfmt.constprop.0+0x6d6>
     b20:	4989                	li	s3,2
     b22:	05338863          	beq	t2,s3,b72 <vprintfmt.constprop.0+0x6cc>
     b26:	460d                	li	a2,3
     b28:	04c38063          	beq	t2,a2,b68 <vprintfmt.constprop.0+0x6c2>
     b2c:	4a91                	li	s5,4
     b2e:	03538863          	beq	t2,s5,b5e <vprintfmt.constprop.0+0x6b8>
     b32:	4515                	li	a0,5
     b34:	02a38063          	beq	t2,a0,b54 <vprintfmt.constprop.0+0x6ae>
     b38:	4419                	li	s0,6
     b3a:	00838863          	beq	t2,s0,b4a <vprintfmt.constprop.0+0x6a4>
     b3e:	001b4903          	lbu	s2,1(s6)
     b42:	002b0793          	addi	a5,s6,2
     b46:	012b8023          	sb	s2,0(s7)
     b4a:	0007cb03          	lbu	s6,0(a5)
     b4e:	0785                	addi	a5,a5,1
     b50:	016b8023          	sb	s6,0(s7)
     b54:	0007c883          	lbu	a7,0(a5)
     b58:	0785                	addi	a5,a5,1
     b5a:	011b8023          	sb	a7,0(s7)
     b5e:	0007c703          	lbu	a4,0(a5)
     b62:	0785                	addi	a5,a5,1
     b64:	00eb8023          	sb	a4,0(s7)
     b68:	0007ca03          	lbu	s4,0(a5)
     b6c:	0785                	addi	a5,a5,1
     b6e:	014b8023          	sb	s4,0(s7)
     b72:	0007c283          	lbu	t0,0(a5)
     b76:	0785                	addi	a5,a5,1
     b78:	005b8023          	sb	t0,0(s7)
     b7c:	0007cf83          	lbu	t6,0(a5)
     b80:	0785                	addi	a5,a5,1
     b82:	40f583b3          	sub	t2,a1,a5
     b86:	01fb8023          	sb	t6,0(s7)
     b8a:	001384b3          	add	s1,t2,ra
     b8e:	04905963          	blez	s1,be0 <vprintfmt.constprop.0+0x73a>
     b92:	0007c983          	lbu	s3,0(a5)
     b96:	07a1                	addi	a5,a5,8
     b98:	40f588b3          	sub	a7,a1,a5
     b9c:	013b8023          	sb	s3,0(s7)
     ba0:	ff97c603          	lbu	a2,-7(a5)
     ba4:	00188733          	add	a4,a7,ra
     ba8:	00cb8023          	sb	a2,0(s7)
     bac:	ffa7ca83          	lbu	s5,-6(a5)
     bb0:	015b8023          	sb	s5,0(s7)
     bb4:	ffb7c503          	lbu	a0,-5(a5)
     bb8:	00ab8023          	sb	a0,0(s7)
     bbc:	ffc7c403          	lbu	s0,-4(a5)
     bc0:	008b8023          	sb	s0,0(s7)
     bc4:	ffd7c903          	lbu	s2,-3(a5)
     bc8:	012b8023          	sb	s2,0(s7)
     bcc:	ffe7cb03          	lbu	s6,-2(a5)
     bd0:	016b8023          	sb	s6,0(s7)
     bd4:	fff7ca03          	lbu	s4,-1(a5)
     bd8:	014b8023          	sb	s4,0(s7)
     bdc:	fae04be3          	bgtz	a4,b92 <vprintfmt.constprop.0+0x6ec>
     be0:	04022023          	sw	zero,64(tp) # 40 <buflen.0>
     be4:	bdd1                	j	ab8 <vprintfmt.constprop.0+0x612>
     be6:	00174303          	lbu	t1,1(a4)
     bea:	0385                	addi	t2,t2,1
     bec:	8766                	mv	a4,s9
     bee:	b495                	j	652 <vprintfmt.constprop.0+0x1ac>
     bf0:	c002                	sw	zero,0(sp)
     bf2:	4885                	li	a7,1
     bf4:	04022403          	lw	s0,64(tp) # 40 <buflen.0>
     bf8:	4aa1                	li	s5,8
     bfa:	d278dfe3          	bge	a7,t2,938 <vprintfmt.constprop.0+0x492>
     bfe:	46a2                	lw	a3,8(sp)
     c00:	00768e13          	addi	t3,a3,7
     c04:	ff8e7e93          	andi	t4,t3,-8
     c08:	008e8993          	addi	s3,t4,8
     c0c:	000eab03          	lw	s6,0(t4)
     c10:	004ea483          	lw	s1,4(t4)
     c14:	c44e                	sw	s3,8(sp)
     c16:	bb0d                	j	948 <vprintfmt.constprop.0+0x4a2>
     c18:	04022983          	lw	s3,64(tp) # 40 <buflen.0>
     c1c:	44a2                	lw	s1,8(sp)
     c1e:	03000f93          	li	t6,48
     c22:	013d80b3          	add	ra,s11,s3
     c26:	00198f13          	addi	t5,s3,1
     c2a:	01f08023          	sb	t6,0(ra)
     c2e:	00448713          	addi	a4,s1,4
     c32:	51af0f63          	beq	t5,s10,1150 <vprintfmt.constprop.0+0xcaa>
     c36:	00298413          	addi	s0,s3,2
     c3a:	01ed8633          	add	a2,s11,t5
     c3e:	07800313          	li	t1,120
     c42:	04822023          	sw	s0,64(tp) # 40 <buflen.0>
     c46:	00660023          	sb	t1,0(a2)
     c4a:	87ee                	mv	a5,s11
     c4c:	7fa41863          	bne	s0,s10,143c <vprintfmt.constprop.0+0xf96>
     c50:	48e2                	lw	a7,24(sp)
     c52:	41b88833          	sub	a6,a7,s11
     c56:	00787593          	andi	a1,a6,7
     c5a:	c9b5                	beqz	a1,cce <vprintfmt.constprop.0+0x828>
     c5c:	4a05                	li	s4,1
     c5e:	07458063          	beq	a1,s4,cbe <vprintfmt.constprop.0+0x818>
     c62:	4509                	li	a0,2
     c64:	04a58863          	beq	a1,a0,cb4 <vprintfmt.constprop.0+0x80e>
     c68:	428d                	li	t0,3
     c6a:	04558063          	beq	a1,t0,caa <vprintfmt.constprop.0+0x804>
     c6e:	4691                	li	a3,4
     c70:	02d58863          	beq	a1,a3,ca0 <vprintfmt.constprop.0+0x7fa>
     c74:	4b15                	li	s6,5
     c76:	03658063          	beq	a1,s6,c96 <vprintfmt.constprop.0+0x7f0>
     c7a:	4e19                	li	t3,6
     c7c:	01c58863          	beq	a1,t3,c8c <vprintfmt.constprop.0+0x7e6>
     c80:	000dce83          	lbu	t4,0(s11)
     c84:	001d8793          	addi	a5,s11,1
     c88:	01db8023          	sb	t4,0(s7)
     c8c:	0007c983          	lbu	s3,0(a5)
     c90:	0785                	addi	a5,a5,1
     c92:	013b8023          	sb	s3,0(s7)
     c96:	0007c483          	lbu	s1,0(a5)
     c9a:	0785                	addi	a5,a5,1
     c9c:	009b8023          	sb	s1,0(s7)
     ca0:	0007c083          	lbu	ra,0(a5)
     ca4:	0785                	addi	a5,a5,1
     ca6:	001b8023          	sb	ra,0(s7)
     caa:	0007cf03          	lbu	t5,0(a5)
     cae:	0785                	addi	a5,a5,1
     cb0:	01eb8023          	sb	t5,0(s7)
     cb4:	0007cf83          	lbu	t6,0(a5)
     cb8:	0785                	addi	a5,a5,1
     cba:	01fb8023          	sb	t6,0(s7)
     cbe:	0007c403          	lbu	s0,0(a5)
     cc2:	0785                	addi	a5,a5,1
     cc4:	008b8023          	sb	s0,0(s7)
     cc8:	4662                	lw	a2,24(sp)
     cca:	04c78663          	beq	a5,a2,d16 <vprintfmt.constprop.0+0x870>
     cce:	0007c303          	lbu	t1,0(a5)
     cd2:	07a1                	addi	a5,a5,8
     cd4:	006b8023          	sb	t1,0(s7)
     cd8:	ff97ca83          	lbu	s5,-7(a5)
     cdc:	015b8023          	sb	s5,0(s7)
     ce0:	ffa7c383          	lbu	t2,-6(a5)
     ce4:	007b8023          	sb	t2,0(s7)
     ce8:	ffb7c883          	lbu	a7,-5(a5)
     cec:	011b8023          	sb	a7,0(s7)
     cf0:	ffc7c803          	lbu	a6,-4(a5)
     cf4:	010b8023          	sb	a6,0(s7)
     cf8:	ffd7c583          	lbu	a1,-3(a5)
     cfc:	00bb8023          	sb	a1,0(s7)
     d00:	ffe7ca03          	lbu	s4,-2(a5)
     d04:	014b8023          	sb	s4,0(s7)
     d08:	fff7c503          	lbu	a0,-1(a5)
     d0c:	00ab8023          	sb	a0,0(s7)
     d10:	42e2                	lw	t0,24(sp)
     d12:	fa579ee3          	bne	a5,t0,cce <vprintfmt.constprop.0+0x828>
     d16:	06100693          	li	a3,97
     d1a:	04022023          	sw	zero,64(tp) # 40 <buflen.0>
     d1e:	4401                	li	s0,0
     d20:	4ac1                	li	s5,16
     d22:	c002                	sw	zero,0(sp)
     d24:	ca36                	sw	a3,20(sp)
     d26:	b921                	j	93e <vprintfmt.constprop.0+0x498>
     d28:	46a2                	lw	a3,8(sp)
     d2a:	4284                	lw	s1,0(a3)
     d2c:	00468993          	addi	s3,a3,4
     d30:	6e048763          	beqz	s1,141e <vprintfmt.constprop.0+0xf78>
     d34:	19205763          	blez	s2,ec2 <vprintfmt.constprop.0+0xa1c>
     d38:	47b2                	lw	a5,12(sp)
     d3a:	02d00f93          	li	t6,45
     d3e:	51f79963          	bne	a5,t6,1250 <vprintfmt.constprop.0+0xdaa>
     d42:	0004cf83          	lbu	t6,0(s1)
     d46:	867e                	mv	a2,t6
     d48:	180f9263          	bnez	t6,ecc <vprintfmt.constprop.0+0xa26>
     d4c:	aa7d                	j	f0a <vprintfmt.constprop.0+0xa64>
     d4e:	4822                	lw	a6,8(sp)
     d50:	04022903          	lw	s2,64(tp) # 40 <buflen.0>
     d54:	4729                	li	a4,10
     d56:	00082383          	lw	t2,0(a6)
     d5a:	00190413          	addi	s0,s2,1
     d5e:	012d8ab3          	add	s5,s11,s2
     d62:	04822023          	sw	s0,64(tp) # 40 <buflen.0>
     d66:	007a8023          	sb	t2,0(s5)
     d6a:	00480793          	addi	a5,a6,4
     d6e:	00e38763          	beq	t2,a4,d7c <vprintfmt.constprop.0+0x8d6>
     d72:	01a40763          	beq	s0,s10,d80 <vprintfmt.constprop.0+0x8da>
     d76:	c43e                	sw	a5,8(sp)
     d78:	f92ff06f          	j	50a <vprintfmt.constprop.0+0x64>
     d7c:	0e805e63          	blez	s0,e78 <vprintfmt.constprop.0+0x9d2>
     d80:	4892                	lw	a7,4(sp)
     d82:	00020593          	mv	a1,tp
     d86:	0005ca03          	lbu	s4,0(a1)
     d8a:	fff5c513          	not	a0,a1
     d8e:	00158713          	addi	a4,a1,1
     d92:	00ad82b3          	add	t0,s11,a0
     d96:	40ed8b33          	sub	s6,s11,a4
     d9a:	008286b3          	add	a3,t0,s0
     d9e:	014b8023          	sb	s4,0(s7)
     da2:	008b0e33          	add	t3,s6,s0
     da6:	0076fe93          	andi	t4,a3,7
     daa:	0dc05763          	blez	t3,e78 <vprintfmt.constprop.0+0x9d2>
     dae:	060e8e63          	beqz	t4,e2a <vprintfmt.constprop.0+0x984>
     db2:	4985                	li	s3,1
     db4:	073e8063          	beq	t4,s3,e14 <vprintfmt.constprop.0+0x96e>
     db8:	4089                	li	ra,2
     dba:	041e8863          	beq	t4,ra,e0a <vprintfmt.constprop.0+0x964>
     dbe:	4f0d                	li	t5,3
     dc0:	05ee8063          	beq	t4,t5,e00 <vprintfmt.constprop.0+0x95a>
     dc4:	4f91                	li	t6,4
     dc6:	03fe8863          	beq	t4,t6,df6 <vprintfmt.constprop.0+0x950>
     dca:	4615                	li	a2,5
     dcc:	02ce8063          	beq	t4,a2,dec <vprintfmt.constprop.0+0x946>
     dd0:	4319                	li	t1,6
     dd2:	006e8863          	beq	t4,t1,de2 <vprintfmt.constprop.0+0x93c>
     dd6:	0015c483          	lbu	s1,1(a1)
     dda:	00258713          	addi	a4,a1,2
     dde:	009b8023          	sb	s1,0(s7)
     de2:	00074903          	lbu	s2,0(a4)
     de6:	0705                	addi	a4,a4,1
     de8:	012b8023          	sb	s2,0(s7)
     dec:	00074803          	lbu	a6,0(a4)
     df0:	0705                	addi	a4,a4,1
     df2:	010b8023          	sb	a6,0(s7)
     df6:	00074383          	lbu	t2,0(a4)
     dfa:	0705                	addi	a4,a4,1
     dfc:	007b8023          	sb	t2,0(s7)
     e00:	00074a83          	lbu	s5,0(a4)
     e04:	0705                	addi	a4,a4,1
     e06:	015b8023          	sb	s5,0(s7)
     e0a:	00074883          	lbu	a7,0(a4)
     e0e:	0705                	addi	a4,a4,1
     e10:	011b8023          	sb	a7,0(s7)
     e14:	00074583          	lbu	a1,0(a4)
     e18:	0705                	addi	a4,a4,1
     e1a:	40ed8a33          	sub	s4,s11,a4
     e1e:	00bb8023          	sb	a1,0(s7)
     e22:	008a0533          	add	a0,s4,s0
     e26:	04a05963          	blez	a0,e78 <vprintfmt.constprop.0+0x9d2>
     e2a:	00074283          	lbu	t0,0(a4)
     e2e:	0721                	addi	a4,a4,8
     e30:	40ed8f33          	sub	t5,s11,a4
     e34:	005b8023          	sb	t0,0(s7)
     e38:	ff974b03          	lbu	s6,-7(a4)
     e3c:	008f0fb3          	add	t6,t5,s0
     e40:	016b8023          	sb	s6,0(s7)
     e44:	ffa74683          	lbu	a3,-6(a4)
     e48:	00db8023          	sb	a3,0(s7)
     e4c:	ffb74e03          	lbu	t3,-5(a4)
     e50:	01cb8023          	sb	t3,0(s7)
     e54:	ffc74e83          	lbu	t4,-4(a4)
     e58:	01db8023          	sb	t4,0(s7)
     e5c:	ffd74983          	lbu	s3,-3(a4)
     e60:	013b8023          	sb	s3,0(s7)
     e64:	ffe74083          	lbu	ra,-2(a4)
     e68:	001b8023          	sb	ra,0(s7)
     e6c:	fff74603          	lbu	a2,-1(a4)
     e70:	00cb8023          	sb	a2,0(s7)
     e74:	fbf04be3          	bgtz	t6,e2a <vprintfmt.constprop.0+0x984>
     e78:	04022023          	sw	zero,64(tp) # 40 <buflen.0>
     e7c:	c43e                	sw	a5,8(sp)
     e7e:	e8cff06f          	j	50a <vprintfmt.constprop.0+0x64>
     e82:	4405                	li	s0,1
     e84:	28744063          	blt	s0,t2,1104 <vprintfmt.constprop.0+0xc5e>
     e88:	48a2                	lw	a7,8(sp)
     e8a:	00488a93          	addi	s5,a7,4
     e8e:	3a038563          	beqz	t2,1238 <vprintfmt.constprop.0+0xd92>
     e92:	0008a803          	lw	a6,0(a7)
     e96:	c456                	sw	s5,8(sp)
     e98:	41f85493          	srai	s1,a6,0x1f
     e9c:	04022403          	lw	s0,64(tp) # 40 <buflen.0>
     ea0:	2604cf63          	bltz	s1,111e <vprintfmt.constprop.0+0xc78>
     ea4:	8b42                	mv	s6,a6
     ea6:	4aa9                	li	s5,10
     ea8:	c002                	sw	zero,0(sp)
     eaa:	bc79                	j	948 <vprintfmt.constprop.0+0x4a2>
     eac:	4aa9                	li	s5,10
     eae:	c002                	sw	zero,0(sp)
     eb0:	bcbd                	j	92e <vprintfmt.constprop.0+0x488>
     eb2:	ab5b75e3          	bgeu	s6,s5,95c <vprintfmt.constprop.0+0x4b6>
     eb6:	4085                	li	ra,1
     eb8:	4f81                	li	t6,0
     eba:	4a05                	li	s4,1
     ebc:	ad20cbe3          	blt	ra,s2,992 <vprintfmt.constprop.0+0x4ec>
     ec0:	bed1                	j	a94 <vprintfmt.constprop.0+0x5ee>
     ec2:	0004cf83          	lbu	t6,0(s1)
     ec6:	867e                	mv	a2,t6
     ec8:	120f8b63          	beqz	t6,ffe <vprintfmt.constprop.0+0xb58>
     ecc:	4292                	lw	t0,4(sp)
     ece:	50fd                	li	ra,-1
     ed0:	4529                	li	a0,10
     ed2:	00044563          	bltz	s0,edc <vprintfmt.constprop.0+0xa36>
     ed6:	147d                	addi	s0,s0,-1
     ed8:	02140763          	beq	s0,ra,f06 <vprintfmt.constprop.0+0xa60>
     edc:	04022303          	lw	t1,64(tp) # 40 <buflen.0>
     ee0:	00130693          	addi	a3,t1,1
     ee4:	006d83b3          	add	t2,s11,t1
     ee8:	04d22023          	sw	a3,64(tp) # 40 <buflen.0>
     eec:	01f38023          	sb	t6,0(t2)
     ef0:	10a60a63          	beq	a2,a0,1004 <vprintfmt.constprop.0+0xb5e>
     ef4:	11a68a63          	beq	a3,s10,1008 <vprintfmt.constprop.0+0xb62>
     ef8:	0014cf83          	lbu	t6,1(s1)
     efc:	197d                	addi	s2,s2,-1
     efe:	0485                	addi	s1,s1,1
     f00:	867e                	mv	a2,t6
     f02:	fc0f98e3          	bnez	t6,ed2 <vprintfmt.constprop.0+0xa2c>
     f06:	0f205c63          	blez	s2,ffe <vprintfmt.constprop.0+0xb58>
     f0a:	40e2                	lw	ra,24(sp)
     f0c:	02000493          	li	s1,32
     f10:	a021                	j	f18 <vprintfmt.constprop.0+0xa72>
     f12:	197d                	addi	s2,s2,-1
     f14:	0e090563          	beqz	s2,ffe <vprintfmt.constprop.0+0xb58>
     f18:	04022503          	lw	a0,64(tp) # 40 <buflen.0>
     f1c:	00150293          	addi	t0,a0,1
     f20:	00ad8433          	add	s0,s11,a0
     f24:	04522023          	sw	t0,64(tp) # 40 <buflen.0>
     f28:	00940023          	sb	s1,0(s0)
     f2c:	ffa293e3          	bne	t0,s10,f12 <vprintfmt.constprop.0+0xa6c>
     f30:	41b086b3          	sub	a3,ra,s11
     f34:	0076fa93          	andi	s5,a3,7
     f38:	87ee                	mv	a5,s11
     f3a:	060a8a63          	beqz	s5,fae <vprintfmt.constprop.0+0xb08>
     f3e:	4b05                	li	s6,1
     f40:	076a8063          	beq	s5,s6,fa0 <vprintfmt.constprop.0+0xafa>
     f44:	4e09                	li	t3,2
     f46:	05ca8863          	beq	s5,t3,f96 <vprintfmt.constprop.0+0xaf0>
     f4a:	4e8d                	li	t4,3
     f4c:	05da8063          	beq	s5,t4,f8c <vprintfmt.constprop.0+0xae6>
     f50:	4f11                	li	t5,4
     f52:	03ea8863          	beq	s5,t5,f82 <vprintfmt.constprop.0+0xadc>
     f56:	4f95                	li	t6,5
     f58:	03fa8063          	beq	s5,t6,f78 <vprintfmt.constprop.0+0xad2>
     f5c:	4619                	li	a2,6
     f5e:	00ca8863          	beq	s5,a2,f6e <vprintfmt.constprop.0+0xac8>
     f62:	000dc303          	lbu	t1,0(s11)
     f66:	001d8793          	addi	a5,s11,1
     f6a:	006b8023          	sb	t1,0(s7)
     f6e:	0007c383          	lbu	t2,0(a5)
     f72:	0785                	addi	a5,a5,1
     f74:	007b8023          	sb	t2,0(s7)
     f78:	0007c883          	lbu	a7,0(a5)
     f7c:	0785                	addi	a5,a5,1
     f7e:	011b8023          	sb	a7,0(s7)
     f82:	0007c803          	lbu	a6,0(a5)
     f86:	0785                	addi	a5,a5,1
     f88:	010b8023          	sb	a6,0(s7)
     f8c:	0007c583          	lbu	a1,0(a5)
     f90:	0785                	addi	a5,a5,1
     f92:	00bb8023          	sb	a1,0(s7)
     f96:	0007c703          	lbu	a4,0(a5)
     f9a:	0785                	addi	a5,a5,1
     f9c:	00eb8023          	sb	a4,0(s7)
     fa0:	0007ca03          	lbu	s4,0(a5)
     fa4:	0785                	addi	a5,a5,1
     fa6:	014b8023          	sb	s4,0(s7)
     faa:	04178563          	beq	a5,ra,ff4 <vprintfmt.constprop.0+0xb4e>
     fae:	0007c503          	lbu	a0,0(a5)
     fb2:	07a1                	addi	a5,a5,8
     fb4:	00ab8023          	sb	a0,0(s7)
     fb8:	ff97c283          	lbu	t0,-7(a5)
     fbc:	005b8023          	sb	t0,0(s7)
     fc0:	ffa7c403          	lbu	s0,-6(a5)
     fc4:	008b8023          	sb	s0,0(s7)
     fc8:	ffb7c683          	lbu	a3,-5(a5)
     fcc:	00db8023          	sb	a3,0(s7)
     fd0:	ffc7ca83          	lbu	s5,-4(a5)
     fd4:	015b8023          	sb	s5,0(s7)
     fd8:	ffd7cb03          	lbu	s6,-3(a5)
     fdc:	016b8023          	sb	s6,0(s7)
     fe0:	ffe7ce03          	lbu	t3,-2(a5)
     fe4:	01cb8023          	sb	t3,0(s7)
     fe8:	fff7ce83          	lbu	t4,-1(a5)
     fec:	01db8023          	sb	t4,0(s7)
     ff0:	fa179fe3          	bne	a5,ra,fae <vprintfmt.constprop.0+0xb08>
     ff4:	04022023          	sw	zero,64(tp) # 40 <buflen.0>
     ff8:	197d                	addi	s2,s2,-1
     ffa:	f0091fe3          	bnez	s2,f18 <vprintfmt.constprop.0+0xa72>
     ffe:	c44e                	sw	s3,8(sp)
    1000:	d0aff06f          	j	50a <vprintfmt.constprop.0+0x64>
    1004:	0ed05d63          	blez	a3,10fe <vprintfmt.constprop.0+0xc58>
    1008:	00020813          	mv	a6,tp
    100c:	00084883          	lbu	a7,0(a6)
    1010:	fff84593          	not	a1,a6
    1014:	00180793          	addi	a5,a6,1
    1018:	00bd8733          	add	a4,s11,a1
    101c:	40fd8a33          	sub	s4,s11,a5
    1020:	00d70ab3          	add	s5,a4,a3
    1024:	011b8023          	sb	a7,0(s7)
    1028:	00da0b33          	add	s6,s4,a3
    102c:	007afe13          	andi	t3,s5,7
    1030:	0d605763          	blez	s6,10fe <vprintfmt.constprop.0+0xc58>
    1034:	060e0e63          	beqz	t3,10b0 <vprintfmt.constprop.0+0xc0a>
    1038:	4e85                	li	t4,1
    103a:	07de0063          	beq	t3,t4,109a <vprintfmt.constprop.0+0xbf4>
    103e:	4f09                	li	t5,2
    1040:	05ee0863          	beq	t3,t5,1090 <vprintfmt.constprop.0+0xbea>
    1044:	4f8d                	li	t6,3
    1046:	05fe0063          	beq	t3,t6,1086 <vprintfmt.constprop.0+0xbe0>
    104a:	4611                	li	a2,4
    104c:	02ce0863          	beq	t3,a2,107c <vprintfmt.constprop.0+0xbd6>
    1050:	4315                	li	t1,5
    1052:	026e0063          	beq	t3,t1,1072 <vprintfmt.constprop.0+0xbcc>
    1056:	4399                	li	t2,6
    1058:	007e0863          	beq	t3,t2,1068 <vprintfmt.constprop.0+0xbc2>
    105c:	00184883          	lbu	a7,1(a6)
    1060:	00280793          	addi	a5,a6,2
    1064:	011b8023          	sb	a7,0(s7)
    1068:	0007c803          	lbu	a6,0(a5)
    106c:	0785                	addi	a5,a5,1
    106e:	010b8023          	sb	a6,0(s7)
    1072:	0007c583          	lbu	a1,0(a5)
    1076:	0785                	addi	a5,a5,1
    1078:	00bb8023          	sb	a1,0(s7)
    107c:	0007c703          	lbu	a4,0(a5)
    1080:	0785                	addi	a5,a5,1
    1082:	00eb8023          	sb	a4,0(s7)
    1086:	0007ca03          	lbu	s4,0(a5)
    108a:	0785                	addi	a5,a5,1
    108c:	014b8023          	sb	s4,0(s7)
    1090:	0007ca83          	lbu	s5,0(a5)
    1094:	0785                	addi	a5,a5,1
    1096:	015b8023          	sb	s5,0(s7)
    109a:	0007cb03          	lbu	s6,0(a5)
    109e:	0785                	addi	a5,a5,1
    10a0:	40fd8e33          	sub	t3,s11,a5
    10a4:	016b8023          	sb	s6,0(s7)
    10a8:	00de0eb3          	add	t4,t3,a3
    10ac:	05d05963          	blez	t4,10fe <vprintfmt.constprop.0+0xc58>
    10b0:	0007cf03          	lbu	t5,0(a5)
    10b4:	07a1                	addi	a5,a5,8
    10b6:	40fd85b3          	sub	a1,s11,a5
    10ba:	01eb8023          	sb	t5,0(s7)
    10be:	ff97cf83          	lbu	t6,-7(a5)
    10c2:	00d58733          	add	a4,a1,a3
    10c6:	01fb8023          	sb	t6,0(s7)
    10ca:	ffa7c603          	lbu	a2,-6(a5)
    10ce:	00cb8023          	sb	a2,0(s7)
    10d2:	ffb7c303          	lbu	t1,-5(a5)
    10d6:	006b8023          	sb	t1,0(s7)
    10da:	ffc7c383          	lbu	t2,-4(a5)
    10de:	007b8023          	sb	t2,0(s7)
    10e2:	ffd7c883          	lbu	a7,-3(a5)
    10e6:	011b8023          	sb	a7,0(s7)
    10ea:	ffe7c803          	lbu	a6,-2(a5)
    10ee:	010b8023          	sb	a6,0(s7)
    10f2:	fff7ca03          	lbu	s4,-1(a5)
    10f6:	014b8023          	sb	s4,0(s7)
    10fa:	fae04be3          	bgtz	a4,10b0 <vprintfmt.constprop.0+0xc0a>
    10fe:	04022023          	sw	zero,64(tp) # 40 <buflen.0>
    1102:	bbdd                	j	ef8 <vprintfmt.constprop.0+0xa52>
    1104:	45a2                	lw	a1,8(sp)
    1106:	00758793          	addi	a5,a1,7
    110a:	ff87fa13          	andi	s4,a5,-8
    110e:	008a0513          	addi	a0,s4,8
    1112:	000a2803          	lw	a6,0(s4)
    1116:	004a2483          	lw	s1,4(s4)
    111a:	c42a                	sw	a0,8(sp)
    111c:	b341                	j	e9c <vprintfmt.constprop.0+0x9f6>
    111e:	00140613          	addi	a2,s0,1
    1122:	008d82b3          	add	t0,s11,s0
    1126:	02d00693          	li	a3,45
    112a:	04c22023          	sw	a2,64(tp) # 40 <buflen.0>
    112e:	00d28023          	sb	a3,0(t0)
    1132:	21a60d63          	beq	a2,s10,134c <vprintfmt.constprop.0+0xea6>
    1136:	01003333          	snez	t1,a6
    113a:	409004b3          	neg	s1,s1
    113e:	41000b33          	neg	s6,a6
    1142:	406484b3          	sub	s1,s1,t1
    1146:	8432                	mv	s0,a2
    1148:	4aa9                	li	s5,10
    114a:	c002                	sw	zero,0(sp)
    114c:	ffcff06f          	j	948 <vprintfmt.constprop.0+0x4a2>
    1150:	4b62                	lw	s6,24(sp)
    1152:	87ee                	mv	a5,s11
    1154:	41bb0e33          	sub	t3,s6,s11
    1158:	007e7e93          	andi	t4,t3,7
    115c:	060e8b63          	beqz	t4,11d2 <vprintfmt.constprop.0+0xd2c>
    1160:	4985                	li	s3,1
    1162:	073e8063          	beq	t4,s3,11c2 <vprintfmt.constprop.0+0xd1c>
    1166:	4489                	li	s1,2
    1168:	049e8863          	beq	t4,s1,11b8 <vprintfmt.constprop.0+0xd12>
    116c:	408d                	li	ra,3
    116e:	041e8063          	beq	t4,ra,11ae <vprintfmt.constprop.0+0xd08>
    1172:	4f11                	li	t5,4
    1174:	03ee8863          	beq	t4,t5,11a4 <vprintfmt.constprop.0+0xcfe>
    1178:	4f95                	li	t6,5
    117a:	03fe8063          	beq	t4,t6,119a <vprintfmt.constprop.0+0xcf4>
    117e:	4419                	li	s0,6
    1180:	008e8863          	beq	t4,s0,1190 <vprintfmt.constprop.0+0xcea>
    1184:	000dc603          	lbu	a2,0(s11)
    1188:	001d8793          	addi	a5,s11,1
    118c:	00cb8023          	sb	a2,0(s7)
    1190:	0007c303          	lbu	t1,0(a5)
    1194:	0785                	addi	a5,a5,1
    1196:	006b8023          	sb	t1,0(s7)
    119a:	0007ca83          	lbu	s5,0(a5)
    119e:	0785                	addi	a5,a5,1
    11a0:	015b8023          	sb	s5,0(s7)
    11a4:	0007c383          	lbu	t2,0(a5)
    11a8:	0785                	addi	a5,a5,1
    11aa:	007b8023          	sb	t2,0(s7)
    11ae:	0007c883          	lbu	a7,0(a5)
    11b2:	0785                	addi	a5,a5,1
    11b4:	011b8023          	sb	a7,0(s7)
    11b8:	0007c803          	lbu	a6,0(a5)
    11bc:	0785                	addi	a5,a5,1
    11be:	010b8023          	sb	a6,0(s7)
    11c2:	0007c583          	lbu	a1,0(a5)
    11c6:	0785                	addi	a5,a5,1
    11c8:	00bb8023          	sb	a1,0(s7)
    11cc:	4a62                	lw	s4,24(sp)
    11ce:	05478663          	beq	a5,s4,121a <vprintfmt.constprop.0+0xd74>
    11d2:	0007c503          	lbu	a0,0(a5)
    11d6:	07a1                	addi	a5,a5,8
    11d8:	00ab8023          	sb	a0,0(s7)
    11dc:	ff97c283          	lbu	t0,-7(a5)
    11e0:	005b8023          	sb	t0,0(s7)
    11e4:	ffa7c683          	lbu	a3,-6(a5)
    11e8:	00db8023          	sb	a3,0(s7)
    11ec:	ffb7cb03          	lbu	s6,-5(a5)
    11f0:	016b8023          	sb	s6,0(s7)
    11f4:	ffc7ce03          	lbu	t3,-4(a5)
    11f8:	01cb8023          	sb	t3,0(s7)
    11fc:	ffd7ce83          	lbu	t4,-3(a5)
    1200:	01db8023          	sb	t4,0(s7)
    1204:	ffe7c983          	lbu	s3,-2(a5)
    1208:	013b8023          	sb	s3,0(s7)
    120c:	fff7c483          	lbu	s1,-1(a5)
    1210:	009b8023          	sb	s1,0(s7)
    1214:	40e2                	lw	ra,24(sp)
    1216:	fa179ee3          	bne	a5,ra,11d2 <vprintfmt.constprop.0+0xd2c>
    121a:	4f05                	li	t5,1
    121c:	07800f93          	li	t6,120
    1220:	06100613          	li	a2,97
    1224:	05e22023          	sw	t5,64(tp) # 40 <buflen.0>
    1228:	01fd8023          	sb	t6,0(s11)
    122c:	4405                	li	s0,1
    122e:	4ac1                	li	s5,16
    1230:	c002                	sw	zero,0(sp)
    1232:	ca32                	sw	a2,20(sp)
    1234:	f0aff06f          	j	93e <vprintfmt.constprop.0+0x498>
    1238:	48a2                	lw	a7,8(sp)
    123a:	b9a1                	j	e92 <vprintfmt.constprop.0+0x9ec>
    123c:	06100813          	li	a6,97
    1240:	4ac1                	li	s5,16
    1242:	c002                	sw	zero,0(sp)
    1244:	ca42                	sw	a6,20(sp)
    1246:	ee8ff06f          	j	92e <vprintfmt.constprop.0+0x488>
    124a:	6389                	lui	t2,0x2
    124c:	72038493          	addi	s1,t2,1824 # 2720 <sc_exit+0x40>
    1250:	85a2                	mv	a1,s0
    1252:	8526                	mv	a0,s1
    1254:	2e81                	jal	15a4 <strnlen>
    1256:	40a90933          	sub	s2,s2,a0
    125a:	c72054e3          	blez	s2,ec2 <vprintfmt.constprop.0+0xa1c>
    125e:	4532                	lw	a0,12(sp)
    1260:	4662                	lw	a2,24(sp)
    1262:	a021                	j	126a <vprintfmt.constprop.0+0xdc4>
    1264:	197d                	addi	s2,s2,-1
    1266:	c4090ee3          	beqz	s2,ec2 <vprintfmt.constprop.0+0xa1c>
    126a:	04022583          	lw	a1,64(tp) # 40 <buflen.0>
    126e:	00158713          	addi	a4,a1,1
    1272:	00bd8833          	add	a6,s11,a1
    1276:	04e22023          	sw	a4,64(tp) # 40 <buflen.0>
    127a:	00a80023          	sb	a0,0(a6)
    127e:	ffa713e3          	bne	a4,s10,1264 <vprintfmt.constprop.0+0xdbe>
    1282:	41b608b3          	sub	a7,a2,s11
    1286:	0078fa13          	andi	s4,a7,7
    128a:	87ee                	mv	a5,s11
    128c:	060a0a63          	beqz	s4,1300 <vprintfmt.constprop.0+0xe5a>
    1290:	4a85                	li	s5,1
    1292:	075a0063          	beq	s4,s5,12f2 <vprintfmt.constprop.0+0xe4c>
    1296:	4b09                	li	s6,2
    1298:	056a0863          	beq	s4,s6,12e8 <vprintfmt.constprop.0+0xe42>
    129c:	4e0d                	li	t3,3
    129e:	05ca0063          	beq	s4,t3,12de <vprintfmt.constprop.0+0xe38>
    12a2:	4e91                	li	t4,4
    12a4:	03da0863          	beq	s4,t4,12d4 <vprintfmt.constprop.0+0xe2e>
    12a8:	4f15                	li	t5,5
    12aa:	03ea0063          	beq	s4,t5,12ca <vprintfmt.constprop.0+0xe24>
    12ae:	4699                	li	a3,6
    12b0:	00da0863          	beq	s4,a3,12c0 <vprintfmt.constprop.0+0xe1a>
    12b4:	000dcf83          	lbu	t6,0(s11)
    12b8:	001d8793          	addi	a5,s11,1
    12bc:	01fb8023          	sb	t6,0(s7)
    12c0:	0007c083          	lbu	ra,0(a5)
    12c4:	0785                	addi	a5,a5,1
    12c6:	001b8023          	sb	ra,0(s7)
    12ca:	0007c283          	lbu	t0,0(a5)
    12ce:	0785                	addi	a5,a5,1
    12d0:	005b8023          	sb	t0,0(s7)
    12d4:	0007c303          	lbu	t1,0(a5)
    12d8:	0785                	addi	a5,a5,1
    12da:	006b8023          	sb	t1,0(s7)
    12de:	0007c383          	lbu	t2,0(a5)
    12e2:	0785                	addi	a5,a5,1
    12e4:	007b8023          	sb	t2,0(s7)
    12e8:	0007c583          	lbu	a1,0(a5)
    12ec:	0785                	addi	a5,a5,1
    12ee:	00bb8023          	sb	a1,0(s7)
    12f2:	0007c703          	lbu	a4,0(a5)
    12f6:	0785                	addi	a5,a5,1
    12f8:	00eb8023          	sb	a4,0(s7)
    12fc:	04c78563          	beq	a5,a2,1346 <vprintfmt.constprop.0+0xea0>
    1300:	0007c803          	lbu	a6,0(a5)
    1304:	07a1                	addi	a5,a5,8
    1306:	010b8023          	sb	a6,0(s7)
    130a:	ff97c883          	lbu	a7,-7(a5)
    130e:	011b8023          	sb	a7,0(s7)
    1312:	ffa7ca03          	lbu	s4,-6(a5)
    1316:	014b8023          	sb	s4,0(s7)
    131a:	ffb7ca83          	lbu	s5,-5(a5)
    131e:	015b8023          	sb	s5,0(s7)
    1322:	ffc7cb03          	lbu	s6,-4(a5)
    1326:	016b8023          	sb	s6,0(s7)
    132a:	ffd7ce03          	lbu	t3,-3(a5)
    132e:	01cb8023          	sb	t3,0(s7)
    1332:	ffe7ce83          	lbu	t4,-2(a5)
    1336:	01db8023          	sb	t4,0(s7)
    133a:	fff7cf03          	lbu	t5,-1(a5)
    133e:	01eb8023          	sb	t5,0(s7)
    1342:	fac79fe3          	bne	a5,a2,1300 <vprintfmt.constprop.0+0xe5a>
    1346:	04022023          	sw	zero,64(tp) # 40 <buflen.0>
    134a:	bf29                	j	1264 <vprintfmt.constprop.0+0xdbe>
    134c:	4b62                	lw	s6,24(sp)
    134e:	87ee                	mv	a5,s11
    1350:	41bb0e33          	sub	t3,s6,s11
    1354:	007e7e93          	andi	t4,t3,7
    1358:	060e8b63          	beqz	t4,13ce <vprintfmt.constprop.0+0xf28>
    135c:	4985                	li	s3,1
    135e:	073e8063          	beq	t4,s3,13be <vprintfmt.constprop.0+0xf18>
    1362:	4089                	li	ra,2
    1364:	041e8863          	beq	t4,ra,13b4 <vprintfmt.constprop.0+0xf0e>
    1368:	4f0d                	li	t5,3
    136a:	05ee8063          	beq	t4,t5,13aa <vprintfmt.constprop.0+0xf04>
    136e:	4f91                	li	t6,4
    1370:	03fe8863          	beq	t4,t6,13a0 <vprintfmt.constprop.0+0xefa>
    1374:	4615                	li	a2,5
    1376:	02ce8063          	beq	t4,a2,1396 <vprintfmt.constprop.0+0xef0>
    137a:	4319                	li	t1,6
    137c:	006e8863          	beq	t4,t1,138c <vprintfmt.constprop.0+0xee6>
    1380:	000dc383          	lbu	t2,0(s11)
    1384:	001d8793          	addi	a5,s11,1
    1388:	007b8023          	sb	t2,0(s7)
    138c:	0007c703          	lbu	a4,0(a5)
    1390:	0785                	addi	a5,a5,1
    1392:	00eb8023          	sb	a4,0(s7)
    1396:	0007c403          	lbu	s0,0(a5)
    139a:	0785                	addi	a5,a5,1
    139c:	008b8023          	sb	s0,0(s7)
    13a0:	0007ca83          	lbu	s5,0(a5)
    13a4:	0785                	addi	a5,a5,1
    13a6:	015b8023          	sb	s5,0(s7)
    13aa:	0007c883          	lbu	a7,0(a5)
    13ae:	0785                	addi	a5,a5,1
    13b0:	011b8023          	sb	a7,0(s7)
    13b4:	0007c583          	lbu	a1,0(a5)
    13b8:	0785                	addi	a5,a5,1
    13ba:	00bb8023          	sb	a1,0(s7)
    13be:	0007ca03          	lbu	s4,0(a5)
    13c2:	0785                	addi	a5,a5,1
    13c4:	014b8023          	sb	s4,0(s7)
    13c8:	4562                	lw	a0,24(sp)
    13ca:	04a78663          	beq	a5,a0,1416 <vprintfmt.constprop.0+0xf70>
    13ce:	0007c283          	lbu	t0,0(a5)
    13d2:	07a1                	addi	a5,a5,8
    13d4:	005b8023          	sb	t0,0(s7)
    13d8:	ff97c683          	lbu	a3,-7(a5)
    13dc:	00db8023          	sb	a3,0(s7)
    13e0:	ffa7cb03          	lbu	s6,-6(a5)
    13e4:	016b8023          	sb	s6,0(s7)
    13e8:	ffb7ce03          	lbu	t3,-5(a5)
    13ec:	01cb8023          	sb	t3,0(s7)
    13f0:	ffc7ce83          	lbu	t4,-4(a5)
    13f4:	01db8023          	sb	t4,0(s7)
    13f8:	ffd7c983          	lbu	s3,-3(a5)
    13fc:	013b8023          	sb	s3,0(s7)
    1400:	ffe7c083          	lbu	ra,-2(a5)
    1404:	001b8023          	sb	ra,0(s7)
    1408:	fff7cf03          	lbu	t5,-1(a5)
    140c:	01eb8023          	sb	t5,0(s7)
    1410:	4fe2                	lw	t6,24(sp)
    1412:	fbf79ee3          	bne	a5,t6,13ce <vprintfmt.constprop.0+0xf28>
    1416:	04022023          	sw	zero,64(tp) # 40 <buflen.0>
    141a:	4601                	li	a2,0
    141c:	bb29                	j	1136 <vprintfmt.constprop.0+0xc90>
    141e:	01205763          	blez	s2,142c <vprintfmt.constprop.0+0xf86>
    1422:	42b2                	lw	t0,12(sp)
    1424:	02d00093          	li	ra,45
    1428:	e21291e3          	bne	t0,ra,124a <vprintfmt.constprop.0+0xda4>
    142c:	6309                	lui	t1,0x2
    142e:	72030493          	addi	s1,t1,1824 # 2720 <sc_exit+0x40>
    1432:	02800613          	li	a2,40
    1436:	02800f93          	li	t6,40
    143a:	bc49                	j	ecc <vprintfmt.constprop.0+0xa26>
    143c:	06100393          	li	t2,97
    1440:	4ac1                	li	s5,16
    1442:	c002                	sw	zero,0(sp)
    1444:	ca1e                	sw	t2,20(sp)
    1446:	cf8ff06f          	j	93e <vprintfmt.constprop.0+0x498>

0000144a <putchar>:
    144a:	04022603          	lw	a2,64(tp) # 40 <buflen.0>
    144e:	00020293          	mv	t0,tp
    1452:	00160593          	addi	a1,a2,1
    1456:	00c28333          	add	t1,t0,a2
    145a:	04b22023          	sw	a1,64(tp) # 40 <buflen.0>
    145e:	00a30023          	sb	a0,0(t1)
    1462:	43a9                	li	t2,10
    1464:	00750863          	beq	a0,t2,1474 <putchar+0x2a>
    1468:	04000513          	li	a0,64
    146c:	00a58663          	beq	a1,a0,1478 <putchar+0x2e>
    1470:	4501                	li	a0,0
    1472:	8082                	ret
    1474:	0eb05c63          	blez	a1,156c <putchar+0x122>
    1478:	00020e13          	mv	t3,tp
    147c:	000e4e83          	lbu	t4,0(t3)
    1480:	fffe4f13          	not	t5,t3
    1484:	6f85                	lui	t6,0x1
    1486:	01ee06b3          	add	a3,t3,t5
    148a:	00b68633          	add	a2,a3,a1
    148e:	01df8023          	sb	t4,0(t6) # 1000 <vprintfmt.constprop.0+0xb5a>
    1492:	fff58713          	addi	a4,a1,-1
    1496:	00767293          	andi	t0,a2,7
    149a:	001e0793          	addi	a5,t3,1
    149e:	0ce05763          	blez	a4,156c <putchar+0x122>
    14a2:	06028e63          	beqz	t0,151e <putchar+0xd4>
    14a6:	4305                	li	t1,1
    14a8:	06628063          	beq	t0,t1,1508 <putchar+0xbe>
    14ac:	4389                	li	t2,2
    14ae:	04728863          	beq	t0,t2,14fe <putchar+0xb4>
    14b2:	450d                	li	a0,3
    14b4:	04a28063          	beq	t0,a0,14f4 <putchar+0xaa>
    14b8:	4891                	li	a7,4
    14ba:	03128863          	beq	t0,a7,14ea <putchar+0xa0>
    14be:	4e95                	li	t4,5
    14c0:	03d28063          	beq	t0,t4,14e0 <putchar+0x96>
    14c4:	4f19                	li	t5,6
    14c6:	01e28863          	beq	t0,t5,14d6 <putchar+0x8c>
    14ca:	001e4683          	lbu	a3,1(t3)
    14ce:	002e0793          	addi	a5,t3,2
    14d2:	00df8023          	sb	a3,0(t6)
    14d6:	0007c603          	lbu	a2,0(a5)
    14da:	0785                	addi	a5,a5,1
    14dc:	00cf8023          	sb	a2,0(t6)
    14e0:	0007c703          	lbu	a4,0(a5)
    14e4:	0785                	addi	a5,a5,1
    14e6:	00ef8023          	sb	a4,0(t6)
    14ea:	0007c283          	lbu	t0,0(a5)
    14ee:	0785                	addi	a5,a5,1
    14f0:	005f8023          	sb	t0,0(t6)
    14f4:	0007c303          	lbu	t1,0(a5)
    14f8:	0785                	addi	a5,a5,1
    14fa:	006f8023          	sb	t1,0(t6)
    14fe:	0007c383          	lbu	t2,0(a5)
    1502:	0785                	addi	a5,a5,1
    1504:	007f8023          	sb	t2,0(t6)
    1508:	0007c503          	lbu	a0,0(a5)
    150c:	0785                	addi	a5,a5,1
    150e:	40fe08b3          	sub	a7,t3,a5
    1512:	00af8023          	sb	a0,0(t6)
    1516:	00b88eb3          	add	t4,a7,a1
    151a:	05d05963          	blez	t4,156c <putchar+0x122>
    151e:	0007cf03          	lbu	t5,0(a5)
    1522:	07a1                	addi	a5,a5,8
    1524:	40fe0533          	sub	a0,t3,a5
    1528:	01ef8023          	sb	t5,0(t6)
    152c:	ff97c683          	lbu	a3,-7(a5)
    1530:	00b508b3          	add	a7,a0,a1
    1534:	00df8023          	sb	a3,0(t6)
    1538:	ffa7c603          	lbu	a2,-6(a5)
    153c:	00cf8023          	sb	a2,0(t6)
    1540:	ffb7c703          	lbu	a4,-5(a5)
    1544:	00ef8023          	sb	a4,0(t6)
    1548:	ffc7c283          	lbu	t0,-4(a5)
    154c:	005f8023          	sb	t0,0(t6)
    1550:	ffd7c303          	lbu	t1,-3(a5)
    1554:	006f8023          	sb	t1,0(t6)
    1558:	ffe7c383          	lbu	t2,-2(a5)
    155c:	007f8023          	sb	t2,0(t6)
    1560:	fff7ce83          	lbu	t4,-1(a5)
    1564:	01df8023          	sb	t4,0(t6)
    1568:	fb104be3          	bgtz	a7,151e <putchar+0xd4>
    156c:	04022023          	sw	zero,64(tp) # 40 <buflen.0>
    1570:	4501                	li	a0,0
    1572:	8082                	ret

00001574 <sc_printf>:
    1574:	7139                	addi	sp,sp,-64
    1576:	02410313          	addi	t1,sp,36
    157a:	d22e                	sw	a1,36(sp)
    157c:	859a                	mv	a1,t1
    157e:	ce06                	sw	ra,28(sp)
    1580:	d432                	sw	a2,40(sp)
    1582:	d636                	sw	a3,44(sp)
    1584:	d83a                	sw	a4,48(sp)
    1586:	da3e                	sw	a5,52(sp)
    1588:	dc42                	sw	a6,56(sp)
    158a:	de46                	sw	a7,60(sp)
    158c:	c61a                	sw	t1,12(sp)
    158e:	f19fe0ef          	jal	ra,4a6 <vprintfmt.constprop.0>
    1592:	40f2                	lw	ra,28(sp)
    1594:	4501                	li	a0,0
    1596:	6121                	addi	sp,sp,64
    1598:	8082                	ret

0000159a <main>:
    159a:	67c5                	lui	a5,0x11
    159c:	1f400713          	li	a4,500
    15a0:	c398                	sw	a4,0(a5)
    15a2:	8082                	ret

000015a4 <strnlen>:
    15a4:	00b506b3          	add	a3,a0,a1
    15a8:	00050793          	mv	a5,a0
    15ac:	00059863          	bnez	a1,15bc <strnlen+0x18>
    15b0:	0240006f          	j	15d4 <strnlen+0x30>
    15b4:	00178793          	addi	a5,a5,1 # 11001 <__C_STACK_TOP__+0x1001>
    15b8:	00f68a63          	beq	a3,a5,15cc <strnlen+0x28>
    15bc:	0007c703          	lbu	a4,0(a5)
    15c0:	fe071ae3          	bnez	a4,15b4 <strnlen+0x10>
    15c4:	40a78533          	sub	a0,a5,a0
    15c8:	00008067          	ret
    15cc:	40a68533          	sub	a0,a3,a0
    15d0:	00008067          	ret
    15d4:	00000513          	li	a0,0
    15d8:	00008067          	ret

000015dc <__moddi3>:
    15dc:	fc010113          	addi	sp,sp,-64
    15e0:	02912a23          	sw	s1,52(sp)
    15e4:	03612023          	sw	s6,32(sp)
    15e8:	01812c23          	sw	s8,24(sp)
    15ec:	02112e23          	sw	ra,60(sp)
    15f0:	02812c23          	sw	s0,56(sp)
    15f4:	03212823          	sw	s2,48(sp)
    15f8:	03312623          	sw	s3,44(sp)
    15fc:	03412423          	sw	s4,40(sp)
    1600:	03512223          	sw	s5,36(sp)
    1604:	01712e23          	sw	s7,28(sp)
    1608:	01912a23          	sw	s9,20(sp)
    160c:	01a12823          	sw	s10,16(sp)
    1610:	01b12623          	sw	s11,12(sp)
    1614:	00050c13          	mv	s8,a0
    1618:	00058b13          	mv	s6,a1
    161c:	00000493          	li	s1,0
    1620:	0005dc63          	bgez	a1,1638 <__moddi3+0x5c>
    1624:	00a037b3          	snez	a5,a0
    1628:	40b005b3          	neg	a1,a1
    162c:	40f58b33          	sub	s6,a1,a5
    1630:	40a00c33          	neg	s8,a0
    1634:	fff00493          	li	s1,-1
    1638:	0006da63          	bgez	a3,164c <__moddi3+0x70>
    163c:	00c035b3          	snez	a1,a2
    1640:	40d006b3          	neg	a3,a3
    1644:	40b686b3          	sub	a3,a3,a1
    1648:	40c00633          	neg	a2,a2
    164c:	00060a93          	mv	s5,a2
    1650:	00068993          	mv	s3,a3
    1654:	000c0413          	mv	s0,s8
    1658:	000b0913          	mv	s2,s6
    165c:	28069463          	bnez	a3,18e4 <__moddi3+0x308>
    1660:	00001a17          	auipc	s4,0x1
    1664:	220a0a13          	addi	s4,s4,544 # 2880 <__clz_tab>
    1668:	14cb7e63          	bgeu	s6,a2,17c4 <__moddi3+0x1e8>
    166c:	000107b7          	lui	a5,0x10
    1670:	14f67063          	bgeu	a2,a5,17b0 <__moddi3+0x1d4>
    1674:	0ff00793          	li	a5,255
    1678:	00c7f463          	bgeu	a5,a2,1680 <__moddi3+0xa4>
    167c:	00800993          	li	s3,8
    1680:	013657b3          	srl	a5,a2,s3
    1684:	00fa0a33          	add	s4,s4,a5
    1688:	000a4783          	lbu	a5,0(s4)
    168c:	02000713          	li	a4,32
    1690:	013787b3          	add	a5,a5,s3
    1694:	40f709b3          	sub	s3,a4,a5
    1698:	00f70c63          	beq	a4,a5,16b0 <__moddi3+0xd4>
    169c:	013b15b3          	sll	a1,s6,s3
    16a0:	00fc57b3          	srl	a5,s8,a5
    16a4:	01361ab3          	sll	s5,a2,s3
    16a8:	00b7e933          	or	s2,a5,a1
    16ac:	013c1433          	sll	s0,s8,s3
    16b0:	010adb13          	srli	s6,s5,0x10
    16b4:	000b0593          	mv	a1,s6
    16b8:	00090513          	mv	a0,s2
    16bc:	7a5000ef          	jal	ra,2660 <__umodsi3>
    16c0:	00050a13          	mv	s4,a0
    16c4:	000b0593          	mv	a1,s6
    16c8:	010a9b93          	slli	s7,s5,0x10
    16cc:	00090513          	mv	a0,s2
    16d0:	749000ef          	jal	ra,2618 <__udivsi3>
    16d4:	010bdb93          	srli	s7,s7,0x10
    16d8:	00050593          	mv	a1,a0
    16dc:	000b8513          	mv	a0,s7
    16e0:	70d000ef          	jal	ra,25ec <__mulsi3>
    16e4:	010a1a13          	slli	s4,s4,0x10
    16e8:	01045793          	srli	a5,s0,0x10
    16ec:	00fa67b3          	or	a5,s4,a5
    16f0:	00a7fa63          	bgeu	a5,a0,1704 <__moddi3+0x128>
    16f4:	015787b3          	add	a5,a5,s5
    16f8:	0157e663          	bltu	a5,s5,1704 <__moddi3+0x128>
    16fc:	00a7f463          	bgeu	a5,a0,1704 <__moddi3+0x128>
    1700:	015787b3          	add	a5,a5,s5
    1704:	40a78933          	sub	s2,a5,a0
    1708:	000b0593          	mv	a1,s6
    170c:	00090513          	mv	a0,s2
    1710:	751000ef          	jal	ra,2660 <__umodsi3>
    1714:	00050a13          	mv	s4,a0
    1718:	000b0593          	mv	a1,s6
    171c:	00090513          	mv	a0,s2
    1720:	6f9000ef          	jal	ra,2618 <__udivsi3>
    1724:	01041413          	slli	s0,s0,0x10
    1728:	00050593          	mv	a1,a0
    172c:	010a1a13          	slli	s4,s4,0x10
    1730:	000b8513          	mv	a0,s7
    1734:	01045413          	srli	s0,s0,0x10
    1738:	6b5000ef          	jal	ra,25ec <__mulsi3>
    173c:	008a6433          	or	s0,s4,s0
    1740:	00a47a63          	bgeu	s0,a0,1754 <__moddi3+0x178>
    1744:	01540433          	add	s0,s0,s5
    1748:	01546663          	bltu	s0,s5,1754 <__moddi3+0x178>
    174c:	00a47463          	bgeu	s0,a0,1754 <__moddi3+0x178>
    1750:	01540433          	add	s0,s0,s5
    1754:	40a40433          	sub	s0,s0,a0
    1758:	01345533          	srl	a0,s0,s3
    175c:	00000593          	li	a1,0
    1760:	00048a63          	beqz	s1,1774 <__moddi3+0x198>
    1764:	00a037b3          	snez	a5,a0
    1768:	40b005b3          	neg	a1,a1
    176c:	40f585b3          	sub	a1,a1,a5
    1770:	40a00533          	neg	a0,a0
    1774:	03c12083          	lw	ra,60(sp)
    1778:	03812403          	lw	s0,56(sp)
    177c:	03412483          	lw	s1,52(sp)
    1780:	03012903          	lw	s2,48(sp)
    1784:	02c12983          	lw	s3,44(sp)
    1788:	02812a03          	lw	s4,40(sp)
    178c:	02412a83          	lw	s5,36(sp)
    1790:	02012b03          	lw	s6,32(sp)
    1794:	01c12b83          	lw	s7,28(sp)
    1798:	01812c03          	lw	s8,24(sp)
    179c:	01412c83          	lw	s9,20(sp)
    17a0:	01012d03          	lw	s10,16(sp)
    17a4:	00c12d83          	lw	s11,12(sp)
    17a8:	04010113          	addi	sp,sp,64
    17ac:	00008067          	ret
    17b0:	010007b7          	lui	a5,0x1000
    17b4:	01000993          	li	s3,16
    17b8:	ecf664e3          	bltu	a2,a5,1680 <__moddi3+0xa4>
    17bc:	01800993          	li	s3,24
    17c0:	ec1ff06f          	j	1680 <__moddi3+0xa4>
    17c4:	00061a63          	bnez	a2,17d8 <__moddi3+0x1fc>
    17c8:	00000593          	li	a1,0
    17cc:	00100513          	li	a0,1
    17d0:	649000ef          	jal	ra,2618 <__udivsi3>
    17d4:	00050a93          	mv	s5,a0
    17d8:	000107b7          	lui	a5,0x10
    17dc:	0efafa63          	bgeu	s5,a5,18d0 <__moddi3+0x2f4>
    17e0:	0ff00793          	li	a5,255
    17e4:	0157f463          	bgeu	a5,s5,17ec <__moddi3+0x210>
    17e8:	00800993          	li	s3,8
    17ec:	013ad7b3          	srl	a5,s5,s3
    17f0:	00fa0a33          	add	s4,s4,a5
    17f4:	000a4783          	lbu	a5,0(s4)
    17f8:	02000713          	li	a4,32
    17fc:	415b0933          	sub	s2,s6,s5
    1800:	013787b3          	add	a5,a5,s3
    1804:	40f709b3          	sub	s3,a4,a5
    1808:	eaf704e3          	beq	a4,a5,16b0 <__moddi3+0xd4>
    180c:	013a9ab3          	sll	s5,s5,s3
    1810:	00fb5cb3          	srl	s9,s6,a5
    1814:	010ad913          	srli	s2,s5,0x10
    1818:	00fc57b3          	srl	a5,s8,a5
    181c:	013b16b3          	sll	a3,s6,s3
    1820:	00090593          	mv	a1,s2
    1824:	000c8513          	mv	a0,s9
    1828:	00d7ebb3          	or	s7,a5,a3
    182c:	635000ef          	jal	ra,2660 <__umodsi3>
    1830:	00050a13          	mv	s4,a0
    1834:	00090593          	mv	a1,s2
    1838:	013c1433          	sll	s0,s8,s3
    183c:	000c8513          	mv	a0,s9
    1840:	010a9c13          	slli	s8,s5,0x10
    1844:	5d5000ef          	jal	ra,2618 <__udivsi3>
    1848:	010c5c13          	srli	s8,s8,0x10
    184c:	00050593          	mv	a1,a0
    1850:	000c0513          	mv	a0,s8
    1854:	599000ef          	jal	ra,25ec <__mulsi3>
    1858:	010a1a13          	slli	s4,s4,0x10
    185c:	010bd793          	srli	a5,s7,0x10
    1860:	00fa67b3          	or	a5,s4,a5
    1864:	00a7fa63          	bgeu	a5,a0,1878 <__moddi3+0x29c>
    1868:	015787b3          	add	a5,a5,s5
    186c:	0157e663          	bltu	a5,s5,1878 <__moddi3+0x29c>
    1870:	00a7f463          	bgeu	a5,a0,1878 <__moddi3+0x29c>
    1874:	015787b3          	add	a5,a5,s5
    1878:	40a78b33          	sub	s6,a5,a0
    187c:	00090593          	mv	a1,s2
    1880:	000b0513          	mv	a0,s6
    1884:	5dd000ef          	jal	ra,2660 <__umodsi3>
    1888:	00050a13          	mv	s4,a0
    188c:	00090593          	mv	a1,s2
    1890:	000b0513          	mv	a0,s6
    1894:	585000ef          	jal	ra,2618 <__udivsi3>
    1898:	00050593          	mv	a1,a0
    189c:	000c0513          	mv	a0,s8
    18a0:	54d000ef          	jal	ra,25ec <__mulsi3>
    18a4:	010b9693          	slli	a3,s7,0x10
    18a8:	010a1a13          	slli	s4,s4,0x10
    18ac:	0106d693          	srli	a3,a3,0x10
    18b0:	00da66b3          	or	a3,s4,a3
    18b4:	00a6fa63          	bgeu	a3,a0,18c8 <__moddi3+0x2ec>
    18b8:	015686b3          	add	a3,a3,s5
    18bc:	0156e663          	bltu	a3,s5,18c8 <__moddi3+0x2ec>
    18c0:	00a6f463          	bgeu	a3,a0,18c8 <__moddi3+0x2ec>
    18c4:	015686b3          	add	a3,a3,s5
    18c8:	40a68933          	sub	s2,a3,a0
    18cc:	de5ff06f          	j	16b0 <__moddi3+0xd4>
    18d0:	010007b7          	lui	a5,0x1000
    18d4:	01000993          	li	s3,16
    18d8:	f0faeae3          	bltu	s5,a5,17ec <__moddi3+0x210>
    18dc:	01800993          	li	s3,24
    18e0:	f0dff06f          	j	17ec <__moddi3+0x210>
    18e4:	00db7863          	bgeu	s6,a3,18f4 <__moddi3+0x318>
    18e8:	000c0513          	mv	a0,s8
    18ec:	000b0593          	mv	a1,s6
    18f0:	e71ff06f          	j	1760 <__moddi3+0x184>
    18f4:	000107b7          	lui	a5,0x10
    18f8:	04f6fc63          	bgeu	a3,a5,1950 <__moddi3+0x374>
    18fc:	0ff00a93          	li	s5,255
    1900:	00dab533          	sltu	a0,s5,a3
    1904:	00351513          	slli	a0,a0,0x3
    1908:	00a6d733          	srl	a4,a3,a0
    190c:	00001797          	auipc	a5,0x1
    1910:	f7478793          	addi	a5,a5,-140 # 2880 <__clz_tab>
    1914:	00e787b3          	add	a5,a5,a4
    1918:	0007ca83          	lbu	s5,0(a5)
    191c:	02000793          	li	a5,32
    1920:	00aa8ab3          	add	s5,s5,a0
    1924:	41578a33          	sub	s4,a5,s5
    1928:	03579e63          	bne	a5,s5,1964 <__moddi3+0x388>
    192c:	0166e463          	bltu	a3,s6,1934 <__moddi3+0x358>
    1930:	00cc6a63          	bltu	s8,a2,1944 <__moddi3+0x368>
    1934:	40cc0433          	sub	s0,s8,a2
    1938:	40db06b3          	sub	a3,s6,a3
    193c:	008c35b3          	sltu	a1,s8,s0
    1940:	40b68933          	sub	s2,a3,a1
    1944:	00040513          	mv	a0,s0
    1948:	00090593          	mv	a1,s2
    194c:	e15ff06f          	j	1760 <__moddi3+0x184>
    1950:	010007b7          	lui	a5,0x1000
    1954:	01000513          	li	a0,16
    1958:	faf6e8e3          	bltu	a3,a5,1908 <__moddi3+0x32c>
    195c:	01800513          	li	a0,24
    1960:	fa9ff06f          	j	1908 <__moddi3+0x32c>
    1964:	015657b3          	srl	a5,a2,s5
    1968:	014696b3          	sll	a3,a3,s4
    196c:	00d7ecb3          	or	s9,a5,a3
    1970:	015b59b3          	srl	s3,s6,s5
    1974:	010cdb93          	srli	s7,s9,0x10
    1978:	014b16b3          	sll	a3,s6,s4
    197c:	000b8593          	mv	a1,s7
    1980:	015c5b33          	srl	s6,s8,s5
    1984:	00098513          	mv	a0,s3
    1988:	00db6b33          	or	s6,s6,a3
    198c:	01461d33          	sll	s10,a2,s4
    1990:	4d1000ef          	jal	ra,2660 <__umodsi3>
    1994:	00050913          	mv	s2,a0
    1998:	000b8593          	mv	a1,s7
    199c:	00098513          	mv	a0,s3
    19a0:	014c1433          	sll	s0,s8,s4
    19a4:	010c9c13          	slli	s8,s9,0x10
    19a8:	471000ef          	jal	ra,2618 <__udivsi3>
    19ac:	010c5c13          	srli	s8,s8,0x10
    19b0:	00050993          	mv	s3,a0
    19b4:	00050593          	mv	a1,a0
    19b8:	000c0513          	mv	a0,s8
    19bc:	431000ef          	jal	ra,25ec <__mulsi3>
    19c0:	01091913          	slli	s2,s2,0x10
    19c4:	010b5713          	srli	a4,s6,0x10
    19c8:	00e96733          	or	a4,s2,a4
    19cc:	00098d93          	mv	s11,s3
    19d0:	00a77e63          	bgeu	a4,a0,19ec <__moddi3+0x410>
    19d4:	01970733          	add	a4,a4,s9
    19d8:	fff98d93          	addi	s11,s3,-1
    19dc:	01976863          	bltu	a4,s9,19ec <__moddi3+0x410>
    19e0:	00a77663          	bgeu	a4,a0,19ec <__moddi3+0x410>
    19e4:	ffe98d93          	addi	s11,s3,-2
    19e8:	01970733          	add	a4,a4,s9
    19ec:	40a709b3          	sub	s3,a4,a0
    19f0:	000b8593          	mv	a1,s7
    19f4:	00098513          	mv	a0,s3
    19f8:	469000ef          	jal	ra,2660 <__umodsi3>
    19fc:	00050913          	mv	s2,a0
    1a00:	000b8593          	mv	a1,s7
    1a04:	00098513          	mv	a0,s3
    1a08:	411000ef          	jal	ra,2618 <__udivsi3>
    1a0c:	00050993          	mv	s3,a0
    1a10:	00050593          	mv	a1,a0
    1a14:	000c0513          	mv	a0,s8
    1a18:	3d5000ef          	jal	ra,25ec <__mulsi3>
    1a1c:	010b1693          	slli	a3,s6,0x10
    1a20:	01091913          	slli	s2,s2,0x10
    1a24:	0106d693          	srli	a3,a3,0x10
    1a28:	00d966b3          	or	a3,s2,a3
    1a2c:	00098793          	mv	a5,s3
    1a30:	00a6fe63          	bgeu	a3,a0,1a4c <__moddi3+0x470>
    1a34:	019686b3          	add	a3,a3,s9
    1a38:	fff98793          	addi	a5,s3,-1
    1a3c:	0196e863          	bltu	a3,s9,1a4c <__moddi3+0x470>
    1a40:	00a6f663          	bgeu	a3,a0,1a4c <__moddi3+0x470>
    1a44:	ffe98793          	addi	a5,s3,-2
    1a48:	019686b3          	add	a3,a3,s9
    1a4c:	00010337          	lui	t1,0x10
    1a50:	010d9d93          	slli	s11,s11,0x10
    1a54:	00fdedb3          	or	s11,s11,a5
    1a58:	fff30813          	addi	a6,t1,-1 # ffff <__global_pointer$+0xce7f>
    1a5c:	010df733          	and	a4,s11,a6
    1a60:	010d7833          	and	a6,s10,a6
    1a64:	40a68b33          	sub	s6,a3,a0
    1a68:	010ddd93          	srli	s11,s11,0x10
    1a6c:	010d5893          	srli	a7,s10,0x10
    1a70:	00070513          	mv	a0,a4
    1a74:	00080593          	mv	a1,a6
    1a78:	375000ef          	jal	ra,25ec <__mulsi3>
    1a7c:	00050793          	mv	a5,a0
    1a80:	00088593          	mv	a1,a7
    1a84:	00070513          	mv	a0,a4
    1a88:	365000ef          	jal	ra,25ec <__mulsi3>
    1a8c:	00050713          	mv	a4,a0
    1a90:	00080593          	mv	a1,a6
    1a94:	000d8513          	mv	a0,s11
    1a98:	355000ef          	jal	ra,25ec <__mulsi3>
    1a9c:	00050813          	mv	a6,a0
    1aa0:	00088593          	mv	a1,a7
    1aa4:	000d8513          	mv	a0,s11
    1aa8:	345000ef          	jal	ra,25ec <__mulsi3>
    1aac:	01070733          	add	a4,a4,a6
    1ab0:	0107d693          	srli	a3,a5,0x10
    1ab4:	00d70733          	add	a4,a4,a3
    1ab8:	01077463          	bgeu	a4,a6,1ac0 <__moddi3+0x4e4>
    1abc:	00650533          	add	a0,a0,t1
    1ac0:	01075593          	srli	a1,a4,0x10
    1ac4:	00a585b3          	add	a1,a1,a0
    1ac8:	00010537          	lui	a0,0x10
    1acc:	fff50513          	addi	a0,a0,-1 # ffff <__global_pointer$+0xce7f>
    1ad0:	00a77733          	and	a4,a4,a0
    1ad4:	01071713          	slli	a4,a4,0x10
    1ad8:	00a7f7b3          	and	a5,a5,a0
    1adc:	00f707b3          	add	a5,a4,a5
    1ae0:	00bb6663          	bltu	s6,a1,1aec <__moddi3+0x510>
    1ae4:	00bb1e63          	bne	s6,a1,1b00 <__moddi3+0x524>
    1ae8:	00f47c63          	bgeu	s0,a5,1b00 <__moddi3+0x524>
    1aec:	41a78633          	sub	a2,a5,s10
    1af0:	00c7b7b3          	sltu	a5,a5,a2
    1af4:	019787b3          	add	a5,a5,s9
    1af8:	40f585b3          	sub	a1,a1,a5
    1afc:	00060793          	mv	a5,a2
    1b00:	40f407b3          	sub	a5,s0,a5
    1b04:	00f43433          	sltu	s0,s0,a5
    1b08:	40bb05b3          	sub	a1,s6,a1
    1b0c:	408585b3          	sub	a1,a1,s0
    1b10:	01559433          	sll	s0,a1,s5
    1b14:	0147d7b3          	srl	a5,a5,s4
    1b18:	00f46533          	or	a0,s0,a5
    1b1c:	0145d5b3          	srl	a1,a1,s4
    1b20:	c41ff06f          	j	1760 <__moddi3+0x184>

00001b24 <__udivdi3>:
    1b24:	fd010113          	addi	sp,sp,-48
    1b28:	02812423          	sw	s0,40(sp)
    1b2c:	01712623          	sw	s7,12(sp)
    1b30:	02112623          	sw	ra,44(sp)
    1b34:	02912223          	sw	s1,36(sp)
    1b38:	03212023          	sw	s2,32(sp)
    1b3c:	01312e23          	sw	s3,28(sp)
    1b40:	01412c23          	sw	s4,24(sp)
    1b44:	01512a23          	sw	s5,20(sp)
    1b48:	01612823          	sw	s6,16(sp)
    1b4c:	01812423          	sw	s8,8(sp)
    1b50:	01912223          	sw	s9,4(sp)
    1b54:	00050b93          	mv	s7,a0
    1b58:	00058413          	mv	s0,a1
    1b5c:	38069c63          	bnez	a3,1ef4 <__udivdi3+0x3d0>
    1b60:	00060913          	mv	s2,a2
    1b64:	00050a13          	mv	s4,a0
    1b68:	00001497          	auipc	s1,0x1
    1b6c:	d1848493          	addi	s1,s1,-744 # 2880 <__clz_tab>
    1b70:	12c5f863          	bgeu	a1,a2,1ca0 <__udivdi3+0x17c>
    1b74:	000107b7          	lui	a5,0x10
    1b78:	00058c13          	mv	s8,a1
    1b7c:	10f67863          	bgeu	a2,a5,1c8c <__udivdi3+0x168>
    1b80:	0ff00793          	li	a5,255
    1b84:	00c7b7b3          	sltu	a5,a5,a2
    1b88:	00379793          	slli	a5,a5,0x3
    1b8c:	00f65733          	srl	a4,a2,a5
    1b90:	00e484b3          	add	s1,s1,a4
    1b94:	0004c703          	lbu	a4,0(s1)
    1b98:	02000693          	li	a3,32
    1b9c:	00f707b3          	add	a5,a4,a5
    1ba0:	40f68733          	sub	a4,a3,a5
    1ba4:	00f68c63          	beq	a3,a5,1bbc <__udivdi3+0x98>
    1ba8:	00e41433          	sll	s0,s0,a4
    1bac:	00fbd7b3          	srl	a5,s7,a5
    1bb0:	00e61933          	sll	s2,a2,a4
    1bb4:	0087ec33          	or	s8,a5,s0
    1bb8:	00eb9a33          	sll	s4,s7,a4
    1bbc:	01095b13          	srli	s6,s2,0x10
    1bc0:	000b0593          	mv	a1,s6
    1bc4:	000c0513          	mv	a0,s8
    1bc8:	299000ef          	jal	ra,2660 <__umodsi3>
    1bcc:	00050493          	mv	s1,a0
    1bd0:	000b0593          	mv	a1,s6
    1bd4:	01091a93          	slli	s5,s2,0x10
    1bd8:	000c0513          	mv	a0,s8
    1bdc:	23d000ef          	jal	ra,2618 <__udivsi3>
    1be0:	010ada93          	srli	s5,s5,0x10
    1be4:	00050413          	mv	s0,a0
    1be8:	00050593          	mv	a1,a0
    1bec:	000a8513          	mv	a0,s5
    1bf0:	1fd000ef          	jal	ra,25ec <__mulsi3>
    1bf4:	01049493          	slli	s1,s1,0x10
    1bf8:	010a5713          	srli	a4,s4,0x10
    1bfc:	00e4e733          	or	a4,s1,a4
    1c00:	00040993          	mv	s3,s0
    1c04:	00a77e63          	bgeu	a4,a0,1c20 <__udivdi3+0xfc>
    1c08:	01270733          	add	a4,a4,s2
    1c0c:	fff40993          	addi	s3,s0,-1
    1c10:	01276863          	bltu	a4,s2,1c20 <__udivdi3+0xfc>
    1c14:	00a77663          	bgeu	a4,a0,1c20 <__udivdi3+0xfc>
    1c18:	ffe40993          	addi	s3,s0,-2
    1c1c:	01270733          	add	a4,a4,s2
    1c20:	40a70433          	sub	s0,a4,a0
    1c24:	000b0593          	mv	a1,s6
    1c28:	00040513          	mv	a0,s0
    1c2c:	235000ef          	jal	ra,2660 <__umodsi3>
    1c30:	00050493          	mv	s1,a0
    1c34:	000b0593          	mv	a1,s6
    1c38:	00040513          	mv	a0,s0
    1c3c:	1dd000ef          	jal	ra,2618 <__udivsi3>
    1c40:	010a1a13          	slli	s4,s4,0x10
    1c44:	00050413          	mv	s0,a0
    1c48:	00050593          	mv	a1,a0
    1c4c:	01049493          	slli	s1,s1,0x10
    1c50:	000a8513          	mv	a0,s5
    1c54:	010a5a13          	srli	s4,s4,0x10
    1c58:	195000ef          	jal	ra,25ec <__mulsi3>
    1c5c:	0144ea33          	or	s4,s1,s4
    1c60:	00040613          	mv	a2,s0
    1c64:	00aa7c63          	bgeu	s4,a0,1c7c <__udivdi3+0x158>
    1c68:	01490a33          	add	s4,s2,s4
    1c6c:	fff40613          	addi	a2,s0,-1
    1c70:	012a6663          	bltu	s4,s2,1c7c <__udivdi3+0x158>
    1c74:	00aa7463          	bgeu	s4,a0,1c7c <__udivdi3+0x158>
    1c78:	ffe40613          	addi	a2,s0,-2
    1c7c:	01099793          	slli	a5,s3,0x10
    1c80:	00c7e7b3          	or	a5,a5,a2
    1c84:	00000993          	li	s3,0
    1c88:	1300006f          	j	1db8 <__udivdi3+0x294>
    1c8c:	01000737          	lui	a4,0x1000
    1c90:	01000793          	li	a5,16
    1c94:	eee66ce3          	bltu	a2,a4,1b8c <__udivdi3+0x68>
    1c98:	01800793          	li	a5,24
    1c9c:	ef1ff06f          	j	1b8c <__udivdi3+0x68>
    1ca0:	00068993          	mv	s3,a3
    1ca4:	00061a63          	bnez	a2,1cb8 <__udivdi3+0x194>
    1ca8:	00000593          	li	a1,0
    1cac:	00100513          	li	a0,1
    1cb0:	169000ef          	jal	ra,2618 <__udivsi3>
    1cb4:	00050913          	mv	s2,a0
    1cb8:	000107b7          	lui	a5,0x10
    1cbc:	12f97c63          	bgeu	s2,a5,1df4 <__udivdi3+0x2d0>
    1cc0:	0ff00793          	li	a5,255
    1cc4:	0127f463          	bgeu	a5,s2,1ccc <__udivdi3+0x1a8>
    1cc8:	00800993          	li	s3,8
    1ccc:	013957b3          	srl	a5,s2,s3
    1cd0:	00f484b3          	add	s1,s1,a5
    1cd4:	0004c783          	lbu	a5,0(s1)
    1cd8:	02000693          	li	a3,32
    1cdc:	013787b3          	add	a5,a5,s3
    1ce0:	40f68733          	sub	a4,a3,a5
    1ce4:	12f69263          	bne	a3,a5,1e08 <__udivdi3+0x2e4>
    1ce8:	41240433          	sub	s0,s0,s2
    1cec:	00100993          	li	s3,1
    1cf0:	01095a93          	srli	s5,s2,0x10
    1cf4:	000a8593          	mv	a1,s5
    1cf8:	00040513          	mv	a0,s0
    1cfc:	165000ef          	jal	ra,2660 <__umodsi3>
    1d00:	00050493          	mv	s1,a0
    1d04:	000a8593          	mv	a1,s5
    1d08:	00040513          	mv	a0,s0
    1d0c:	01091b13          	slli	s6,s2,0x10
    1d10:	109000ef          	jal	ra,2618 <__udivsi3>
    1d14:	010b5b13          	srli	s6,s6,0x10
    1d18:	00050413          	mv	s0,a0
    1d1c:	00050593          	mv	a1,a0
    1d20:	000b0513          	mv	a0,s6
    1d24:	0c9000ef          	jal	ra,25ec <__mulsi3>
    1d28:	01049493          	slli	s1,s1,0x10
    1d2c:	010a5713          	srli	a4,s4,0x10
    1d30:	00e4e733          	or	a4,s1,a4
    1d34:	00040b93          	mv	s7,s0
    1d38:	00a77e63          	bgeu	a4,a0,1d54 <__udivdi3+0x230>
    1d3c:	01270733          	add	a4,a4,s2
    1d40:	fff40b93          	addi	s7,s0,-1
    1d44:	01276863          	bltu	a4,s2,1d54 <__udivdi3+0x230>
    1d48:	00a77663          	bgeu	a4,a0,1d54 <__udivdi3+0x230>
    1d4c:	ffe40b93          	addi	s7,s0,-2
    1d50:	01270733          	add	a4,a4,s2
    1d54:	40a70433          	sub	s0,a4,a0
    1d58:	000a8593          	mv	a1,s5
    1d5c:	00040513          	mv	a0,s0
    1d60:	101000ef          	jal	ra,2660 <__umodsi3>
    1d64:	00050493          	mv	s1,a0
    1d68:	000a8593          	mv	a1,s5
    1d6c:	00040513          	mv	a0,s0
    1d70:	0a9000ef          	jal	ra,2618 <__udivsi3>
    1d74:	010a1a13          	slli	s4,s4,0x10
    1d78:	00050413          	mv	s0,a0
    1d7c:	00050593          	mv	a1,a0
    1d80:	01049493          	slli	s1,s1,0x10
    1d84:	000b0513          	mv	a0,s6
    1d88:	010a5a13          	srli	s4,s4,0x10
    1d8c:	061000ef          	jal	ra,25ec <__mulsi3>
    1d90:	0144ea33          	or	s4,s1,s4
    1d94:	00040613          	mv	a2,s0
    1d98:	00aa7c63          	bgeu	s4,a0,1db0 <__udivdi3+0x28c>
    1d9c:	01490a33          	add	s4,s2,s4
    1da0:	fff40613          	addi	a2,s0,-1
    1da4:	012a6663          	bltu	s4,s2,1db0 <__udivdi3+0x28c>
    1da8:	00aa7463          	bgeu	s4,a0,1db0 <__udivdi3+0x28c>
    1dac:	ffe40613          	addi	a2,s0,-2
    1db0:	010b9793          	slli	a5,s7,0x10
    1db4:	00c7e7b3          	or	a5,a5,a2
    1db8:	00078513          	mv	a0,a5
    1dbc:	00098593          	mv	a1,s3
    1dc0:	02c12083          	lw	ra,44(sp)
    1dc4:	02812403          	lw	s0,40(sp)
    1dc8:	02412483          	lw	s1,36(sp)
    1dcc:	02012903          	lw	s2,32(sp)
    1dd0:	01c12983          	lw	s3,28(sp)
    1dd4:	01812a03          	lw	s4,24(sp)
    1dd8:	01412a83          	lw	s5,20(sp)
    1ddc:	01012b03          	lw	s6,16(sp)
    1de0:	00c12b83          	lw	s7,12(sp)
    1de4:	00812c03          	lw	s8,8(sp)
    1de8:	00412c83          	lw	s9,4(sp)
    1dec:	03010113          	addi	sp,sp,48
    1df0:	00008067          	ret
    1df4:	010007b7          	lui	a5,0x1000
    1df8:	01000993          	li	s3,16
    1dfc:	ecf968e3          	bltu	s2,a5,1ccc <__udivdi3+0x1a8>
    1e00:	01800993          	li	s3,24
    1e04:	ec9ff06f          	j	1ccc <__udivdi3+0x1a8>
    1e08:	00e91933          	sll	s2,s2,a4
    1e0c:	00f459b3          	srl	s3,s0,a5
    1e10:	00fbd7b3          	srl	a5,s7,a5
    1e14:	00e41433          	sll	s0,s0,a4
    1e18:	0087eb33          	or	s6,a5,s0
    1e1c:	01095413          	srli	s0,s2,0x10
    1e20:	00040593          	mv	a1,s0
    1e24:	00098513          	mv	a0,s3
    1e28:	00eb9a33          	sll	s4,s7,a4
    1e2c:	035000ef          	jal	ra,2660 <__umodsi3>
    1e30:	00050493          	mv	s1,a0
    1e34:	00040593          	mv	a1,s0
    1e38:	00098513          	mv	a0,s3
    1e3c:	01091b93          	slli	s7,s2,0x10
    1e40:	7d8000ef          	jal	ra,2618 <__udivsi3>
    1e44:	010bdb93          	srli	s7,s7,0x10
    1e48:	00050a93          	mv	s5,a0
    1e4c:	00050593          	mv	a1,a0
    1e50:	000b8513          	mv	a0,s7
    1e54:	798000ef          	jal	ra,25ec <__mulsi3>
    1e58:	01049493          	slli	s1,s1,0x10
    1e5c:	010b5793          	srli	a5,s6,0x10
    1e60:	00f4e7b3          	or	a5,s1,a5
    1e64:	000a8993          	mv	s3,s5
    1e68:	00a7fe63          	bgeu	a5,a0,1e84 <__udivdi3+0x360>
    1e6c:	012787b3          	add	a5,a5,s2
    1e70:	fffa8993          	addi	s3,s5,-1
    1e74:	0127e863          	bltu	a5,s2,1e84 <__udivdi3+0x360>
    1e78:	00a7f663          	bgeu	a5,a0,1e84 <__udivdi3+0x360>
    1e7c:	ffea8993          	addi	s3,s5,-2
    1e80:	012787b3          	add	a5,a5,s2
    1e84:	40a78ab3          	sub	s5,a5,a0
    1e88:	00040593          	mv	a1,s0
    1e8c:	000a8513          	mv	a0,s5
    1e90:	7d0000ef          	jal	ra,2660 <__umodsi3>
    1e94:	00040593          	mv	a1,s0
    1e98:	00050493          	mv	s1,a0
    1e9c:	000a8513          	mv	a0,s5
    1ea0:	778000ef          	jal	ra,2618 <__udivsi3>
    1ea4:	010b1413          	slli	s0,s6,0x10
    1ea8:	00050a93          	mv	s5,a0
    1eac:	00050593          	mv	a1,a0
    1eb0:	01049493          	slli	s1,s1,0x10
    1eb4:	000b8513          	mv	a0,s7
    1eb8:	01045413          	srli	s0,s0,0x10
    1ebc:	730000ef          	jal	ra,25ec <__mulsi3>
    1ec0:	0084e433          	or	s0,s1,s0
    1ec4:	000a8793          	mv	a5,s5
    1ec8:	00a47e63          	bgeu	s0,a0,1ee4 <__udivdi3+0x3c0>
    1ecc:	01240433          	add	s0,s0,s2
    1ed0:	fffa8793          	addi	a5,s5,-1
    1ed4:	01246863          	bltu	s0,s2,1ee4 <__udivdi3+0x3c0>
    1ed8:	00a47663          	bgeu	s0,a0,1ee4 <__udivdi3+0x3c0>
    1edc:	ffea8793          	addi	a5,s5,-2
    1ee0:	01240433          	add	s0,s0,s2
    1ee4:	01099993          	slli	s3,s3,0x10
    1ee8:	40a40433          	sub	s0,s0,a0
    1eec:	00f9e9b3          	or	s3,s3,a5
    1ef0:	e01ff06f          	j	1cf0 <__udivdi3+0x1cc>
    1ef4:	1ed5ee63          	bltu	a1,a3,20f0 <__udivdi3+0x5cc>
    1ef8:	000107b7          	lui	a5,0x10
    1efc:	04f6f463          	bgeu	a3,a5,1f44 <__udivdi3+0x420>
    1f00:	0ff00a93          	li	s5,255
    1f04:	00dab7b3          	sltu	a5,s5,a3
    1f08:	00379793          	slli	a5,a5,0x3
    1f0c:	00f6d5b3          	srl	a1,a3,a5
    1f10:	00001717          	auipc	a4,0x1
    1f14:	97070713          	addi	a4,a4,-1680 # 2880 <__clz_tab>
    1f18:	00b70733          	add	a4,a4,a1
    1f1c:	00074a83          	lbu	s5,0(a4)
    1f20:	00fa8ab3          	add	s5,s5,a5
    1f24:	02000793          	li	a5,32
    1f28:	415789b3          	sub	s3,a5,s5
    1f2c:	03579663          	bne	a5,s5,1f58 <__udivdi3+0x434>
    1f30:	00100793          	li	a5,1
    1f34:	e886e2e3          	bltu	a3,s0,1db8 <__udivdi3+0x294>
    1f38:	00cbb633          	sltu	a2,s7,a2
    1f3c:	00164793          	xori	a5,a2,1
    1f40:	e79ff06f          	j	1db8 <__udivdi3+0x294>
    1f44:	01000737          	lui	a4,0x1000
    1f48:	01000793          	li	a5,16
    1f4c:	fce6e0e3          	bltu	a3,a4,1f0c <__udivdi3+0x3e8>
    1f50:	01800793          	li	a5,24
    1f54:	fb9ff06f          	j	1f0c <__udivdi3+0x3e8>
    1f58:	01565cb3          	srl	s9,a2,s5
    1f5c:	013696b3          	sll	a3,a3,s3
    1f60:	00dcecb3          	or	s9,s9,a3
    1f64:	01545933          	srl	s2,s0,s5
    1f68:	01341433          	sll	s0,s0,s3
    1f6c:	015bdab3          	srl	s5,s7,s5
    1f70:	008aeab3          	or	s5,s5,s0
    1f74:	010cd413          	srli	s0,s9,0x10
    1f78:	00040593          	mv	a1,s0
    1f7c:	00090513          	mv	a0,s2
    1f80:	013614b3          	sll	s1,a2,s3
    1f84:	6dc000ef          	jal	ra,2660 <__umodsi3>
    1f88:	00050a13          	mv	s4,a0
    1f8c:	00040593          	mv	a1,s0
    1f90:	00090513          	mv	a0,s2
    1f94:	010c9b13          	slli	s6,s9,0x10
    1f98:	680000ef          	jal	ra,2618 <__udivsi3>
    1f9c:	010b5b13          	srli	s6,s6,0x10
    1fa0:	00050913          	mv	s2,a0
    1fa4:	00050593          	mv	a1,a0
    1fa8:	000b0513          	mv	a0,s6
    1fac:	640000ef          	jal	ra,25ec <__mulsi3>
    1fb0:	010a1a13          	slli	s4,s4,0x10
    1fb4:	010ad713          	srli	a4,s5,0x10
    1fb8:	00ea6733          	or	a4,s4,a4
    1fbc:	00090c13          	mv	s8,s2
    1fc0:	00a77e63          	bgeu	a4,a0,1fdc <__udivdi3+0x4b8>
    1fc4:	01970733          	add	a4,a4,s9
    1fc8:	fff90c13          	addi	s8,s2,-1
    1fcc:	01976863          	bltu	a4,s9,1fdc <__udivdi3+0x4b8>
    1fd0:	00a77663          	bgeu	a4,a0,1fdc <__udivdi3+0x4b8>
    1fd4:	ffe90c13          	addi	s8,s2,-2
    1fd8:	01970733          	add	a4,a4,s9
    1fdc:	40a70933          	sub	s2,a4,a0
    1fe0:	00040593          	mv	a1,s0
    1fe4:	00090513          	mv	a0,s2
    1fe8:	678000ef          	jal	ra,2660 <__umodsi3>
    1fec:	00040593          	mv	a1,s0
    1ff0:	00050a13          	mv	s4,a0
    1ff4:	00090513          	mv	a0,s2
    1ff8:	620000ef          	jal	ra,2618 <__udivsi3>
    1ffc:	010a9413          	slli	s0,s5,0x10
    2000:	00050913          	mv	s2,a0
    2004:	00050593          	mv	a1,a0
    2008:	010a1a13          	slli	s4,s4,0x10
    200c:	000b0513          	mv	a0,s6
    2010:	01045413          	srli	s0,s0,0x10
    2014:	5d8000ef          	jal	ra,25ec <__mulsi3>
    2018:	008a6433          	or	s0,s4,s0
    201c:	00090613          	mv	a2,s2
    2020:	00a47e63          	bgeu	s0,a0,203c <__udivdi3+0x518>
    2024:	01940433          	add	s0,s0,s9
    2028:	fff90613          	addi	a2,s2,-1
    202c:	01946863          	bltu	s0,s9,203c <__udivdi3+0x518>
    2030:	00a47663          	bgeu	s0,a0,203c <__udivdi3+0x518>
    2034:	ffe90613          	addi	a2,s2,-2
    2038:	01940433          	add	s0,s0,s9
    203c:	010c1793          	slli	a5,s8,0x10
    2040:	00010e37          	lui	t3,0x10
    2044:	00c7e7b3          	or	a5,a5,a2
    2048:	fffe0313          	addi	t1,t3,-1 # ffff <__global_pointer$+0xce7f>
    204c:	0067f8b3          	and	a7,a5,t1
    2050:	0064f333          	and	t1,s1,t1
    2054:	40a40433          	sub	s0,s0,a0
    2058:	0107de93          	srli	t4,a5,0x10
    205c:	0104d493          	srli	s1,s1,0x10
    2060:	00088513          	mv	a0,a7
    2064:	00030593          	mv	a1,t1
    2068:	584000ef          	jal	ra,25ec <__mulsi3>
    206c:	00050813          	mv	a6,a0
    2070:	00048593          	mv	a1,s1
    2074:	00088513          	mv	a0,a7
    2078:	574000ef          	jal	ra,25ec <__mulsi3>
    207c:	00050893          	mv	a7,a0
    2080:	00030593          	mv	a1,t1
    2084:	000e8513          	mv	a0,t4
    2088:	564000ef          	jal	ra,25ec <__mulsi3>
    208c:	00050313          	mv	t1,a0
    2090:	00048593          	mv	a1,s1
    2094:	000e8513          	mv	a0,t4
    2098:	554000ef          	jal	ra,25ec <__mulsi3>
    209c:	01085713          	srli	a4,a6,0x10
    20a0:	006888b3          	add	a7,a7,t1
    20a4:	01170733          	add	a4,a4,a7
    20a8:	00050693          	mv	a3,a0
    20ac:	00677463          	bgeu	a4,t1,20b4 <__udivdi3+0x590>
    20b0:	01c506b3          	add	a3,a0,t3
    20b4:	01075513          	srli	a0,a4,0x10
    20b8:	00d506b3          	add	a3,a0,a3
    20bc:	02d46663          	bltu	s0,a3,20e8 <__udivdi3+0x5c4>
    20c0:	bcd412e3          	bne	s0,a3,1c84 <__udivdi3+0x160>
    20c4:	00010537          	lui	a0,0x10
    20c8:	fff50513          	addi	a0,a0,-1 # ffff <__global_pointer$+0xce7f>
    20cc:	00a77733          	and	a4,a4,a0
    20d0:	01071713          	slli	a4,a4,0x10
    20d4:	00a87833          	and	a6,a6,a0
    20d8:	013b9bb3          	sll	s7,s7,s3
    20dc:	01070733          	add	a4,a4,a6
    20e0:	00000993          	li	s3,0
    20e4:	ccebfae3          	bgeu	s7,a4,1db8 <__udivdi3+0x294>
    20e8:	fff78793          	addi	a5,a5,-1 # ffff <__global_pointer$+0xce7f>
    20ec:	b99ff06f          	j	1c84 <__udivdi3+0x160>
    20f0:	00000993          	li	s3,0
    20f4:	00000793          	li	a5,0
    20f8:	cc1ff06f          	j	1db8 <__udivdi3+0x294>

000020fc <__umoddi3>:
    20fc:	fd010113          	addi	sp,sp,-48
    2100:	02812423          	sw	s0,40(sp)
    2104:	02912223          	sw	s1,36(sp)
    2108:	03212023          	sw	s2,32(sp)
    210c:	01612823          	sw	s6,16(sp)
    2110:	02112623          	sw	ra,44(sp)
    2114:	01312e23          	sw	s3,28(sp)
    2118:	01412c23          	sw	s4,24(sp)
    211c:	01512a23          	sw	s5,20(sp)
    2120:	01712623          	sw	s7,12(sp)
    2124:	01812423          	sw	s8,8(sp)
    2128:	01912223          	sw	s9,4(sp)
    212c:	01a12023          	sw	s10,0(sp)
    2130:	00050913          	mv	s2,a0
    2134:	00058b13          	mv	s6,a1
    2138:	00050413          	mv	s0,a0
    213c:	00058493          	mv	s1,a1
    2140:	26069c63          	bnez	a3,23b8 <__umoddi3+0x2bc>
    2144:	00060a13          	mv	s4,a2
    2148:	00068993          	mv	s3,a3
    214c:	00000a97          	auipc	s5,0x0
    2150:	734a8a93          	addi	s5,s5,1844 # 2880 <__clz_tab>
    2154:	14c5f263          	bgeu	a1,a2,2298 <__umoddi3+0x19c>
    2158:	000107b7          	lui	a5,0x10
    215c:	12f67463          	bgeu	a2,a5,2284 <__umoddi3+0x188>
    2160:	0ff00793          	li	a5,255
    2164:	00c7f463          	bgeu	a5,a2,216c <__umoddi3+0x70>
    2168:	00800993          	li	s3,8
    216c:	013657b3          	srl	a5,a2,s3
    2170:	00fa8ab3          	add	s5,s5,a5
    2174:	000ac783          	lbu	a5,0(s5)
    2178:	02000713          	li	a4,32
    217c:	013787b3          	add	a5,a5,s3
    2180:	40f709b3          	sub	s3,a4,a5
    2184:	00f70c63          	beq	a4,a5,219c <__umoddi3+0xa0>
    2188:	013b15b3          	sll	a1,s6,s3
    218c:	00f957b3          	srl	a5,s2,a5
    2190:	01361a33          	sll	s4,a2,s3
    2194:	00b7e4b3          	or	s1,a5,a1
    2198:	01391433          	sll	s0,s2,s3
    219c:	010a5a93          	srli	s5,s4,0x10
    21a0:	000a8593          	mv	a1,s5
    21a4:	00048513          	mv	a0,s1
    21a8:	4b8000ef          	jal	ra,2660 <__umodsi3>
    21ac:	00050913          	mv	s2,a0
    21b0:	000a8593          	mv	a1,s5
    21b4:	010a1b13          	slli	s6,s4,0x10
    21b8:	00048513          	mv	a0,s1
    21bc:	45c000ef          	jal	ra,2618 <__udivsi3>
    21c0:	010b5b13          	srli	s6,s6,0x10
    21c4:	00050593          	mv	a1,a0
    21c8:	000b0513          	mv	a0,s6
    21cc:	420000ef          	jal	ra,25ec <__mulsi3>
    21d0:	01091913          	slli	s2,s2,0x10
    21d4:	01045793          	srli	a5,s0,0x10
    21d8:	00f967b3          	or	a5,s2,a5
    21dc:	00a7fa63          	bgeu	a5,a0,21f0 <__umoddi3+0xf4>
    21e0:	014787b3          	add	a5,a5,s4
    21e4:	0147e663          	bltu	a5,s4,21f0 <__umoddi3+0xf4>
    21e8:	00a7f463          	bgeu	a5,a0,21f0 <__umoddi3+0xf4>
    21ec:	014787b3          	add	a5,a5,s4
    21f0:	40a784b3          	sub	s1,a5,a0
    21f4:	000a8593          	mv	a1,s5
    21f8:	00048513          	mv	a0,s1
    21fc:	464000ef          	jal	ra,2660 <__umodsi3>
    2200:	00050913          	mv	s2,a0
    2204:	000a8593          	mv	a1,s5
    2208:	00048513          	mv	a0,s1
    220c:	40c000ef          	jal	ra,2618 <__udivsi3>
    2210:	01041413          	slli	s0,s0,0x10
    2214:	00050593          	mv	a1,a0
    2218:	01091913          	slli	s2,s2,0x10
    221c:	000b0513          	mv	a0,s6
    2220:	01045413          	srli	s0,s0,0x10
    2224:	3c8000ef          	jal	ra,25ec <__mulsi3>
    2228:	00896433          	or	s0,s2,s0
    222c:	00a47a63          	bgeu	s0,a0,2240 <__umoddi3+0x144>
    2230:	01440433          	add	s0,s0,s4
    2234:	01446663          	bltu	s0,s4,2240 <__umoddi3+0x144>
    2238:	00a47463          	bgeu	s0,a0,2240 <__umoddi3+0x144>
    223c:	01440433          	add	s0,s0,s4
    2240:	40a40433          	sub	s0,s0,a0
    2244:	01345533          	srl	a0,s0,s3
    2248:	00000593          	li	a1,0
    224c:	02c12083          	lw	ra,44(sp)
    2250:	02812403          	lw	s0,40(sp)
    2254:	02412483          	lw	s1,36(sp)
    2258:	02012903          	lw	s2,32(sp)
    225c:	01c12983          	lw	s3,28(sp)
    2260:	01812a03          	lw	s4,24(sp)
    2264:	01412a83          	lw	s5,20(sp)
    2268:	01012b03          	lw	s6,16(sp)
    226c:	00c12b83          	lw	s7,12(sp)
    2270:	00812c03          	lw	s8,8(sp)
    2274:	00412c83          	lw	s9,4(sp)
    2278:	00012d03          	lw	s10,0(sp)
    227c:	03010113          	addi	sp,sp,48
    2280:	00008067          	ret
    2284:	010007b7          	lui	a5,0x1000
    2288:	01000993          	li	s3,16
    228c:	eef660e3          	bltu	a2,a5,216c <__umoddi3+0x70>
    2290:	01800993          	li	s3,24
    2294:	ed9ff06f          	j	216c <__umoddi3+0x70>
    2298:	00061a63          	bnez	a2,22ac <__umoddi3+0x1b0>
    229c:	00000593          	li	a1,0
    22a0:	00100513          	li	a0,1
    22a4:	374000ef          	jal	ra,2618 <__udivsi3>
    22a8:	00050a13          	mv	s4,a0
    22ac:	000107b7          	lui	a5,0x10
    22b0:	0efa7a63          	bgeu	s4,a5,23a4 <__umoddi3+0x2a8>
    22b4:	0ff00793          	li	a5,255
    22b8:	0147f463          	bgeu	a5,s4,22c0 <__umoddi3+0x1c4>
    22bc:	00800993          	li	s3,8
    22c0:	013a57b3          	srl	a5,s4,s3
    22c4:	00fa8ab3          	add	s5,s5,a5
    22c8:	000ac783          	lbu	a5,0(s5)
    22cc:	02000713          	li	a4,32
    22d0:	414b04b3          	sub	s1,s6,s4
    22d4:	013787b3          	add	a5,a5,s3
    22d8:	40f709b3          	sub	s3,a4,a5
    22dc:	ecf700e3          	beq	a4,a5,219c <__umoddi3+0xa0>
    22e0:	013a1a33          	sll	s4,s4,s3
    22e4:	00fb5ab3          	srl	s5,s6,a5
    22e8:	013b15b3          	sll	a1,s6,s3
    22ec:	00f957b3          	srl	a5,s2,a5
    22f0:	010a5493          	srli	s1,s4,0x10
    22f4:	00b7eb33          	or	s6,a5,a1
    22f8:	000a8513          	mv	a0,s5
    22fc:	00048593          	mv	a1,s1
    2300:	360000ef          	jal	ra,2660 <__umodsi3>
    2304:	00048593          	mv	a1,s1
    2308:	01391433          	sll	s0,s2,s3
    230c:	010a1b93          	slli	s7,s4,0x10
    2310:	00050913          	mv	s2,a0
    2314:	000a8513          	mv	a0,s5
    2318:	300000ef          	jal	ra,2618 <__udivsi3>
    231c:	010bdb93          	srli	s7,s7,0x10
    2320:	00050593          	mv	a1,a0
    2324:	000b8513          	mv	a0,s7
    2328:	2c4000ef          	jal	ra,25ec <__mulsi3>
    232c:	01091913          	slli	s2,s2,0x10
    2330:	010b5793          	srli	a5,s6,0x10
    2334:	00f967b3          	or	a5,s2,a5
    2338:	00a7fa63          	bgeu	a5,a0,234c <__umoddi3+0x250>
    233c:	014787b3          	add	a5,a5,s4
    2340:	0147e663          	bltu	a5,s4,234c <__umoddi3+0x250>
    2344:	00a7f463          	bgeu	a5,a0,234c <__umoddi3+0x250>
    2348:	014787b3          	add	a5,a5,s4
    234c:	40a78ab3          	sub	s5,a5,a0
    2350:	00048593          	mv	a1,s1
    2354:	000a8513          	mv	a0,s5
    2358:	308000ef          	jal	ra,2660 <__umodsi3>
    235c:	00050913          	mv	s2,a0
    2360:	00048593          	mv	a1,s1
    2364:	000a8513          	mv	a0,s5
    2368:	2b0000ef          	jal	ra,2618 <__udivsi3>
    236c:	00050593          	mv	a1,a0
    2370:	000b8513          	mv	a0,s7
    2374:	278000ef          	jal	ra,25ec <__mulsi3>
    2378:	010b1593          	slli	a1,s6,0x10
    237c:	01091913          	slli	s2,s2,0x10
    2380:	0105d593          	srli	a1,a1,0x10
    2384:	00b965b3          	or	a1,s2,a1
    2388:	00a5fa63          	bgeu	a1,a0,239c <__umoddi3+0x2a0>
    238c:	014585b3          	add	a1,a1,s4
    2390:	0145e663          	bltu	a1,s4,239c <__umoddi3+0x2a0>
    2394:	00a5f463          	bgeu	a1,a0,239c <__umoddi3+0x2a0>
    2398:	014585b3          	add	a1,a1,s4
    239c:	40a584b3          	sub	s1,a1,a0
    23a0:	dfdff06f          	j	219c <__umoddi3+0xa0>
    23a4:	010007b7          	lui	a5,0x1000
    23a8:	01000993          	li	s3,16
    23ac:	f0fa6ae3          	bltu	s4,a5,22c0 <__umoddi3+0x1c4>
    23b0:	01800993          	li	s3,24
    23b4:	f0dff06f          	j	22c0 <__umoddi3+0x1c4>
    23b8:	e8d5eae3          	bltu	a1,a3,224c <__umoddi3+0x150>
    23bc:	000107b7          	lui	a5,0x10
    23c0:	04f6fc63          	bgeu	a3,a5,2418 <__umoddi3+0x31c>
    23c4:	0ff00a93          	li	s5,255
    23c8:	00dab533          	sltu	a0,s5,a3
    23cc:	00351513          	slli	a0,a0,0x3
    23d0:	00a6d733          	srl	a4,a3,a0
    23d4:	00000797          	auipc	a5,0x0
    23d8:	4ac78793          	addi	a5,a5,1196 # 2880 <__clz_tab>
    23dc:	00e787b3          	add	a5,a5,a4
    23e0:	0007ca83          	lbu	s5,0(a5)
    23e4:	02000793          	li	a5,32
    23e8:	00aa8ab3          	add	s5,s5,a0
    23ec:	41578a33          	sub	s4,a5,s5
    23f0:	03579e63          	bne	a5,s5,242c <__umoddi3+0x330>
    23f4:	0166e463          	bltu	a3,s6,23fc <__umoddi3+0x300>
    23f8:	00c96a63          	bltu	s2,a2,240c <__umoddi3+0x310>
    23fc:	40c90433          	sub	s0,s2,a2
    2400:	40db05b3          	sub	a1,s6,a3
    2404:	00893533          	sltu	a0,s2,s0
    2408:	40a584b3          	sub	s1,a1,a0
    240c:	00040513          	mv	a0,s0
    2410:	00048593          	mv	a1,s1
    2414:	e39ff06f          	j	224c <__umoddi3+0x150>
    2418:	010007b7          	lui	a5,0x1000
    241c:	01000513          	li	a0,16
    2420:	faf6e8e3          	bltu	a3,a5,23d0 <__umoddi3+0x2d4>
    2424:	01800513          	li	a0,24
    2428:	fa9ff06f          	j	23d0 <__umoddi3+0x2d4>
    242c:	014696b3          	sll	a3,a3,s4
    2430:	015657b3          	srl	a5,a2,s5
    2434:	00d7ec33          	or	s8,a5,a3
    2438:	015b5d33          	srl	s10,s6,s5
    243c:	014b15b3          	sll	a1,s6,s4
    2440:	015954b3          	srl	s1,s2,s5
    2444:	010c5b13          	srli	s6,s8,0x10
    2448:	00b4e4b3          	or	s1,s1,a1
    244c:	000d0513          	mv	a0,s10
    2450:	000b0593          	mv	a1,s6
    2454:	01461cb3          	sll	s9,a2,s4
    2458:	208000ef          	jal	ra,2660 <__umodsi3>
    245c:	00050993          	mv	s3,a0
    2460:	000b0593          	mv	a1,s6
    2464:	000d0513          	mv	a0,s10
    2468:	010c1b93          	slli	s7,s8,0x10
    246c:	1ac000ef          	jal	ra,2618 <__udivsi3>
    2470:	010bdb93          	srli	s7,s7,0x10
    2474:	00050593          	mv	a1,a0
    2478:	01491433          	sll	s0,s2,s4
    247c:	00050913          	mv	s2,a0
    2480:	000b8513          	mv	a0,s7
    2484:	168000ef          	jal	ra,25ec <__mulsi3>
    2488:	01099993          	slli	s3,s3,0x10
    248c:	0104d713          	srli	a4,s1,0x10
    2490:	00e9e733          	or	a4,s3,a4
    2494:	00090d13          	mv	s10,s2
    2498:	00a77e63          	bgeu	a4,a0,24b4 <__umoddi3+0x3b8>
    249c:	01870733          	add	a4,a4,s8
    24a0:	fff90d13          	addi	s10,s2,-1
    24a4:	01876863          	bltu	a4,s8,24b4 <__umoddi3+0x3b8>
    24a8:	00a77663          	bgeu	a4,a0,24b4 <__umoddi3+0x3b8>
    24ac:	ffe90d13          	addi	s10,s2,-2
    24b0:	01870733          	add	a4,a4,s8
    24b4:	40a70933          	sub	s2,a4,a0
    24b8:	000b0593          	mv	a1,s6
    24bc:	00090513          	mv	a0,s2
    24c0:	1a0000ef          	jal	ra,2660 <__umodsi3>
    24c4:	00050993          	mv	s3,a0
    24c8:	000b0593          	mv	a1,s6
    24cc:	00090513          	mv	a0,s2
    24d0:	148000ef          	jal	ra,2618 <__udivsi3>
    24d4:	00050913          	mv	s2,a0
    24d8:	00050593          	mv	a1,a0
    24dc:	000b8513          	mv	a0,s7
    24e0:	10c000ef          	jal	ra,25ec <__mulsi3>
    24e4:	01049713          	slli	a4,s1,0x10
    24e8:	01099993          	slli	s3,s3,0x10
    24ec:	01075713          	srli	a4,a4,0x10
    24f0:	00e9e733          	or	a4,s3,a4
    24f4:	00090793          	mv	a5,s2
    24f8:	00a77e63          	bgeu	a4,a0,2514 <__umoddi3+0x418>
    24fc:	01870733          	add	a4,a4,s8
    2500:	fff90793          	addi	a5,s2,-1
    2504:	01876863          	bltu	a4,s8,2514 <__umoddi3+0x418>
    2508:	00a77663          	bgeu	a4,a0,2514 <__umoddi3+0x418>
    250c:	ffe90793          	addi	a5,s2,-2
    2510:	01870733          	add	a4,a4,s8
    2514:	00010eb7          	lui	t4,0x10
    2518:	010d1d13          	slli	s10,s10,0x10
    251c:	00fd6d33          	or	s10,s10,a5
    2520:	fffe8793          	addi	a5,t4,-1 # ffff <__global_pointer$+0xce7f>
    2524:	00fd78b3          	and	a7,s10,a5
    2528:	00fcf7b3          	and	a5,s9,a5
    252c:	40a70733          	sub	a4,a4,a0
    2530:	010d5d13          	srli	s10,s10,0x10
    2534:	010cde13          	srli	t3,s9,0x10
    2538:	00088513          	mv	a0,a7
    253c:	00078593          	mv	a1,a5
    2540:	0ac000ef          	jal	ra,25ec <__mulsi3>
    2544:	00050813          	mv	a6,a0
    2548:	000e0593          	mv	a1,t3
    254c:	00088513          	mv	a0,a7
    2550:	09c000ef          	jal	ra,25ec <__mulsi3>
    2554:	00050893          	mv	a7,a0
    2558:	00078593          	mv	a1,a5
    255c:	000d0513          	mv	a0,s10
    2560:	08c000ef          	jal	ra,25ec <__mulsi3>
    2564:	00050313          	mv	t1,a0
    2568:	000e0593          	mv	a1,t3
    256c:	000d0513          	mv	a0,s10
    2570:	07c000ef          	jal	ra,25ec <__mulsi3>
    2574:	01085793          	srli	a5,a6,0x10
    2578:	006888b3          	add	a7,a7,t1
    257c:	011787b3          	add	a5,a5,a7
    2580:	0067f463          	bgeu	a5,t1,2588 <__umoddi3+0x48c>
    2584:	01d50533          	add	a0,a0,t4
    2588:	0107d593          	srli	a1,a5,0x10
    258c:	00a585b3          	add	a1,a1,a0
    2590:	00010537          	lui	a0,0x10
    2594:	fff50513          	addi	a0,a0,-1 # ffff <__global_pointer$+0xce7f>
    2598:	00a7f7b3          	and	a5,a5,a0
    259c:	01079793          	slli	a5,a5,0x10
    25a0:	00a87533          	and	a0,a6,a0
    25a4:	00a78533          	add	a0,a5,a0
    25a8:	00b76663          	bltu	a4,a1,25b4 <__umoddi3+0x4b8>
    25ac:	00b71e63          	bne	a4,a1,25c8 <__umoddi3+0x4cc>
    25b0:	00a47c63          	bgeu	s0,a0,25c8 <__umoddi3+0x4cc>
    25b4:	41950633          	sub	a2,a0,s9
    25b8:	00c537b3          	sltu	a5,a0,a2
    25bc:	018787b3          	add	a5,a5,s8
    25c0:	40f585b3          	sub	a1,a1,a5
    25c4:	00060513          	mv	a0,a2
    25c8:	40a40533          	sub	a0,s0,a0
    25cc:	00a43433          	sltu	s0,s0,a0
    25d0:	40b705b3          	sub	a1,a4,a1
    25d4:	408585b3          	sub	a1,a1,s0
    25d8:	01559433          	sll	s0,a1,s5
    25dc:	01455533          	srl	a0,a0,s4
    25e0:	00a46533          	or	a0,s0,a0
    25e4:	0145d5b3          	srl	a1,a1,s4
    25e8:	c65ff06f          	j	224c <__umoddi3+0x150>

000025ec <__mulsi3>:
    25ec:	00050613          	mv	a2,a0
    25f0:	00000513          	li	a0,0
    25f4:	0015f693          	andi	a3,a1,1
    25f8:	00068463          	beqz	a3,2600 <__mulsi3+0x14>
    25fc:	00c50533          	add	a0,a0,a2
    2600:	0015d593          	srli	a1,a1,0x1
    2604:	00161613          	slli	a2,a2,0x1
    2608:	fe0596e3          	bnez	a1,25f4 <__mulsi3+0x8>
    260c:	00008067          	ret

00002610 <__divsi3>:
    2610:	06054063          	bltz	a0,2670 <__umodsi3+0x10>
    2614:	0605c663          	bltz	a1,2680 <__umodsi3+0x20>

00002618 <__udivsi3>:
    2618:	00058613          	mv	a2,a1
    261c:	00050593          	mv	a1,a0
    2620:	fff00513          	li	a0,-1
    2624:	02060c63          	beqz	a2,265c <__udivsi3+0x44>
    2628:	00100693          	li	a3,1
    262c:	00b67a63          	bgeu	a2,a1,2640 <__udivsi3+0x28>
    2630:	00c05863          	blez	a2,2640 <__udivsi3+0x28>
    2634:	00161613          	slli	a2,a2,0x1
    2638:	00169693          	slli	a3,a3,0x1
    263c:	feb66ae3          	bltu	a2,a1,2630 <__udivsi3+0x18>
    2640:	00000513          	li	a0,0
    2644:	00c5e663          	bltu	a1,a2,2650 <__udivsi3+0x38>
    2648:	40c585b3          	sub	a1,a1,a2
    264c:	00d56533          	or	a0,a0,a3
    2650:	0016d693          	srli	a3,a3,0x1
    2654:	00165613          	srli	a2,a2,0x1
    2658:	fe0696e3          	bnez	a3,2644 <__udivsi3+0x2c>
    265c:	00008067          	ret

00002660 <__umodsi3>:
    2660:	00008293          	mv	t0,ra
    2664:	fb5ff0ef          	jal	ra,2618 <__udivsi3>
    2668:	00058513          	mv	a0,a1
    266c:	00028067          	jr	t0
    2670:	40a00533          	neg	a0,a0
    2674:	00b04863          	bgtz	a1,2684 <__umodsi3+0x24>
    2678:	40b005b3          	neg	a1,a1
    267c:	f9dff06f          	j	2618 <__udivsi3>
    2680:	40b005b3          	neg	a1,a1
    2684:	00008293          	mv	t0,ra
    2688:	f91ff0ef          	jal	ra,2618 <__udivsi3>
    268c:	40a00533          	neg	a0,a0
    2690:	00028067          	jr	t0

00002694 <__modsi3>:
    2694:	00008293          	mv	t0,ra
    2698:	0005ca63          	bltz	a1,26ac <__modsi3+0x18>
    269c:	00054c63          	bltz	a0,26b4 <__modsi3+0x20>
    26a0:	f79ff0ef          	jal	ra,2618 <__udivsi3>
    26a4:	00058513          	mv	a0,a1
    26a8:	00028067          	jr	t0
    26ac:	40b005b3          	neg	a1,a1
    26b0:	fe0558e3          	bgez	a0,26a0 <__modsi3+0xc>
    26b4:	40a00533          	neg	a0,a0
    26b8:	f61ff0ef          	jal	ra,2618 <__udivsi3>
    26bc:	40b00533          	neg	a0,a1
    26c0:	00028067          	jr	t0
	...

000026e0 <sc_exit>:
    26e0:	0f400293          	li	t0,244
    26e4:	8282                	jr	t0
    26e6:	00000013          	nop
    26ea:	00000013          	nop
    26ee:	00000013          	nop
    26f2:	00000013          	nop
    26f6:	00000013          	nop
    26fa:	00000013          	nop
    26fe:	0001                	nop
	...
