
/home/user44/Projects/MIET/soc_programming/software/user_programm/build/user_programm.elf:     file format elf32-littleriscv


Disassembly of section .text.init:

00000000 <SIM_EXIT-0xf4>:
	...

000000f4 <SIM_EXIT>:
  f4:	00000013          	nop

000000f8 <SIM_STOP>:
  f8:	0000006f          	j	f8 <SIM_STOP>
  fc:	ffff                	0xffff
  fe:	ffff                	0xffff

Disassembly of section .text:

00000100 <machine_trap_entry-0xc0>:
	...

000001c0 <machine_trap_entry>:
     1c0:	11c0006f          	j	2dc <trap_entry>
     1c4:	00000013          	nop
     1c8:	00000013          	nop
     1cc:	00000013          	nop
     1d0:	00000013          	nop
     1d4:	00000013          	nop
     1d8:	00000013          	nop
     1dc:	00000013          	nop
     1e0:	00000013          	nop
     1e4:	00000013          	nop
     1e8:	00000013          	nop
     1ec:	00000013          	nop
     1f0:	00000013          	nop
     1f4:	00000013          	nop
     1f8:	00000013          	nop
     1fc:	00000013          	nop

00000200 <_start>:
     200:	00000093          	li	ra,0
     204:	00000113          	li	sp,0
     208:	00000193          	li	gp,0
     20c:	00000213          	li	tp,0
     210:	00000293          	li	t0,0
     214:	00000313          	li	t1,0
     218:	00000393          	li	t2,0
     21c:	00000413          	li	s0,0
     220:	00000493          	li	s1,0
     224:	00000513          	li	a0,0
     228:	00000593          	li	a1,0
     22c:	00000613          	li	a2,0
     230:	00000693          	li	a3,0
     234:	00000713          	li	a4,0
     238:	00000793          	li	a5,0
     23c:	00000813          	li	a6,0
     240:	00000893          	li	a7,0
     244:	00000913          	li	s2,0
     248:	00000993          	li	s3,0
     24c:	00000a13          	li	s4,0
     250:	00000a93          	li	s5,0
     254:	00000b13          	li	s6,0
     258:	00000b93          	li	s7,0
     25c:	00000c13          	li	s8,0
     260:	00000c93          	li	s9,0
     264:	00000d13          	li	s10,0
     268:	00000d93          	li	s11,0
     26c:	00000e13          	li	t3,0
     270:	00000e93          	li	t4,0
     274:	00000f13          	li	t5,0
     278:	00000f93          	li	t6,0
     27c:	00003197          	auipc	gp,0x3
     280:	f0418193          	addi	gp,gp,-252 # 3180 <__global_pointer$>
     284:	00002597          	auipc	a1,0x2
     288:	6fc58593          	addi	a1,a1,1788 # 2980 <__BSS_END__>
     28c:	00002617          	auipc	a2,0x2
     290:	6f460613          	addi	a2,a2,1780 # 2980 <__BSS_END__>
     294:	a021                	j	29c <_start+0x9c>
     296:	0005a023          	sw	zero,0(a1)
     29a:	0591                	addi	a1,a1,4
     29c:	fec59de3          	bne	a1,a2,296 <_start+0x96>
     2a0:	00010117          	auipc	sp,0x10
     2a4:	d6010113          	addi	sp,sp,-672 # 10000 <__C_STACK_TOP__>
     2a8:	004902b7          	lui	t0,0x490
     2ac:	4305                	li	t1,1
     2ae:	0062a023          	sw	t1,0(t0) # 490000 <__C_STACK_TOP__+0x480000>
     2b2:	004902b7          	lui	t0,0x490
     2b6:	0291                	addi	t0,t0,4
     2b8:	06300313          	li	t1,99
     2bc:	0062a023          	sw	t1,0(t0) # 490000 <__C_STACK_TOP__+0x480000>
     2c0:	004902b7          	lui	t0,0x490
     2c4:	02c1                	addi	t0,t0,16
     2c6:	537d                	li	t1,-1
     2c8:	0062a023          	sw	t1,0(t0) # 490000 <__C_STACK_TOP__+0x480000>
     2cc:	0062a223          	sw	t1,4(t0)
     2d0:	4501                	li	a0,0
     2d2:	4581                	li	a1,0
     2d4:	2c6010ef          	jal	ra,159a <main>
     2d8:	4080206f          	j	26e0 <sc_exit>

000002dc <trap_entry>:
     2dc:	716d                	addi	sp,sp,-272
     2de:	c206                	sw	ra,4(sp)
     2e0:	c40a                	sw	sp,8(sp)
     2e2:	c60e                	sw	gp,12(sp)
     2e4:	c812                	sw	tp,16(sp)
     2e6:	ca16                	sw	t0,20(sp)
     2e8:	cc1a                	sw	t1,24(sp)
     2ea:	ce1e                	sw	t2,28(sp)
     2ec:	d022                	sw	s0,32(sp)
     2ee:	d226                	sw	s1,36(sp)
     2f0:	d42a                	sw	a0,40(sp)
     2f2:	d62e                	sw	a1,44(sp)
     2f4:	d832                	sw	a2,48(sp)
     2f6:	da36                	sw	a3,52(sp)
     2f8:	dc3a                	sw	a4,56(sp)
     2fa:	de3e                	sw	a5,60(sp)
     2fc:	c0c2                	sw	a6,64(sp)
     2fe:	c2c6                	sw	a7,68(sp)
     300:	c4ca                	sw	s2,72(sp)
     302:	c6ce                	sw	s3,76(sp)
     304:	c8d2                	sw	s4,80(sp)
     306:	cad6                	sw	s5,84(sp)
     308:	ccda                	sw	s6,88(sp)
     30a:	cede                	sw	s7,92(sp)
     30c:	d0e2                	sw	s8,96(sp)
     30e:	d2e6                	sw	s9,100(sp)
     310:	d4ea                	sw	s10,104(sp)
     312:	d6ee                	sw	s11,108(sp)
     314:	d8f2                	sw	t3,112(sp)
     316:	daf6                	sw	t4,116(sp)
     318:	dcfa                	sw	t5,120(sp)
     31a:	defe                	sw	t6,124(sp)
     31c:	34202573          	csrr	a0,mcause
     320:	341025f3          	csrr	a1,mepc
     324:	860a                	mv	a2,sp
     326:	048000ef          	jal	ra,36e <handle_trap>
     32a:	4092                	lw	ra,4(sp)
     32c:	4122                	lw	sp,8(sp)
     32e:	41b2                	lw	gp,12(sp)
     330:	4242                	lw	tp,16(sp)
     332:	42d2                	lw	t0,20(sp)
     334:	4362                	lw	t1,24(sp)
     336:	43f2                	lw	t2,28(sp)
     338:	5402                	lw	s0,32(sp)
     33a:	5492                	lw	s1,36(sp)
     33c:	5522                	lw	a0,40(sp)
     33e:	55b2                	lw	a1,44(sp)
     340:	5642                	lw	a2,48(sp)
     342:	56d2                	lw	a3,52(sp)
     344:	5762                	lw	a4,56(sp)
     346:	57f2                	lw	a5,60(sp)
     348:	4806                	lw	a6,64(sp)
     34a:	4896                	lw	a7,68(sp)
     34c:	4926                	lw	s2,72(sp)
     34e:	49b6                	lw	s3,76(sp)
     350:	4a46                	lw	s4,80(sp)
     352:	4ad6                	lw	s5,84(sp)
     354:	4b66                	lw	s6,88(sp)
     356:	4bf6                	lw	s7,92(sp)
     358:	5c06                	lw	s8,96(sp)
     35a:	5c96                	lw	s9,100(sp)
     35c:	5d26                	lw	s10,104(sp)
     35e:	5db6                	lw	s11,108(sp)
     360:	5e46                	lw	t3,112(sp)
     362:	5ed6                	lw	t4,116(sp)
     364:	5f66                	lw	t5,120(sp)
     366:	5ff6                	lw	t6,124(sp)
     368:	6151                	addi	sp,sp,272
     36a:	30200073          	mret

0000036e <handle_trap>:
     36e:	d87ff06f          	j	f4 <SIM_EXIT>
	...

00000380 <printf_putch>:
     380:	04022603          	lw	a2,64(tp) # 40 <buflen.0>
     384:	00020293          	mv	t0,tp
     388:	00160593          	addi	a1,a2,1
     38c:	00c28333          	add	t1,t0,a2
     390:	04b22023          	sw	a1,64(tp) # 40 <buflen.0>
     394:	00a30023          	sb	a0,0(t1)
     398:	43a9                	li	t2,10
     39a:	00750763          	beq	a0,t2,3a8 <printf_putch+0x28>
     39e:	04000513          	li	a0,64
     3a2:	00a58563          	beq	a1,a0,3ac <printf_putch+0x2c>
     3a6:	8082                	ret
     3a8:	0eb05c63          	blez	a1,4a0 <STACK_SIZE+0xa0>
     3ac:	00020e13          	mv	t3,tp
     3b0:	000e4e83          	lbu	t4,0(t3)
     3b4:	fffe4f13          	not	t5,t3
     3b8:	6f85                	lui	t6,0x1
     3ba:	01ee06b3          	add	a3,t3,t5
     3be:	00b68633          	add	a2,a3,a1
     3c2:	01df8023          	sb	t4,0(t6) # 1000 <vprintfmt.constprop.0+0xb5a>
     3c6:	fff58713          	addi	a4,a1,-1
     3ca:	00767293          	andi	t0,a2,7
     3ce:	001e0793          	addi	a5,t3,1
     3d2:	0ce05763          	blez	a4,4a0 <STACK_SIZE+0xa0>
     3d6:	06028e63          	beqz	t0,452 <STACK_SIZE+0x52>
     3da:	4305                	li	t1,1
     3dc:	06628063          	beq	t0,t1,43c <STACK_SIZE+0x3c>
     3e0:	4389                	li	t2,2
     3e2:	04728863          	beq	t0,t2,432 <STACK_SIZE+0x32>
     3e6:	450d                	li	a0,3
     3e8:	04a28063          	beq	t0,a0,428 <STACK_SIZE+0x28>
     3ec:	4891                	li	a7,4
     3ee:	03128863          	beq	t0,a7,41e <STACK_SIZE+0x1e>
     3f2:	4e95                	li	t4,5
     3f4:	03d28063          	beq	t0,t4,414 <STACK_SIZE+0x14>
     3f8:	4f19                	li	t5,6
     3fa:	01e28863          	beq	t0,t5,40a <STACK_SIZE+0xa>
     3fe:	001e4683          	lbu	a3,1(t3)
     402:	002e0793          	addi	a5,t3,2
     406:	00df8023          	sb	a3,0(t6)
     40a:	0007c603          	lbu	a2,0(a5)
     40e:	0785                	addi	a5,a5,1
     410:	00cf8023          	sb	a2,0(t6)
     414:	0007c703          	lbu	a4,0(a5)
     418:	0785                	addi	a5,a5,1
     41a:	00ef8023          	sb	a4,0(t6)
     41e:	0007c283          	lbu	t0,0(a5)
     422:	0785                	addi	a5,a5,1
     424:	005f8023          	sb	t0,0(t6)
     428:	0007c303          	lbu	t1,0(a5)
     42c:	0785                	addi	a5,a5,1
     42e:	006f8023          	sb	t1,0(t6)
     432:	0007c383          	lbu	t2,0(a5)
     436:	0785                	addi	a5,a5,1
     438:	007f8023          	sb	t2,0(t6)
     43c:	0007c503          	lbu	a0,0(a5)
     440:	0785                	addi	a5,a5,1
     442:	40fe08b3          	sub	a7,t3,a5
     446:	00af8023          	sb	a0,0(t6)
     44a:	00b88eb3          	add	t4,a7,a1
     44e:	05d05963          	blez	t4,4a0 <STACK_SIZE+0xa0>
     452:	0007cf03          	lbu	t5,0(a5)
     456:	07a1                	addi	a5,a5,8
     458:	40fe0533          	sub	a0,t3,a5
     45c:	01ef8023          	sb	t5,0(t6)
     460:	ff97c683          	lbu	a3,-7(a5)
     464:	00b508b3          	add	a7,a0,a1
     468:	00df8023          	sb	a3,0(t6)
     46c:	ffa7c603          	lbu	a2,-6(a5)
     470:	00cf8023          	sb	a2,0(t6)
     474:	ffb7c703          	lbu	a4,-5(a5)
     478:	00ef8023          	sb	a4,0(t6)
     47c:	ffc7c283          	lbu	t0,-4(a5)
     480:	005f8023          	sb	t0,0(t6)
     484:	ffd7c303          	lbu	t1,-3(a5)
     488:	006f8023          	sb	t1,0(t6)
     48c:	ffe7c383          	lbu	t2,-2(a5)
     490:	007f8023          	sb	t2,0(t6)
     494:	fff7ce83          	lbu	t4,-1(a5)
     498:	01df8023          	sb	t4,0(t6)
     49c:	fb104be3          	bgtz	a7,452 <STACK_SIZE+0x52>
     4a0:	04022023          	sw	zero,64(tp) # 40 <buflen.0>
     4a4:	8082                	ret

000004a6 <vprintfmt.constprop.0>:
     4a6:	710d                	addi	sp,sp,-352
     4a8:	14112e23          	sw	ra,348(sp)
     4ac:	13712e23          	sw	s7,316(sp)
     4b0:	13b12623          	sw	s11,300(sp)
     4b4:	6b89                	lui	s7,0x2
     4b6:	00020d93          	mv	s11,tp
     4ba:	40000737          	lui	a4,0x40000
     4be:	728b8313          	addi	t1,s7,1832 # 2728 <sc_exit+0x48>
     4c2:	14812c23          	sw	s0,344(sp)
     4c6:	14912a23          	sw	s1,340(sp)
     4ca:	06100293          	li	t0,97
     4ce:	040d8413          	addi	s0,s11,64
     4d2:	fff70493          	addi	s1,a4,-1 # 3fffffff <__C_STACK_TOP__+0x3ffeffff>
     4d6:	13812c23          	sw	s8,312(sp)
     4da:	13912a23          	sw	s9,308(sp)
     4de:	13a12823          	sw	s10,304(sp)
     4e2:	15212823          	sw	s2,336(sp)
     4e6:	15312623          	sw	s3,332(sp)
     4ea:	15412423          	sw	s4,328(sp)
     4ee:	15512223          	sw	s5,324(sp)
     4f2:	15612023          	sw	s6,320(sp)
     4f6:	c206                	sw	ra,4(sp)
     4f8:	8caa                	mv	s9,a0
     4fa:	c42e                	sw	a1,8(sp)
     4fc:	ca16                	sw	t0,20(sp)
     4fe:	c81a                	sw	t1,16(sp)
     500:	04000d13          	li	s10,64
     504:	6b85                	lui	s7,0x1
     506:	cc22                	sw	s0,24(sp)
     508:	ce26                	sw	s1,28(sp)
     50a:	000cc503          	lbu	a0,0(s9)
     50e:	02500593          	li	a1,37
     512:	12b50263          	beq	a0,a1,636 <vprintfmt.constprop.0+0x190>
     516:	16050363          	beqz	a0,67c <vprintfmt.constprop.0+0x1d6>
     51a:	04022983          	lw	s3,64(tp) # 40 <buflen.0>
     51e:	48a9                	li	a7,10
     520:	0c85                	addi	s9,s9,1
     522:	00198a13          	addi	s4,s3,1
     526:	013d8733          	add	a4,s11,s3
     52a:	05422023          	sw	s4,64(tp) # 40 <buflen.0>
     52e:	00a70023          	sb	a0,0(a4)
     532:	15150063          	beq	a0,a7,672 <vprintfmt.constprop.0+0x1cc>
     536:	fdaa1ae3          	bne	s4,s10,50a <vprintfmt.constprop.0+0x64>
     53a:	4092                	lw	ra,4(sp)
     53c:	00020693          	mv	a3,tp
     540:	0006c283          	lbu	t0,0(a3)
     544:	fff6cf93          	not	t6,a3
     548:	00168793          	addi	a5,a3,1
     54c:	01fd83b3          	add	t2,s11,t6
     550:	40fd84b3          	sub	s1,s11,a5
     554:	01438333          	add	t1,t2,s4
     558:	005b8023          	sb	t0,0(s7) # 1000 <vprintfmt.constprop.0+0xb5a>
     55c:	014485b3          	add	a1,s1,s4
     560:	00737813          	andi	a6,t1,7
     564:	0cb05163          	blez	a1,626 <vprintfmt.constprop.0+0x180>
     568:	06080863          	beqz	a6,5d8 <vprintfmt.constprop.0+0x132>
     56c:	4e05                	li	t3,1
     56e:	05c80a63          	beq	a6,t3,5c2 <vprintfmt.constprop.0+0x11c>
     572:	4e89                	li	t4,2
     574:	05d80263          	beq	a6,t4,5b8 <vprintfmt.constprop.0+0x112>
     578:	4f0d                	li	t5,3
     57a:	03e80a63          	beq	a6,t5,5ae <vprintfmt.constprop.0+0x108>
     57e:	4611                	li	a2,4
     580:	02c80263          	beq	a6,a2,5a4 <vprintfmt.constprop.0+0xfe>
     584:	4a95                	li	s5,5
     586:	01580a63          	beq	a6,s5,59a <vprintfmt.constprop.0+0xf4>
     58a:	4519                	li	a0,6
     58c:	12a81463          	bne	a6,a0,6b4 <vprintfmt.constprop.0+0x20e>
     590:	0007c903          	lbu	s2,0(a5)
     594:	0785                	addi	a5,a5,1
     596:	012b8023          	sb	s2,0(s7)
     59a:	0007cb03          	lbu	s6,0(a5)
     59e:	0785                	addi	a5,a5,1
     5a0:	016b8023          	sb	s6,0(s7)
     5a4:	0007c983          	lbu	s3,0(a5)
     5a8:	0785                	addi	a5,a5,1
     5aa:	013b8023          	sb	s3,0(s7)
     5ae:	0007c883          	lbu	a7,0(a5)
     5b2:	0785                	addi	a5,a5,1
     5b4:	011b8023          	sb	a7,0(s7)
     5b8:	0007c703          	lbu	a4,0(a5)
     5bc:	0785                	addi	a5,a5,1
     5be:	00eb8023          	sb	a4,0(s7)
     5c2:	0007c083          	lbu	ra,0(a5)
     5c6:	0785                	addi	a5,a5,1
     5c8:	40fd86b3          	sub	a3,s11,a5
     5cc:	001b8023          	sb	ra,0(s7)
     5d0:	014682b3          	add	t0,a3,s4
     5d4:	04505963          	blez	t0,626 <vprintfmt.constprop.0+0x180>
     5d8:	0007cf83          	lbu	t6,0(a5)
     5dc:	07a1                	addi	a5,a5,8
     5de:	40fd8eb3          	sub	t4,s11,a5
     5e2:	01fb8023          	sb	t6,0(s7)
     5e6:	ff97c383          	lbu	t2,-7(a5)
     5ea:	014e8f33          	add	t5,t4,s4
     5ee:	007b8023          	sb	t2,0(s7)
     5f2:	ffa7c483          	lbu	s1,-6(a5)
     5f6:	009b8023          	sb	s1,0(s7)
     5fa:	ffb7c303          	lbu	t1,-5(a5)
     5fe:	006b8023          	sb	t1,0(s7)
     602:	ffc7c583          	lbu	a1,-4(a5)
     606:	00bb8023          	sb	a1,0(s7)
     60a:	ffd7c803          	lbu	a6,-3(a5)
     60e:	010b8023          	sb	a6,0(s7)
     612:	ffe7ce03          	lbu	t3,-2(a5)
     616:	01cb8023          	sb	t3,0(s7)
     61a:	fff7c603          	lbu	a2,-1(a5)
     61e:	00cb8023          	sb	a2,0(s7)
     622:	fbe04be3          	bgtz	t5,5d8 <vprintfmt.constprop.0+0x132>
     626:	04022023          	sw	zero,64(tp) # 40 <buflen.0>
     62a:	000cc503          	lbu	a0,0(s9)
     62e:	02500593          	li	a1,37
     632:	eeb512e3          	bne	a0,a1,516 <vprintfmt.constprop.0+0x70>
     636:	001cc303          	lbu	t1,1(s9)
     63a:	001c8993          	addi	s3,s9,1
     63e:	02000613          	li	a2,32
     642:	874e                	mv	a4,s3
     644:	c632                	sw	a2,12(sp)
     646:	547d                	li	s0,-1
     648:	597d                	li	s2,-1
     64a:	4381                	li	t2,0
     64c:	05500813          	li	a6,85
     650:	48a5                	li	a7,9
     652:	fdd30a13          	addi	s4,t1,-35
     656:	0ffa7a93          	zext.b	s5,s4
     65a:	00170c93          	addi	s9,a4,1
     65e:	07586e63          	bltu	a6,s5,6da <vprintfmt.constprop.0+0x234>
     662:	4e42                	lw	t3,16(sp)
     664:	002a9b13          	slli	s6,s5,0x2
     668:	01cb0eb3          	add	t4,s6,t3
     66c:	000eaf03          	lw	t5,0(t4)
     670:	8f02                	jr	t5
     672:	ed4044e3          	bgtz	s4,53a <vprintfmt.constprop.0+0x94>
     676:	04022023          	sw	zero,64(tp) # 40 <buflen.0>
     67a:	bf45                	j	62a <vprintfmt.constprop.0+0x184>
     67c:	15c12083          	lw	ra,348(sp)
     680:	15812403          	lw	s0,344(sp)
     684:	15412483          	lw	s1,340(sp)
     688:	15012903          	lw	s2,336(sp)
     68c:	14c12983          	lw	s3,332(sp)
     690:	14812a03          	lw	s4,328(sp)
     694:	14412a83          	lw	s5,324(sp)
     698:	14012b03          	lw	s6,320(sp)
     69c:	13c12b83          	lw	s7,316(sp)
     6a0:	13812c03          	lw	s8,312(sp)
     6a4:	13412c83          	lw	s9,308(sp)
     6a8:	13012d03          	lw	s10,304(sp)
     6ac:	12c12d83          	lw	s11,300(sp)
     6b0:	6135                	addi	sp,sp,352
     6b2:	8082                	ret
     6b4:	0016c403          	lbu	s0,1(a3)
     6b8:	00268793          	addi	a5,a3,2
     6bc:	008b8023          	sb	s0,0(s7)
     6c0:	bdc1                	j	590 <vprintfmt.constprop.0+0xea>
     6c2:	c61a                	sw	t1,12(sp)
     6c4:	00174303          	lbu	t1,1(a4)
     6c8:	8766                	mv	a4,s9
     6ca:	00170c93          	addi	s9,a4,1
     6ce:	fdd30a13          	addi	s4,t1,-35
     6d2:	0ffa7a93          	zext.b	s5,s4
     6d6:	f95876e3          	bgeu	a6,s5,662 <vprintfmt.constprop.0+0x1bc>
     6da:	04022f03          	lw	t5,64(tp) # 40 <buflen.0>
     6de:	02500513          	li	a0,37
     6e2:	8cce                	mv	s9,s3
     6e4:	001f0613          	addi	a2,t5,1
     6e8:	01ed8ab3          	add	s5,s11,t5
     6ec:	04c22023          	sw	a2,64(tp) # 40 <buflen.0>
     6f0:	00aa8023          	sb	a0,0(s5)
     6f4:	e1a61be3          	bne	a2,s10,50a <vprintfmt.constprop.0+0x64>
     6f8:	4ce2                	lw	s9,24(sp)
     6fa:	87ee                	mv	a5,s11
     6fc:	41bc8433          	sub	s0,s9,s11
     700:	00747913          	andi	s2,s0,7
     704:	06090b63          	beqz	s2,77a <vprintfmt.constprop.0+0x2d4>
     708:	4b05                	li	s6,1
     70a:	07690063          	beq	s2,s6,76a <vprintfmt.constprop.0+0x2c4>
     70e:	4889                	li	a7,2
     710:	05190863          	beq	s2,a7,760 <vprintfmt.constprop.0+0x2ba>
     714:	470d                	li	a4,3
     716:	04e90063          	beq	s2,a4,756 <vprintfmt.constprop.0+0x2b0>
     71a:	4a11                	li	s4,4
     71c:	03490863          	beq	s2,s4,74c <vprintfmt.constprop.0+0x2a6>
     720:	4095                	li	ra,5
     722:	02190063          	beq	s2,ra,742 <vprintfmt.constprop.0+0x29c>
     726:	4699                	li	a3,6
     728:	00d90863          	beq	s2,a3,738 <vprintfmt.constprop.0+0x292>
     72c:	000dc283          	lbu	t0,0(s11)
     730:	001d8793          	addi	a5,s11,1
     734:	005b8023          	sb	t0,0(s7)
     738:	0007cf83          	lbu	t6,0(a5)
     73c:	0785                	addi	a5,a5,1
     73e:	01fb8023          	sb	t6,0(s7)
     742:	0007c383          	lbu	t2,0(a5)
     746:	0785                	addi	a5,a5,1
     748:	007b8023          	sb	t2,0(s7)
     74c:	0007c483          	lbu	s1,0(a5)
     750:	0785                	addi	a5,a5,1
     752:	009b8023          	sb	s1,0(s7)
     756:	0007c303          	lbu	t1,0(a5)
     75a:	0785                	addi	a5,a5,1
     75c:	006b8023          	sb	t1,0(s7)
     760:	0007c583          	lbu	a1,0(a5)
     764:	0785                	addi	a5,a5,1
     766:	00bb8023          	sb	a1,0(s7)
     76a:	0007c803          	lbu	a6,0(a5)
     76e:	0785                	addi	a5,a5,1
     770:	010b8023          	sb	a6,0(s7)
     774:	4e62                	lw	t3,24(sp)
     776:	05c78663          	beq	a5,t3,7c2 <vprintfmt.constprop.0+0x31c>
     77a:	0007ce83          	lbu	t4,0(a5)
     77e:	07a1                	addi	a5,a5,8
     780:	01db8023          	sb	t4,0(s7)
     784:	ff97cf03          	lbu	t5,-7(a5)
     788:	01eb8023          	sb	t5,0(s7)
     78c:	ffa7c603          	lbu	a2,-6(a5)
     790:	00cb8023          	sb	a2,0(s7)
     794:	ffb7ca83          	lbu	s5,-5(a5)
     798:	015b8023          	sb	s5,0(s7)
     79c:	ffc7c503          	lbu	a0,-4(a5)
     7a0:	00ab8023          	sb	a0,0(s7)
     7a4:	ffd7cc83          	lbu	s9,-3(a5)
     7a8:	019b8023          	sb	s9,0(s7)
     7ac:	ffe7c403          	lbu	s0,-2(a5)
     7b0:	008b8023          	sb	s0,0(s7)
     7b4:	fff7c903          	lbu	s2,-1(a5)
     7b8:	012b8023          	sb	s2,0(s7)
     7bc:	4b62                	lw	s6,24(sp)
     7be:	fb679ee3          	bne	a5,s6,77a <vprintfmt.constprop.0+0x2d4>
     7c2:	04022023          	sw	zero,64(tp) # 40 <buflen.0>
     7c6:	8cce                	mv	s9,s3
     7c8:	b389                	j	50a <vprintfmt.constprop.0+0x64>
     7ca:	00174a03          	lbu	s4,1(a4)
     7ce:	fd030413          	addi	s0,t1,-48
     7d2:	8766                	mv	a4,s9
     7d4:	fd0a0493          	addi	s1,s4,-48
     7d8:	8352                	mv	t1,s4
     7da:	0298e463          	bltu	a7,s1,802 <vprintfmt.constprop.0+0x35c>
     7de:	00241c93          	slli	s9,s0,0x2
     7e2:	008c8333          	add	t1,s9,s0
     7e6:	00131a93          	slli	s5,t1,0x1
     7ea:	0705                	addi	a4,a4,1
     7ec:	014a85b3          	add	a1,s5,s4
     7f0:	00074a03          	lbu	s4,0(a4)
     7f4:	fd058413          	addi	s0,a1,-48
     7f8:	fd0a0513          	addi	a0,s4,-48
     7fc:	8352                	mv	t1,s4
     7fe:	fea8f0e3          	bgeu	a7,a0,7de <vprintfmt.constprop.0+0x338>
     802:	e40958e3          	bgez	s2,652 <vprintfmt.constprop.0+0x1ac>
     806:	8922                	mv	s2,s0
     808:	547d                	li	s0,-1
     80a:	b5a1                	j	652 <vprintfmt.constprop.0+0x1ac>
     80c:	fff94793          	not	a5,s2
     810:	41f7d293          	srai	t0,a5,0x1f
     814:	00174303          	lbu	t1,1(a4)
     818:	00597933          	and	s2,s2,t0
     81c:	8766                	mv	a4,s9
     81e:	bd15                	j	652 <vprintfmt.constprop.0+0x1ac>
     820:	00174303          	lbu	t1,1(a4)
     824:	8766                	mv	a4,s9
     826:	b535                	j	652 <vprintfmt.constprop.0+0x1ac>
     828:	04022783          	lw	a5,64(tp) # 40 <buflen.0>
     82c:	02500313          	li	t1,37
     830:	00178393          	addi	t2,a5,1
     834:	00fd84b3          	add	s1,s11,a5
     838:	04722023          	sw	t2,64(tp) # 40 <buflen.0>
     83c:	00648023          	sb	t1,0(s1)
     840:	cda395e3          	bne	t2,s10,50a <vprintfmt.constprop.0+0x64>
     844:	45e2                	lw	a1,24(sp)
     846:	86ee                	mv	a3,s11
     848:	41b58833          	sub	a6,a1,s11
     84c:	00787e13          	andi	t3,a6,7
     850:	060e0b63          	beqz	t3,8c6 <vprintfmt.constprop.0+0x420>
     854:	4e85                	li	t4,1
     856:	07de0063          	beq	t3,t4,8b6 <vprintfmt.constprop.0+0x410>
     85a:	4f09                	li	t5,2
     85c:	05ee0863          	beq	t3,t5,8ac <vprintfmt.constprop.0+0x406>
     860:	498d                	li	s3,3
     862:	053e0063          	beq	t3,s3,8a2 <vprintfmt.constprop.0+0x3fc>
     866:	4611                	li	a2,4
     868:	02ce0863          	beq	t3,a2,898 <vprintfmt.constprop.0+0x3f2>
     86c:	4a95                	li	s5,5
     86e:	035e0063          	beq	t3,s5,88e <vprintfmt.constprop.0+0x3e8>
     872:	4519                	li	a0,6
     874:	00ae0863          	beq	t3,a0,884 <vprintfmt.constprop.0+0x3de>
     878:	000dc403          	lbu	s0,0(s11)
     87c:	001d8693          	addi	a3,s11,1
     880:	008b8023          	sb	s0,0(s7)
     884:	0006c903          	lbu	s2,0(a3)
     888:	0685                	addi	a3,a3,1
     88a:	012b8023          	sb	s2,0(s7)
     88e:	0006cb03          	lbu	s6,0(a3)
     892:	0685                	addi	a3,a3,1
     894:	016b8023          	sb	s6,0(s7)
     898:	0006c883          	lbu	a7,0(a3)
     89c:	0685                	addi	a3,a3,1
     89e:	011b8023          	sb	a7,0(s7)
     8a2:	0006c703          	lbu	a4,0(a3)
     8a6:	0685                	addi	a3,a3,1
     8a8:	00eb8023          	sb	a4,0(s7)
     8ac:	0006ca03          	lbu	s4,0(a3)
     8b0:	0685                	addi	a3,a3,1
     8b2:	014b8023          	sb	s4,0(s7)
     8b6:	0006c083          	lbu	ra,0(a3)
     8ba:	0685                	addi	a3,a3,1
     8bc:	001b8023          	sb	ra,0(s7)
     8c0:	42e2                	lw	t0,24(sp)
     8c2:	d65682e3          	beq	a3,t0,626 <vprintfmt.constprop.0+0x180>
     8c6:	0006cf83          	lbu	t6,0(a3)
     8ca:	06a1                	addi	a3,a3,8
     8cc:	01fb8023          	sb	t6,0(s7)
     8d0:	ff96c783          	lbu	a5,-7(a3)
     8d4:	00fb8023          	sb	a5,0(s7)
     8d8:	ffa6c383          	lbu	t2,-6(a3)
     8dc:	007b8023          	sb	t2,0(s7)
     8e0:	ffb6c483          	lbu	s1,-5(a3)
     8e4:	009b8023          	sb	s1,0(s7)
     8e8:	ffc6c303          	lbu	t1,-4(a3)
     8ec:	006b8023          	sb	t1,0(s7)
     8f0:	ffd6c583          	lbu	a1,-3(a3)
     8f4:	00bb8023          	sb	a1,0(s7)
     8f8:	ffe6c803          	lbu	a6,-2(a3)
     8fc:	010b8023          	sb	a6,0(s7)
     900:	fff6ce03          	lbu	t3,-1(a3)
     904:	01cb8023          	sb	t3,0(s7)
     908:	4ee2                	lw	t4,24(sp)
     90a:	fbd69ee3          	bne	a3,t4,8c6 <vprintfmt.constprop.0+0x420>
     90e:	bb21                	j	626 <vprintfmt.constprop.0+0x180>
     910:	42a2                	lw	t0,8(sp)
     912:	00174303          	lbu	t1,1(a4)
     916:	8766                	mv	a4,s9
     918:	00428f93          	addi	t6,t0,4
     91c:	0002a403          	lw	s0,0(t0)
     920:	c47e                	sw	t6,8(sp)
     922:	b5c5                	j	802 <vprintfmt.constprop.0+0x35c>
     924:	04100413          	li	s0,65
     928:	4ac1                	li	s5,16
     92a:	c002                	sw	zero,0(sp)
     92c:	ca22                	sw	s0,20(sp)
     92e:	4885                	li	a7,1
     930:	04022403          	lw	s0,64(tp) # 40 <buflen.0>
     934:	2c78c563          	blt	a7,t2,bfe <vprintfmt.constprop.0+0x758>
     938:	43a2                	lw	t2,8(sp)
     93a:	00438713          	addi	a4,t2,4
     93e:	4b22                	lw	s6,8(sp)
     940:	4481                	li	s1,0
     942:	000b2b03          	lw	s6,0(s6)
     946:	c43a                	sw	a4,8(sp)
     948:	8656                	mv	a2,s5
     94a:	4681                	li	a3,0
     94c:	855a                	mv	a0,s6
     94e:	85a6                	mv	a1,s1
     950:	7ac010ef          	jal	ra,20fc <__umoddi3>
     954:	d02a                	sw	a0,32(sp)
     956:	4f01                	li	t5,0
     958:	549f0d63          	beq	t5,s1,eb2 <vprintfmt.constprop.0+0xa0c>
     95c:	02410993          	addi	s3,sp,36
     960:	4a05                	li	s4,1
     962:	8656                	mv	a2,s5
     964:	4681                	li	a3,0
     966:	855a                	mv	a0,s6
     968:	85a6                	mv	a1,s1
     96a:	1ba010ef          	jal	ra,1b24 <__udivdi3>
     96e:	8656                	mv	a2,s5
     970:	4681                	li	a3,0
     972:	8b2a                	mv	s6,a0
     974:	84ae                	mv	s1,a1
     976:	786010ef          	jal	ra,20fc <__umoddi3>
     97a:	4602                	lw	a2,0(sp)
     97c:	00a9a023          	sw	a0,0(s3)
     980:	8fd2                	mv	t6,s4
     982:	0991                	addi	s3,s3,4
     984:	0a05                	addi	s4,s4,1
     986:	fc961ee3          	bne	a2,s1,962 <vprintfmt.constprop.0+0x4bc>
     98a:	fd5b7ce3          	bgeu	s6,s5,962 <vprintfmt.constprop.0+0x4bc>
     98e:	112a5363          	bge	s4,s2,a94 <vprintfmt.constprop.0+0x5ee>
     992:	00020593          	mv	a1,tp
     996:	43b2                	lw	t2,12(sp)
     998:	04058813          	addi	a6,a1,64
     99c:	a021                	j	9a4 <vprintfmt.constprop.0+0x4fe>
     99e:	197d                	addi	s2,s2,-1
     9a0:	0f2a5363          	bge	s4,s2,a86 <vprintfmt.constprop.0+0x5e0>
     9a4:	00140793          	addi	a5,s0,1
     9a8:	942e                	add	s0,s0,a1
     9aa:	00740023          	sb	t2,0(s0)
     9ae:	04f22023          	sw	a5,64(tp) # 40 <buflen.0>
     9b2:	843e                	mv	s0,a5
     9b4:	ffa795e3          	bne	a5,s10,99e <vprintfmt.constprop.0+0x4f8>
     9b8:	40b808b3          	sub	a7,a6,a1
     9bc:	0078f713          	andi	a4,a7,7
     9c0:	87ae                	mv	a5,a1
     9c2:	cb2d                	beqz	a4,a34 <vprintfmt.constprop.0+0x58e>
     9c4:	4685                	li	a3,1
     9c6:	06d70063          	beq	a4,a3,a26 <vprintfmt.constprop.0+0x580>
     9ca:	4e09                	li	t3,2
     9cc:	05c70863          	beq	a4,t3,a1c <vprintfmt.constprop.0+0x576>
     9d0:	4e8d                	li	t4,3
     9d2:	05d70063          	beq	a4,t4,a12 <vprintfmt.constprop.0+0x56c>
     9d6:	4f11                	li	t5,4
     9d8:	03e70863          	beq	a4,t5,a08 <vprintfmt.constprop.0+0x562>
     9dc:	4095                	li	ra,5
     9de:	02170063          	beq	a4,ra,9fe <vprintfmt.constprop.0+0x558>
     9e2:	4b19                	li	s6,6
     9e4:	01670863          	beq	a4,s6,9f4 <vprintfmt.constprop.0+0x54e>
     9e8:	0005c483          	lbu	s1,0(a1)
     9ec:	00158793          	addi	a5,a1,1
     9f0:	009b8023          	sb	s1,0(s7)
     9f4:	0007c983          	lbu	s3,0(a5)
     9f8:	0785                	addi	a5,a5,1
     9fa:	013b8023          	sb	s3,0(s7)
     9fe:	0007c603          	lbu	a2,0(a5)
     a02:	0785                	addi	a5,a5,1
     a04:	00cb8023          	sb	a2,0(s7)
     a08:	0007c303          	lbu	t1,0(a5)
     a0c:	0785                	addi	a5,a5,1
     a0e:	006b8023          	sb	t1,0(s7)
     a12:	0007ca83          	lbu	s5,0(a5)
     a16:	0785                	addi	a5,a5,1
     a18:	015b8023          	sb	s5,0(s7)
     a1c:	0007c503          	lbu	a0,0(a5)
     a20:	0785                	addi	a5,a5,1
     a22:	00ab8023          	sb	a0,0(s7)
     a26:	0007c403          	lbu	s0,0(a5)
     a2a:	0785                	addi	a5,a5,1
     a2c:	008b8023          	sb	s0,0(s7)
     a30:	05078563          	beq	a5,a6,a7a <vprintfmt.constprop.0+0x5d4>
     a34:	0007c883          	lbu	a7,0(a5)
     a38:	07a1                	addi	a5,a5,8
     a3a:	011b8023          	sb	a7,0(s7)
     a3e:	ff97c703          	lbu	a4,-7(a5)
     a42:	00eb8023          	sb	a4,0(s7)
     a46:	ffa7c683          	lbu	a3,-6(a5)
     a4a:	00db8023          	sb	a3,0(s7)
     a4e:	ffb7ce03          	lbu	t3,-5(a5)
     a52:	01cb8023          	sb	t3,0(s7)
     a56:	ffc7ce83          	lbu	t4,-4(a5)
     a5a:	01db8023          	sb	t4,0(s7)
     a5e:	ffd7cf03          	lbu	t5,-3(a5)
     a62:	01eb8023          	sb	t5,0(s7)
     a66:	ffe7c083          	lbu	ra,-2(a5)
     a6a:	001b8023          	sb	ra,0(s7)
     a6e:	fff7cb03          	lbu	s6,-1(a5)
     a72:	016b8023          	sb	s6,0(s7)
     a76:	fb079fe3          	bne	a5,a6,a34 <vprintfmt.constprop.0+0x58e>
     a7a:	04022023          	sw	zero,64(tp) # 40 <buflen.0>
     a7e:	197d                	addi	s2,s2,-1
     a80:	4401                	li	s0,0
     a82:	f32a41e3          	blt	s4,s2,9a4 <vprintfmt.constprop.0+0x4fe>
     a86:	002f9a13          	slli	s4,t6,0x2
     a8a:	120c                	addi	a1,sp,288
     a8c:	014582b3          	add	t0,a1,s4
     a90:	f002a503          	lw	a0,-256(t0)
     a94:	4872                	lw	a6,28(sp)
     a96:	4652                	lw	a2,20(sp)
     a98:	9fc2                	add	t6,t6,a6
     a9a:	002f9393          	slli	t2,t6,0x2
     a9e:	02010993          	addi	s3,sp,32
     aa2:	007986b3          	add	a3,s3,t2
     aa6:	4e25                	li	t3,9
     aa8:	ff660f13          	addi	t5,a2,-10
     aac:	00020593          	mv	a1,tp
     ab0:	4329                	li	t1,10
     ab2:	a819                	j	ac8 <vprintfmt.constprop.0+0x622>
     ab4:	03a08b63          	beq	ra,s10,aea <vprintfmt.constprop.0+0x644>
     ab8:	01c10093          	addi	ra,sp,28
     abc:	a4d087e3          	beq	ra,a3,50a <vprintfmt.constprop.0+0x64>
     ac0:	04022403          	lw	s0,64(tp) # 40 <buflen.0>
     ac4:	4288                	lw	a0,0(a3)
     ac6:	16f1                	addi	a3,a3,-4
     ac8:	03000a93          	li	s5,48
     acc:	00ae7363          	bgeu	t3,a0,ad2 <vprintfmt.constprop.0+0x62c>
     ad0:	8afa                	mv	s5,t5
     ad2:	00140093          	addi	ra,s0,1
     ad6:	9556                	add	a0,a0,s5
     ad8:	942e                	add	s0,s0,a1
     ada:	04122023          	sw	ra,64(tp) # 40 <buflen.0>
     ade:	00a40023          	sb	a0,0(s0)
     ae2:	fc6519e3          	bne	a0,t1,ab4 <vprintfmt.constprop.0+0x60e>
     ae6:	0e105d63          	blez	ra,be0 <vprintfmt.constprop.0+0x73a>
     aea:	00020b13          	mv	s6,tp
     aee:	000b4903          	lbu	s2,0(s6)
     af2:	fffb4893          	not	a7,s6
     af6:	001b0793          	addi	a5,s6,1
     afa:	01158733          	add	a4,a1,a7
     afe:	40f58a33          	sub	s4,a1,a5
     b02:	001702b3          	add	t0,a4,ra
     b06:	012b8023          	sb	s2,0(s7)
     b0a:	001a0fb3          	add	t6,s4,ra
     b0e:	0072f393          	andi	t2,t0,7
     b12:	0df05763          	blez	t6,be0 <vprintfmt.constprop.0+0x73a>
     b16:	06038e63          	beqz	t2,b92 <vprintfmt.constprop.0+0x6ec>
     b1a:	4485                	li	s1,1
     b1c:	06938063          	beq	t2,s1,b7c <vprintfmt.constprop.0+0x6d6>
     b20:	4989                	li	s3,2
     b22:	05338863          	beq	t2,s3,b72 <vprintfmt.constprop.0+0x6cc>
     b26:	460d                	li	a2,3
     b28:	04c38063          	beq	t2,a2,b68 <vprintfmt.constprop.0+0x6c2>
     b2c:	4a91                	li	s5,4
     b2e:	03538863          	beq	t2,s5,b5e <vprintfmt.constprop.0+0x6b8>
     b32:	4515                	li	a0,5
     b34:	02a38063          	beq	t2,a0,b54 <vprintfmt.constprop.0+0x6ae>
     b38:	4419                	li	s0,6
     b3a:	00838863          	beq	t2,s0,b4a <vprintfmt.constprop.0+0x6a4>
     b3e:	001b4903          	lbu	s2,1(s6)
     b42:	002b0793          	addi	a5,s6,2
     b46:	012b8023          	sb	s2,0(s7)
     b4a:	0007cb03          	lbu	s6,0(a5)
     b4e:	0785                	addi	a5,a5,1
     b50:	016b8023          	sb	s6,0(s7)
     b54:	0007c883          	lbu	a7,0(a5)
     b58:	0785                	addi	a5,a5,1
     b5a:	011b8023          	sb	a7,0(s7)
     b5e:	0007c703          	lbu	a4,0(a5)
     b62:	0785                	addi	a5,a5,1
     b64:	00eb8023          	sb	a4,0(s7)
     b68:	0007ca03          	lbu	s4,0(a5)
     b6c:	0785                	addi	a5,a5,1
     b6e:	014b8023          	sb	s4,0(s7)
     b72:	0007c283          	lbu	t0,0(a5)
     b76:	0785                	addi	a5,a5,1
     b78:	005b8023          	sb	t0,0(s7)
     b7c:	0007cf83          	lbu	t6,0(a5)
     b80:	0785                	addi	a5,a5,1
     b82:	40f583b3          	sub	t2,a1,a5
     b86:	01fb8023          	sb	t6,0(s7)
     b8a:	001384b3          	add	s1,t2,ra
     b8e:	04905963          	blez	s1,be0 <vprintfmt.constprop.0+0x73a>
     b92:	0007c983          	lbu	s3,0(a5)
     b96:	07a1                	addi	a5,a5,8
     b98:	40f588b3          	sub	a7,a1,a5
     b9c:	013b8023          	sb	s3,0(s7)
     ba0:	ff97c603          	lbu	a2,-7(a5)
     ba4:	00188733          	add	a4,a7,ra
     ba8:	00cb8023          	sb	a2,0(s7)
     bac:	ffa7ca83          	lbu	s5,-6(a5)
     bb0:	015b8023          	sb	s5,0(s7)
     bb4:	ffb7c503          	lbu	a0,-5(a5)
     bb8:	00ab8023          	sb	a0,0(s7)
     bbc:	ffc7c403          	lbu	s0,-4(a5)
     bc0:	008b8023          	sb	s0,0(s7)
     bc4:	ffd7c903          	lbu	s2,-3(a5)
     bc8:	012b8023          	sb	s2,0(s7)
     bcc:	ffe7cb03          	lbu	s6,-2(a5)
     bd0:	016b8023          	sb	s6,0(s7)
     bd4:	fff7ca03          	lbu	s4,-1(a5)
     bd8:	014b8023          	sb	s4,0(s7)
     bdc:	fae04be3          	bgtz	a4,b92 <vprintfmt.constprop.0+0x6ec>
     be0:	04022023          	sw	zero,64(tp) # 40 <buflen.0>
     be4:	bdd1                	j	ab8 <vprintfmt.constprop.0+0x612>
     be6:	00174303          	lbu	t1,1(a4)
     bea:	0385                	addi	t2,t2,1
     bec:	8766                	mv	a4,s9
     bee:	b495                	j	652 <vprintfmt.constprop.0+0x1ac>
     bf0:	c002                	sw	zero,0(sp)
     bf2:	4885                	li	a7,1
     bf4:	04022403          	lw	s0,64(tp) # 40 <buflen.0>
     bf8:	4aa1                	li	s5,8
     bfa:	d278dfe3          	bge	a7,t2,938 <vprintfmt.constprop.0+0x492>
     bfe:	46a2                	lw	a3,8(sp)
     c00:	00768e13          	addi	t3,a3,7
     c04:	ff8e7e93          	andi	t4,t3,-8
     c08:	008e8993          	addi	s3,t4,8
     c0c:	000eab03          	lw	s6,0(t4)
     c10:	004ea483          	lw	s1,4(t4)
     c14:	c44e                	sw	s3,8(sp)
     c16:	bb0d                	j	948 <vprintfmt.constprop.0+0x4a2>
     c18:	04022983          	lw	s3,64(tp) # 40 <buflen.0>
     c1c:	44a2                	lw	s1,8(sp)
     c1e:	03000f93          	li	t6,48
     c22:	013d80b3          	add	ra,s11,s3
     c26:	00198f13          	addi	t5,s3,1
     c2a:	01f08023          	sb	t6,0(ra)
     c2e:	00448713          	addi	a4,s1,4
     c32:	51af0f63          	beq	t5,s10,1150 <vprintfmt.constprop.0+0xcaa>
     c36:	00298413          	addi	s0,s3,2
     c3a:	01ed8633          	add	a2,s11,t5
     c3e:	07800313          	li	t1,120
     c42:	04822023          	sw	s0,64(tp) # 40 <buflen.0>
     c46:	00660023          	sb	t1,0(a2)
     c4a:	87ee                	mv	a5,s11
     c4c:	7fa41863          	bne	s0,s10,143c <vprintfmt.constprop.0+0xf96>
     c50:	48e2                	lw	a7,24(sp)
     c52:	41b88833          	sub	a6,a7,s11
     c56:	00787593          	andi	a1,a6,7
     c5a:	c9b5                	beqz	a1,cce <vprintfmt.constprop.0+0x828>
     c5c:	4a05                	li	s4,1
     c5e:	07458063          	beq	a1,s4,cbe <vprintfmt.constprop.0+0x818>
     c62:	4509                	li	a0,2
     c64:	04a58863          	beq	a1,a0,cb4 <vprintfmt.constprop.0+0x80e>
     c68:	428d                	li	t0,3
     c6a:	04558063          	beq	a1,t0,caa <vprintfmt.constprop.0+0x804>
     c6e:	4691                	li	a3,4
     c70:	02d58863          	beq	a1,a3,ca0 <vprintfmt.constprop.0+0x7fa>
     c74:	4b15                	li	s6,5
     c76:	03658063          	beq	a1,s6,c96 <vprintfmt.constprop.0+0x7f0>
     c7a:	4e19                	li	t3,6
     c7c:	01c58863          	beq	a1,t3,c8c <vprintfmt.constprop.0+0x7e6>
     c80:	000dce83          	lbu	t4,0(s11)
     c84:	001d8793          	addi	a5,s11,1
     c88:	01db8023          	sb	t4,0(s7)
     c8c:	0007c983          	lbu	s3,0(a5)
     c90:	0785                	addi	a5,a5,1
     c92:	013b8023          	sb	s3,0(s7)
     c96:	0007c483          	lbu	s1,0(a5)
     c9a:	0785                	addi	a5,a5,1
     c9c:	009b8023          	sb	s1,0(s7)
     ca0:	0007c083          	lbu	ra,0(a5)
     ca4:	0785                	addi	a5,a5,1
     ca6:	001b8023          	sb	ra,0(s7)
     caa:	0007cf03          	lbu	t5,0(a5)
     cae:	0785                	addi	a5,a5,1
     cb0:	01eb8023          	sb	t5,0(s7)
     cb4:	0007cf83          	lbu	t6,0(a5)
     cb8:	0785                	addi	a5,a5,1
     cba:	01fb8023          	sb	t6,0(s7)
     cbe:	0007c403          	lbu	s0,0(a5)
     cc2:	0785                	addi	a5,a5,1
     cc4:	008b8023          	sb	s0,0(s7)
     cc8:	4662                	lw	a2,24(sp)
     cca:	04c78663          	beq	a5,a2,d16 <vprintfmt.constprop.0+0x870>
     cce:	0007c303          	lbu	t1,0(a5)
     cd2:	07a1                	addi	a5,a5,8
     cd4:	006b8023          	sb	t1,0(s7)
     cd8:	ff97ca83          	lbu	s5,-7(a5)
     cdc:	015b8023          	sb	s5,0(s7)
     ce0:	ffa7c383          	lbu	t2,-6(a5)
     ce4:	007b8023          	sb	t2,0(s7)
     ce8:	ffb7c883          	lbu	a7,-5(a5)
     cec:	011b8023          	sb	a7,0(s7)
     cf0:	ffc7c803          	lbu	a6,-4(a5)
     cf4:	010b8023          	sb	a6,0(s7)
     cf8:	ffd7c583          	lbu	a1,-3(a5)
     cfc:	00bb8023          	sb	a1,0(s7)
     d00:	ffe7ca03          	lbu	s4,-2(a5)
     d04:	014b8023          	sb	s4,0(s7)
     d08:	fff7c503          	lbu	a0,-1(a5)
     d0c:	00ab8023          	sb	a0,0(s7)
     d10:	42e2                	lw	t0,24(sp)
     d12:	fa579ee3          	bne	a5,t0,cce <vprintfmt.constprop.0+0x828>
     d16:	06100693          	li	a3,97
     d1a:	04022023          	sw	zero,64(tp) # 40 <buflen.0>
     d1e:	4401                	li	s0,0
     d20:	4ac1                	li	s5,16
     d22:	c002                	sw	zero,0(sp)
     d24:	ca36                	sw	a3,20(sp)
     d26:	b921                	j	93e <vprintfmt.constprop.0+0x498>
     d28:	46a2                	lw	a3,8(sp)
     d2a:	4284                	lw	s1,0(a3)
     d2c:	00468993          	addi	s3,a3,4
     d30:	6e048763          	beqz	s1,141e <vprintfmt.constprop.0+0xf78>
     d34:	19205763          	blez	s2,ec2 <vprintfmt.constprop.0+0xa1c>
     d38:	47b2                	lw	a5,12(sp)
     d3a:	02d00f93          	li	t6,45
     d3e:	51f79963          	bne	a5,t6,1250 <vprintfmt.constprop.0+0xdaa>
     d42:	0004cf83          	lbu	t6,0(s1)
     d46:	867e                	mv	a2,t6
     d48:	180f9263          	bnez	t6,ecc <vprintfmt.constprop.0+0xa26>
     d4c:	aa7d                	j	f0a <vprintfmt.constprop.0+0xa64>
     d4e:	4822                	lw	a6,8(sp)
     d50:	04022903          	lw	s2,64(tp) # 40 <buflen.0>
     d54:	4729                	li	a4,10
     d56:	00082383          	lw	t2,0(a6)
     d5a:	00190413          	addi	s0,s2,1
     d5e:	012d8ab3          	add	s5,s11,s2
     d62:	04822023          	sw	s0,64(tp) # 40 <buflen.0>
     d66:	007a8023          	sb	t2,0(s5)
     d6a:	00480793          	addi	a5,a6,4
     d6e:	00e38763          	beq	t2,a4,d7c <vprintfmt.constprop.0+0x8d6>
     d72:	01a40763          	beq	s0,s10,d80 <vprintfmt.constprop.0+0x8da>
     d76:	c43e                	sw	a5,8(sp)
     d78:	f92ff06f          	j	50a <vprintfmt.constprop.0+0x64>
     d7c:	0e805e63          	blez	s0,e78 <vprintfmt.constprop.0+0x9d2>
     d80:	4892                	lw	a7,4(sp)
     d82:	00020593          	mv	a1,tp
     d86:	0005ca03          	lbu	s4,0(a1)
     d8a:	fff5c513          	not	a0,a1
     d8e:	00158713          	addi	a4,a1,1
     d92:	00ad82b3          	add	t0,s11,a0
     d96:	40ed8b33          	sub	s6,s11,a4
     d9a:	008286b3          	add	a3,t0,s0
     d9e:	014b8023          	sb	s4,0(s7)
     da2:	008b0e33          	add	t3,s6,s0
     da6:	0076fe93          	andi	t4,a3,7
     daa:	0dc05763          	blez	t3,e78 <vprintfmt.constprop.0+0x9d2>
     dae:	060e8e63          	beqz	t4,e2a <vprintfmt.constprop.0+0x984>
     db2:	4985                	li	s3,1
     db4:	073e8063          	beq	t4,s3,e14 <vprintfmt.constprop.0+0x96e>
     db8:	4089                	li	ra,2
     dba:	041e8863          	beq	t4,ra,e0a <vprintfmt.constprop.0+0x964>
     dbe:	4f0d                	li	t5,3
     dc0:	05ee8063          	beq	t4,t5,e00 <vprintfmt.constprop.0+0x95a>
     dc4:	4f91                	li	t6,4
     dc6:	03fe8863          	beq	t4,t6,df6 <vprintfmt.constprop.0+0x950>
     dca:	4615                	li	a2,5
     dcc:	02ce8063          	beq	t4,a2,dec <vprintfmt.constprop.0+0x946>
     dd0:	4319                	li	t1,6
     dd2:	006e8863          	beq	t4,t1,de2 <vprintfmt.constprop.0+0x93c>
     dd6:	0015c483          	lbu	s1,1(a1)
     dda:	00258713          	addi	a4,a1,2
     dde:	009b8023          	sb	s1,0(s7)
     de2:	00074903          	lbu	s2,0(a4)
     de6:	0705                	addi	a4,a4,1
     de8:	012b8023          	sb	s2,0(s7)
     dec:	00074803          	lbu	a6,0(a4)
     df0:	0705                	addi	a4,a4,1
     df2:	010b8023          	sb	a6,0(s7)
     df6:	00074383          	lbu	t2,0(a4)
     dfa:	0705                	addi	a4,a4,1
     dfc:	007b8023          	sb	t2,0(s7)
     e00:	00074a83          	lbu	s5,0(a4)
     e04:	0705                	addi	a4,a4,1
     e06:	015b8023          	sb	s5,0(s7)
     e0a:	00074883          	lbu	a7,0(a4)
     e0e:	0705                	addi	a4,a4,1
     e10:	011b8023          	sb	a7,0(s7)
     e14:	00074583          	lbu	a1,0(a4)
     e18:	0705                	addi	a4,a4,1
     e1a:	40ed8a33          	sub	s4,s11,a4
     e1e:	00bb8023          	sb	a1,0(s7)
     e22:	008a0533          	add	a0,s4,s0
     e26:	04a05963          	blez	a0,e78 <vprintfmt.constprop.0+0x9d2>
     e2a:	00074283          	lbu	t0,0(a4)
     e2e:	0721                	addi	a4,a4,8
     e30:	40ed8f33          	sub	t5,s11,a4
     e34:	005b8023          	sb	t0,0(s7)
     e38:	ff974b03          	lbu	s6,-7(a4)
     e3c:	008f0fb3          	add	t6,t5,s0
     e40:	016b8023          	sb	s6,0(s7)
     e44:	ffa74683          	lbu	a3,-6(a4)
     e48:	00db8023          	sb	a3,0(s7)
     e4c:	ffb74e03          	lbu	t3,-5(a4)
     e50:	01cb8023          	sb	t3,0(s7)
     e54:	ffc74e83          	lbu	t4,-4(a4)
     e58:	01db8023          	sb	t4,0(s7)
     e5c:	ffd74983          	lbu	s3,-3(a4)
     e60:	013b8023          	sb	s3,0(s7)
     e64:	ffe74083          	lbu	ra,-2(a4)
     e68:	001b8023          	sb	ra,0(s7)
     e6c:	fff74603          	lbu	a2,-1(a4)
     e70:	00cb8023          	sb	a2,0(s7)
     e74:	fbf04be3          	bgtz	t6,e2a <vprintfmt.constprop.0+0x984>
     e78:	04022023          	sw	zero,64(tp) # 40 <buflen.0>
     e7c:	c43e                	sw	a5,8(sp)
     e7e:	e8cff06f          	j	50a <vprintfmt.constprop.0+0x64>
     e82:	4405                	li	s0,1
     e84:	28744063          	blt	s0,t2,1104 <vprintfmt.constprop.0+0xc5e>
     e88:	48a2                	lw	a7,8(sp)
     e8a:	00488a93          	addi	s5,a7,4
     e8e:	3a038563          	beqz	t2,1238 <vprintfmt.constprop.0+0xd92>
     e92:	0008a803          	lw	a6,0(a7)
     e96:	c456                	sw	s5,8(sp)
     e98:	41f85493          	srai	s1,a6,0x1f
     e9c:	04022403          	lw	s0,64(tp) # 40 <buflen.0>
     ea0:	2604cf63          	bltz	s1,111e <vprintfmt.constprop.0+0xc78>
     ea4:	8b42                	mv	s6,a6
     ea6:	4aa9                	li	s5,10
     ea8:	c002                	sw	zero,0(sp)
     eaa:	bc79                	j	948 <vprintfmt.constprop.0+0x4a2>
     eac:	4aa9                	li	s5,10
     eae:	c002                	sw	zero,0(sp)
     eb0:	bcbd                	j	92e <vprintfmt.constprop.0+0x488>
     eb2:	ab5b75e3          	bgeu	s6,s5,95c <vprintfmt.constprop.0+0x4b6>
     eb6:	4085                	li	ra,1
     eb8:	4f81                	li	t6,0
     eba:	4a05                	li	s4,1
     ebc:	ad20cbe3          	blt	ra,s2,992 <vprintfmt.constprop.0+0x4ec>
     ec0:	bed1                	j	a94 <vprintfmt.constprop.0+0x5ee>
     ec2:	0004cf83          	lbu	t6,0(s1)
     ec6:	867e                	mv	a2,t6
     ec8:	120f8b63          	beqz	t6,ffe <vprintfmt.constprop.0+0xb58>
     ecc:	4292                	lw	t0,4(sp)
     ece:	50fd                	li	ra,-1
     ed0:	4529                	li	a0,10
     ed2:	00044563          	bltz	s0,edc <vprintfmt.constprop.0+0xa36>
     ed6:	147d                	addi	s0,s0,-1
     ed8:	02140763          	beq	s0,ra,f06 <vprintfmt.constprop.0+0xa60>
     edc:	04022303          	lw	t1,64(tp) # 40 <buflen.0>
     ee0:	00130693          	addi	a3,t1,1
     ee4:	006d83b3          	add	t2,s11,t1
     ee8:	04d22023          	sw	a3,64(tp) # 40 <buflen.0>
     eec:	01f38023          	sb	t6,0(t2)
     ef0:	10a60a63          	beq	a2,a0,1004 <vprintfmt.constprop.0+0xb5e>
     ef4:	11a68a63          	beq	a3,s10,1008 <vprintfmt.constprop.0+0xb62>
     ef8:	0014cf83          	lbu	t6,1(s1)
     efc:	197d                	addi	s2,s2,-1
     efe:	0485                	addi	s1,s1,1
     f00:	867e                	mv	a2,t6
     f02:	fc0f98e3          	bnez	t6,ed2 <vprintfmt.constprop.0+0xa2c>
     f06:	0f205c63          	blez	s2,ffe <vprintfmt.constprop.0+0xb58>
     f0a:	40e2                	lw	ra,24(sp)
     f0c:	02000493          	li	s1,32
     f10:	a021                	j	f18 <vprintfmt.constprop.0+0xa72>
     f12:	197d                	addi	s2,s2,-1
     f14:	0e090563          	beqz	s2,ffe <vprintfmt.constprop.0+0xb58>
     f18:	04022503          	lw	a0,64(tp) # 40 <buflen.0>
     f1c:	00150293          	addi	t0,a0,1
     f20:	00ad8433          	add	s0,s11,a0
     f24:	04522023          	sw	t0,64(tp) # 40 <buflen.0>
     f28:	00940023          	sb	s1,0(s0)
     f2c:	ffa293e3          	bne	t0,s10,f12 <vprintfmt.constprop.0+0xa6c>
     f30:	41b086b3          	sub	a3,ra,s11
     f34:	0076fa93          	andi	s5,a3,7
     f38:	87ee                	mv	a5,s11
     f3a:	060a8a63          	beqz	s5,fae <vprintfmt.constprop.0+0xb08>
     f3e:	4b05                	li	s6,1
     f40:	076a8063          	beq	s5,s6,fa0 <vprintfmt.constprop.0+0xafa>
     f44:	4e09                	li	t3,2
     f46:	05ca8863          	beq	s5,t3,f96 <vprintfmt.constprop.0+0xaf0>
     f4a:	4e8d                	li	t4,3
     f4c:	05da8063          	beq	s5,t4,f8c <vprintfmt.constprop.0+0xae6>
     f50:	4f11                	li	t5,4
     f52:	03ea8863          	beq	s5,t5,f82 <vprintfmt.constprop.0+0xadc>
     f56:	4f95                	li	t6,5
     f58:	03fa8063          	beq	s5,t6,f78 <vprintfmt.constprop.0+0xad2>
     f5c:	4619                	li	a2,6
     f5e:	00ca8863          	beq	s5,a2,f6e <vprintfmt.constprop.0+0xac8>
     f62:	000dc303          	lbu	t1,0(s11)
     f66:	001d8793          	addi	a5,s11,1
     f6a:	006b8023          	sb	t1,0(s7)
     f6e:	0007c383          	lbu	t2,0(a5)
     f72:	0785                	addi	a5,a5,1
     f74:	007b8023          	sb	t2,0(s7)
     f78:	0007c883          	lbu	a7,0(a5)
     f7c:	0785                	addi	a5,a5,1
     f7e:	011b8023          	sb	a7,0(s7)
     f82:	0007c803          	lbu	a6,0(a5)
     f86:	0785                	addi	a5,a5,1
     f88:	010b8023          	sb	a6,0(s7)
     f8c:	0007c583          	lbu	a1,0(a5)
     f90:	0785                	addi	a5,a5,1
     f92:	00bb8023          	sb	a1,0(s7)
     f96:	0007c703          	lbu	a4,0(a5)
     f9a:	0785                	addi	a5,a5,1
     f9c:	00eb8023          	sb	a4,0(s7)
     fa0:	0007ca03          	lbu	s4,0(a5)
     fa4:	0785                	addi	a5,a5,1
     fa6:	014b8023          	sb	s4,0(s7)
     faa:	04178563          	beq	a5,ra,ff4 <vprintfmt.constprop.0+0xb4e>
     fae:	0007c503          	lbu	a0,0(a5)
     fb2:	07a1                	addi	a5,a5,8
     fb4:	00ab8023          	sb	a0,0(s7)
     fb8:	ff97c283          	lbu	t0,-7(a5)
     fbc:	005b8023          	sb	t0,0(s7)
     fc0:	ffa7c403          	lbu	s0,-6(a5)
     fc4:	008b8023          	sb	s0,0(s7)
     fc8:	ffb7c683          	lbu	a3,-5(a5)
     fcc:	00db8023          	sb	a3,0(s7)
     fd0:	ffc7ca83          	lbu	s5,-4(a5)
     fd4:	015b8023          	sb	s5,0(s7)
     fd8:	ffd7cb03          	lbu	s6,-3(a5)
     fdc:	016b8023          	sb	s6,0(s7)
     fe0:	ffe7ce03          	lbu	t3,-2(a5)
     fe4:	01cb8023          	sb	t3,0(s7)
     fe8:	fff7ce83          	lbu	t4,-1(a5)
     fec:	01db8023          	sb	t4,0(s7)
     ff0:	fa179fe3          	bne	a5,ra,fae <vprintfmt.constprop.0+0xb08>
     ff4:	04022023          	sw	zero,64(tp) # 40 <buflen.0>
     ff8:	197d                	addi	s2,s2,-1
     ffa:	f0091fe3          	bnez	s2,f18 <vprintfmt.constprop.0+0xa72>
     ffe:	c44e                	sw	s3,8(sp)
    1000:	d0aff06f          	j	50a <vprintfmt.constprop.0+0x64>
    1004:	0ed05d63          	blez	a3,10fe <vprintfmt.constprop.0+0xc58>
    1008:	00020813          	mv	a6,tp
    100c:	00084883          	lbu	a7,0(a6)
    1010:	fff84593          	not	a1,a6
    1014:	00180793          	addi	a5,a6,1
    1018:	00bd8733          	add	a4,s11,a1
    101c:	40fd8a33          	sub	s4,s11,a5
    1020:	00d70ab3          	add	s5,a4,a3
    1024:	011b8023          	sb	a7,0(s7)
    1028:	00da0b33          	add	s6,s4,a3
    102c:	007afe13          	andi	t3,s5,7
    1030:	0d605763          	blez	s6,10fe <vprintfmt.constprop.0+0xc58>
    1034:	060e0e63          	beqz	t3,10b0 <vprintfmt.constprop.0+0xc0a>
    1038:	4e85                	li	t4,1
    103a:	07de0063          	beq	t3,t4,109a <vprintfmt.constprop.0+0xbf4>
    103e:	4f09                	li	t5,2
    1040:	05ee0863          	beq	t3,t5,1090 <vprintfmt.constprop.0+0xbea>
    1044:	4f8d                	li	t6,3
    1046:	05fe0063          	beq	t3,t6,1086 <vprintfmt.constprop.0+0xbe0>
    104a:	4611                	li	a2,4
    104c:	02ce0863          	beq	t3,a2,107c <vprintfmt.constprop.0+0xbd6>
    1050:	4315                	li	t1,5
    1052:	026e0063          	beq	t3,t1,1072 <vprintfmt.constprop.0+0xbcc>
    1056:	4399                	li	t2,6
    1058:	007e0863          	beq	t3,t2,1068 <vprintfmt.constprop.0+0xbc2>
    105c:	00184883          	lbu	a7,1(a6)
    1060:	00280793          	addi	a5,a6,2
    1064:	011b8023          	sb	a7,0(s7)
    1068:	0007c803          	lbu	a6,0(a5)
    106c:	0785                	addi	a5,a5,1
    106e:	010b8023          	sb	a6,0(s7)
    1072:	0007c583          	lbu	a1,0(a5)
    1076:	0785                	addi	a5,a5,1
    1078:	00bb8023          	sb	a1,0(s7)
    107c:	0007c703          	lbu	a4,0(a5)
    1080:	0785                	addi	a5,a5,1
    1082:	00eb8023          	sb	a4,0(s7)
    1086:	0007ca03          	lbu	s4,0(a5)
    108a:	0785                	addi	a5,a5,1
    108c:	014b8023          	sb	s4,0(s7)
    1090:	0007ca83          	lbu	s5,0(a5)
    1094:	0785                	addi	a5,a5,1
    1096:	015b8023          	sb	s5,0(s7)
    109a:	0007cb03          	lbu	s6,0(a5)
    109e:	0785                	addi	a5,a5,1
    10a0:	40fd8e33          	sub	t3,s11,a5
    10a4:	016b8023          	sb	s6,0(s7)
    10a8:	00de0eb3          	add	t4,t3,a3
    10ac:	05d05963          	blez	t4,10fe <vprintfmt.constprop.0+0xc58>
    10b0:	0007cf03          	lbu	t5,0(a5)
    10b4:	07a1                	addi	a5,a5,8
    10b6:	40fd85b3          	sub	a1,s11,a5
    10ba:	01eb8023          	sb	t5,0(s7)
    10be:	ff97cf83          	lbu	t6,-7(a5)
    10c2:	00d58733          	add	a4,a1,a3
    10c6:	01fb8023          	sb	t6,0(s7)
    10ca:	ffa7c603          	lbu	a2,-6(a5)
    10ce:	00cb8023          	sb	a2,0(s7)
    10d2:	ffb7c303          	lbu	t1,-5(a5)
    10d6:	006b8023          	sb	t1,0(s7)
    10da:	ffc7c383          	lbu	t2,-4(a5)
    10de:	007b8023          	sb	t2,0(s7)
    10e2:	ffd7c883          	lbu	a7,-3(a5)
    10e6:	011b8023          	sb	a7,0(s7)
    10ea:	ffe7c803          	lbu	a6,-2(a5)
    10ee:	010b8023          	sb	a6,0(s7)
    10f2:	fff7ca03          	lbu	s4,-1(a5)
    10f6:	014b8023          	sb	s4,0(s7)
    10fa:	fae04be3          	bgtz	a4,10b0 <vprintfmt.constprop.0+0xc0a>
    10fe:	04022023          	sw	zero,64(tp) # 40 <buflen.0>
    1102:	bbdd                	j	ef8 <vprintfmt.constprop.0+0xa52>
    1104:	45a2                	lw	a1,8(sp)
    1106:	00758793          	addi	a5,a1,7
    110a:	ff87fa13          	andi	s4,a5,-8
    110e:	008a0513          	addi	a0,s4,8
    1112:	000a2803          	lw	a6,0(s4)
    1116:	004a2483          	lw	s1,4(s4)
    111a:	c42a                	sw	a0,8(sp)
    111c:	b341                	j	e9c <vprintfmt.constprop.0+0x9f6>
    111e:	00140613          	addi	a2,s0,1
    1122:	008d82b3          	add	t0,s11,s0
    1126:	02d00693          	li	a3,45
    112a:	04c22023          	sw	a2,64(tp) # 40 <buflen.0>
    112e:	00d28023          	sb	a3,0(t0)
    1132:	21a60d63          	beq	a2,s10,134c <vprintfmt.constprop.0+0xea6>
    1136:	01003333          	snez	t1,a6
    113a:	409004b3          	neg	s1,s1
    113e:	41000b33          	neg	s6,a6
    1142:	406484b3          	sub	s1,s1,t1
    1146:	8432                	mv	s0,a2
    1148:	4aa9                	li	s5,10
    114a:	c002                	sw	zero,0(sp)
    114c:	ffcff06f          	j	948 <vprintfmt.constprop.0+0x4a2>
    1150:	4b62                	lw	s6,24(sp)
    1152:	87ee                	mv	a5,s11
    1154:	41bb0e33          	sub	t3,s6,s11
    1158:	007e7e93          	andi	t4,t3,7
    115c:	060e8b63          	beqz	t4,11d2 <vprintfmt.constprop.0+0xd2c>
    1160:	4985                	li	s3,1
    1162:	073e8063          	beq	t4,s3,11c2 <vprintfmt.constprop.0+0xd1c>
    1166:	4489                	li	s1,2
    1168:	049e8863          	beq	t4,s1,11b8 <vprintfmt.constprop.0+0xd12>
    116c:	408d                	li	ra,3
    116e:	041e8063          	beq	t4,ra,11ae <vprintfmt.constprop.0+0xd08>
    1172:	4f11                	li	t5,4
    1174:	03ee8863          	beq	t4,t5,11a4 <vprintfmt.constprop.0+0xcfe>
    1178:	4f95                	li	t6,5
    117a:	03fe8063          	beq	t4,t6,119a <vprintfmt.constprop.0+0xcf4>
    117e:	4419                	li	s0,6
    1180:	008e8863          	beq	t4,s0,1190 <vprintfmt.constprop.0+0xcea>
    1184:	000dc603          	lbu	a2,0(s11)
    1188:	001d8793          	addi	a5,s11,1
    118c:	00cb8023          	sb	a2,0(s7)
    1190:	0007c303          	lbu	t1,0(a5)
    1194:	0785                	addi	a5,a5,1
    1196:	006b8023          	sb	t1,0(s7)
    119a:	0007ca83          	lbu	s5,0(a5)
    119e:	0785                	addi	a5,a5,1
    11a0:	015b8023          	sb	s5,0(s7)
    11a4:	0007c383          	lbu	t2,0(a5)
    11a8:	0785                	addi	a5,a5,1
    11aa:	007b8023          	sb	t2,0(s7)
    11ae:	0007c883          	lbu	a7,0(a5)
    11b2:	0785                	addi	a5,a5,1
    11b4:	011b8023          	sb	a7,0(s7)
    11b8:	0007c803          	lbu	a6,0(a5)
    11bc:	0785                	addi	a5,a5,1
    11be:	010b8023          	sb	a6,0(s7)
    11c2:	0007c583          	lbu	a1,0(a5)
    11c6:	0785                	addi	a5,a5,1
    11c8:	00bb8023          	sb	a1,0(s7)
    11cc:	4a62                	lw	s4,24(sp)
    11ce:	05478663          	beq	a5,s4,121a <vprintfmt.constprop.0+0xd74>
    11d2:	0007c503          	lbu	a0,0(a5)
    11d6:	07a1                	addi	a5,a5,8
    11d8:	00ab8023          	sb	a0,0(s7)
    11dc:	ff97c283          	lbu	t0,-7(a5)
    11e0:	005b8023          	sb	t0,0(s7)
    11e4:	ffa7c683          	lbu	a3,-6(a5)
    11e8:	00db8023          	sb	a3,0(s7)
    11ec:	ffb7cb03          	lbu	s6,-5(a5)
    11f0:	016b8023          	sb	s6,0(s7)
    11f4:	ffc7ce03          	lbu	t3,-4(a5)
    11f8:	01cb8023          	sb	t3,0(s7)
    11fc:	ffd7ce83          	lbu	t4,-3(a5)
    1200:	01db8023          	sb	t4,0(s7)
    1204:	ffe7c983          	lbu	s3,-2(a5)
    1208:	013b8023          	sb	s3,0(s7)
    120c:	fff7c483          	lbu	s1,-1(a5)
    1210:	009b8023          	sb	s1,0(s7)
    1214:	40e2                	lw	ra,24(sp)
    1216:	fa179ee3          	bne	a5,ra,11d2 <vprintfmt.constprop.0+0xd2c>
    121a:	4f05                	li	t5,1
    121c:	07800f93          	li	t6,120
    1220:	06100613          	li	a2,97
    1224:	05e22023          	sw	t5,64(tp) # 40 <buflen.0>
    1228:	01fd8023          	sb	t6,0(s11)
    122c:	4405                	li	s0,1
    122e:	4ac1                	li	s5,16
    1230:	c002                	sw	zero,0(sp)
    1232:	ca32                	sw	a2,20(sp)
    1234:	f0aff06f          	j	93e <vprintfmt.constprop.0+0x498>
    1238:	48a2                	lw	a7,8(sp)
    123a:	b9a1                	j	e92 <vprintfmt.constprop.0+0x9ec>
    123c:	06100813          	li	a6,97
    1240:	4ac1                	li	s5,16
    1242:	c002                	sw	zero,0(sp)
    1244:	ca42                	sw	a6,20(sp)
    1246:	ee8ff06f          	j	92e <vprintfmt.constprop.0+0x488>
    124a:	6389                	lui	t2,0x2
    124c:	72038493          	addi	s1,t2,1824 # 2720 <sc_exit+0x40>
    1250:	85a2                	mv	a1,s0
    1252:	8526                	mv	a0,s1
    1254:	2e81                	jal	15a4 <strnlen>
    1256:	40a90933          	sub	s2,s2,a0
    125a:	c72054e3          	blez	s2,ec2 <vprintfmt.constprop.0+0xa1c>
    125e:	4532                	lw	a0,12(sp)
    1260:	4662                	lw	a2,24(sp)
    1262:	a021                	j	126a <vprintfmt.constprop.0+0xdc4>
    1264:	197d                	addi	s2,s2,-1
    1266:	c4090ee3          	beqz	s2,ec2 <vprintfmt.constprop.0+0xa1c>
    126a:	04022583          	lw	a1,64(tp) # 40 <buflen.0>
    126e:	00158713          	addi	a4,a1,1
    1272:	00bd8833          	add	a6,s11,a1
    1276:	04e22023          	sw	a4,64(tp) # 40 <buflen.0>
    127a:	00a80023          	sb	a0,0(a6)
    127e:	ffa713e3          	bne	a4,s10,1264 <vprintfmt.constprop.0+0xdbe>
    1282:	41b608b3          	sub	a7,a2,s11
    1286:	0078fa13          	andi	s4,a7,7
    128a:	87ee                	mv	a5,s11
    128c:	060a0a63          	beqz	s4,1300 <vprintfmt.constprop.0+0xe5a>
    1290:	4a85                	li	s5,1
    1292:	075a0063          	beq	s4,s5,12f2 <vprintfmt.constprop.0+0xe4c>
    1296:	4b09                	li	s6,2
    1298:	056a0863          	beq	s4,s6,12e8 <vprintfmt.constprop.0+0xe42>
    129c:	4e0d                	li	t3,3
    129e:	05ca0063          	beq	s4,t3,12de <vprintfmt.constprop.0+0xe38>
    12a2:	4e91                	li	t4,4
    12a4:	03da0863          	beq	s4,t4,12d4 <vprintfmt.constprop.0+0xe2e>
    12a8:	4f15                	li	t5,5
    12aa:	03ea0063          	beq	s4,t5,12ca <vprintfmt.constprop.0+0xe24>
    12ae:	4699                	li	a3,6
    12b0:	00da0863          	beq	s4,a3,12c0 <vprintfmt.constprop.0+0xe1a>
    12b4:	000dcf83          	lbu	t6,0(s11)
    12b8:	001d8793          	addi	a5,s11,1
    12bc:	01fb8023          	sb	t6,0(s7)
    12c0:	0007c083          	lbu	ra,0(a5)
    12c4:	0785                	addi	a5,a5,1
    12c6:	001b8023          	sb	ra,0(s7)
    12ca:	0007c283          	lbu	t0,0(a5)
    12ce:	0785                	addi	a5,a5,1
    12d0:	005b8023          	sb	t0,0(s7)
    12d4:	0007c303          	lbu	t1,0(a5)
    12d8:	0785                	addi	a5,a5,1
    12da:	006b8023          	sb	t1,0(s7)
    12de:	0007c383          	lbu	t2,0(a5)
    12e2:	0785                	addi	a5,a5,1
    12e4:	007b8023          	sb	t2,0(s7)
    12e8:	0007c583          	lbu	a1,0(a5)
    12ec:	0785                	addi	a5,a5,1
    12ee:	00bb8023          	sb	a1,0(s7)
    12f2:	0007c703          	lbu	a4,0(a5)
    12f6:	0785                	addi	a5,a5,1
    12f8:	00eb8023          	sb	a4,0(s7)
    12fc:	04c78563          	beq	a5,a2,1346 <vprintfmt.constprop.0+0xea0>
    1300:	0007c803          	lbu	a6,0(a5)
    1304:	07a1                	addi	a5,a5,8
    1306:	010b8023          	sb	a6,0(s7)
    130a:	ff97c883          	lbu	a7,-7(a5)
    130e:	011b8023          	sb	a7,0(s7)
    1312:	ffa7ca03          	lbu	s4,-6(a5)
    1316:	014b8023          	sb	s4,0(s7)
    131a:	ffb7ca83          	lbu	s5,-5(a5)
    131e:	015b8023          	sb	s5,0(s7)
    1322:	ffc7cb03          	lbu	s6,-4(a5)
    1326:	016b8023          	sb	s6,0(s7)
    132a:	ffd7ce03          	lbu	t3,-3(a5)
    132e:	01cb8023          	sb	t3,0(s7)
    1332:	ffe7ce83          	lbu	t4,-2(a5)
    1336:	01db8023          	sb	t4,0(s7)
    133a:	fff7cf03          	lbu	t5,-1(a5)
    133e:	01eb8023          	sb	t5,0(s7)
    1342:	fac79fe3          	bne	a5,a2,1300 <vprintfmt.constprop.0+0xe5a>
    1346:	04022023          	sw	zero,64(tp) # 40 <buflen.0>
    134a:	bf29                	j	1264 <vprintfmt.constprop.0+0xdbe>
    134c:	4b62                	lw	s6,24(sp)
    134e:	87ee                	mv	a5,s11
    1350:	41bb0e33          	sub	t3,s6,s11
    1354:	007e7e93          	andi	t4,t3,7
    1358:	060e8b63          	beqz	t4,13ce <vprintfmt.constprop.0+0xf28>
    135c:	4985                	li	s3,1
    135e:	073e8063          	beq	t4,s3,13be <vprintfmt.constprop.0+0xf18>
    1362:	4089                	li	ra,2
    1364:	041e8863          	beq	t4,ra,13b4 <vprintfmt.constprop.0+0xf0e>
    1368:	4f0d                	li	t5,3
    136a:	05ee8063          	beq	t4,t5,13aa <vprintfmt.constprop.0+0xf04>
    136e:	4f91                	li	t6,4
    1370:	03fe8863          	beq	t4,t6,13a0 <vprintfmt.constprop.0+0xefa>
    1374:	4615                	li	a2,5
    1376:	02ce8063          	beq	t4,a2,1396 <vprintfmt.constprop.0+0xef0>
    137a:	4319                	li	t1,6
    137c:	006e8863          	beq	t4,t1,138c <vprintfmt.constprop.0+0xee6>
    1380:	000dc383          	lbu	t2,0(s11)
    1384:	001d8793          	addi	a5,s11,1
    1388:	007b8023          	sb	t2,0(s7)
    138c:	0007c703          	lbu	a4,0(a5)
    1390:	0785                	addi	a5,a5,1
    1392:	00eb8023          	sb	a4,0(s7)
    1396:	0007c403          	lbu	s0,0(a5)
    139a:	0785                	addi	a5,a5,1
    139c:	008b8023          	sb	s0,0(s7)
    13a0:	0007ca83          	lbu	s5,0(a5)
    13a4:	0785                	addi	a5,a5,1
    13a6:	015b8023          	sb	s5,0(s7)
    13aa:	0007c883          	lbu	a7,0(a5)
    13ae:	0785                	addi	a5,a5,1
    13b0:	011b8023          	sb	a7,0(s7)
    13b4:	0007c583          	lbu	a1,0(a5)
    13b8:	0785                	addi	a5,a5,1
    13ba:	00bb8023          	sb	a1,0(s7)
    13be:	0007ca03          	lbu	s4,0(a5)
    13c2:	0785                	addi	a5,a5,1
    13c4:	014b8023          	sb	s4,0(s7)
    13c8:	4562                	lw	a0,24(sp)
    13ca:	04a78663          	beq	a5,a0,1416 <vprintfmt.constprop.0+0xf70>
    13ce:	0007c283          	lbu	t0,0(a5)
    13d2:	07a1                	addi	a5,a5,8
    13d4:	005b8023          	sb	t0,0(s7)
    13d8:	ff97c683          	lbu	a3,-7(a5)
    13dc:	00db8023          	sb	a3,0(s7)
    13e0:	ffa7cb03          	lbu	s6,-6(a5)
    13e4:	016b8023          	sb	s6,0(s7)
    13e8:	ffb7ce03          	lbu	t3,-5(a5)
    13ec:	01cb8023          	sb	t3,0(s7)
    13f0:	ffc7ce83          	lbu	t4,-4(a5)
    13f4:	01db8023          	sb	t4,0(s7)
    13f8:	ffd7c983          	lbu	s3,-3(a5)
    13fc:	013b8023          	sb	s3,0(s7)
    1400:	ffe7c083          	lbu	ra,-2(a5)
    1404:	001b8023          	sb	ra,0(s7)
    1408:	fff7cf03          	lbu	t5,-1(a5)
    140c:	01eb8023          	sb	t5,0(s7)
    1410:	4fe2                	lw	t6,24(sp)
    1412:	fbf79ee3          	bne	a5,t6,13ce <vprintfmt.constprop.0+0xf28>
    1416:	04022023          	sw	zero,64(tp) # 40 <buflen.0>
    141a:	4601                	li	a2,0
    141c:	bb29                	j	1136 <vprintfmt.constprop.0+0xc90>
    141e:	01205763          	blez	s2,142c <vprintfmt.constprop.0+0xf86>
    1422:	42b2                	lw	t0,12(sp)
    1424:	02d00093          	li	ra,45
    1428:	e21291e3          	bne	t0,ra,124a <vprintfmt.constprop.0+0xda4>
    142c:	6309                	lui	t1,0x2
    142e:	72030493          	addi	s1,t1,1824 # 2720 <sc_exit+0x40>
    1432:	02800613          	li	a2,40
    1436:	02800f93          	li	t6,40
    143a:	bc49                	j	ecc <vprintfmt.constprop.0+0xa26>
    143c:	06100393          	li	t2,97
    1440:	4ac1                	li	s5,16
    1442:	c002                	sw	zero,0(sp)
    1444:	ca1e                	sw	t2,20(sp)
    1446:	cf8ff06f          	j	93e <vprintfmt.constprop.0+0x498>

0000144a <putchar>:
    144a:	04022603          	lw	a2,64(tp) # 40 <buflen.0>
    144e:	00020293          	mv	t0,tp
    1452:	00160593          	addi	a1,a2,1
    1456:	00c28333          	add	t1,t0,a2
    145a:	04b22023          	sw	a1,64(tp) # 40 <buflen.0>
    145e:	00a30023          	sb	a0,0(t1)
    1462:	43a9                	li	t2,10
    1464:	00750863          	beq	a0,t2,1474 <putchar+0x2a>
    1468:	04000513          	li	a0,64
    146c:	00a58663          	beq	a1,a0,1478 <putchar+0x2e>
    1470:	4501                	li	a0,0
    1472:	8082                	ret
    1474:	0eb05c63          	blez	a1,156c <putchar+0x122>
    1478:	00020e13          	mv	t3,tp
    147c:	000e4e83          	lbu	t4,0(t3)
    1480:	fffe4f13          	not	t5,t3
    1484:	6f85                	lui	t6,0x1
    1486:	01ee06b3          	add	a3,t3,t5
    148a:	00b68633          	add	a2,a3,a1
    148e:	01df8023          	sb	t4,0(t6) # 1000 <vprintfmt.constprop.0+0xb5a>
    1492:	fff58713          	addi	a4,a1,-1
    1496:	00767293          	andi	t0,a2,7
    149a:	001e0793          	addi	a5,t3,1
    149e:	0ce05763          	blez	a4,156c <putchar+0x122>
    14a2:	06028e63          	beqz	t0,151e <putchar+0xd4>
    14a6:	4305                	li	t1,1
    14a8:	06628063          	beq	t0,t1,1508 <putchar+0xbe>
    14ac:	4389                	li	t2,2
    14ae:	04728863          	beq	t0,t2,14fe <putchar+0xb4>
    14b2:	450d                	li	a0,3
    14b4:	04a28063          	beq	t0,a0,14f4 <putchar+0xaa>
    14b8:	4891                	li	a7,4
    14ba:	03128863          	beq	t0,a7,14ea <putchar+0xa0>
    14be:	4e95                	li	t4,5
    14c0:	03d28063          	beq	t0,t4,14e0 <putchar+0x96>
    14c4:	4f19                	li	t5,6
    14c6:	01e28863          	beq	t0,t5,14d6 <putchar+0x8c>
    14ca:	001e4683          	lbu	a3,1(t3)
    14ce:	002e0793          	addi	a5,t3,2
    14d2:	00df8023          	sb	a3,0(t6)
    14d6:	0007c603          	lbu	a2,0(a5)
    14da:	0785                	addi	a5,a5,1
    14dc:	00cf8023          	sb	a2,0(t6)
    14e0:	0007c703          	lbu	a4,0(a5)
    14e4:	0785                	addi	a5,a5,1
    14e6:	00ef8023          	sb	a4,0(t6)
    14ea:	0007c283          	lbu	t0,0(a5)
    14ee:	0785                	addi	a5,a5,1
    14f0:	005f8023          	sb	t0,0(t6)
    14f4:	0007c303          	lbu	t1,0(a5)
    14f8:	0785                	addi	a5,a5,1
    14fa:	006f8023          	sb	t1,0(t6)
    14fe:	0007c383          	lbu	t2,0(a5)
    1502:	0785                	addi	a5,a5,1
    1504:	007f8023          	sb	t2,0(t6)
    1508:	0007c503          	lbu	a0,0(a5)
    150c:	0785                	addi	a5,a5,1
    150e:	40fe08b3          	sub	a7,t3,a5
    1512:	00af8023          	sb	a0,0(t6)
    1516:	00b88eb3          	add	t4,a7,a1
    151a:	05d05963          	blez	t4,156c <putchar+0x122>
    151e:	0007cf03          	lbu	t5,0(a5)
    1522:	07a1                	addi	a5,a5,8
    1524:	40fe0533          	sub	a0,t3,a5
    1528:	01ef8023          	sb	t5,0(t6)
    152c:	ff97c683          	lbu	a3,-7(a5)
    1530:	00b508b3          	add	a7,a0,a1
    1534:	00df8023          	sb	a3,0(t6)
    1538:	ffa7c603          	lbu	a2,-6(a5)
    153c:	00cf8023          	sb	a2,0(t6)
    1540:	ffb7c703          	lbu	a4,-5(a5)
    1544:	00ef8023          	sb	a4,0(t6)
    1548:	ffc7c283          	lbu	t0,-4(a5)
    154c:	005f8023          	sb	t0,0(t6)
    1550:	ffd7c303          	lbu	t1,-3(a5)
    1554:	006f8023          	sb	t1,0(t6)
    1558:	ffe7c383          	lbu	t2,-2(a5)
    155c:	007f8023          	sb	t2,0(t6)
    1560:	fff7ce83          	lbu	t4,-1(a5)
    1564:	01df8023          	sb	t4,0(t6)
    1568:	fb104be3          	bgtz	a7,151e <putchar+0xd4>
    156c:	04022023          	sw	zero,64(tp) # 40 <buflen.0>
    1570:	4501                	li	a0,0
    1572:	8082                	ret

00001574 <sc_printf>:
    1574:	7139                	addi	sp,sp,-64
    1576:	02410313          	addi	t1,sp,36
    157a:	d22e                	sw	a1,36(sp)
    157c:	859a                	mv	a1,t1
    157e:	ce06                	sw	ra,28(sp)
    1580:	d432                	sw	a2,40(sp)
    1582:	d636                	sw	a3,44(sp)
    1584:	d83a                	sw	a4,48(sp)
    1586:	da3e                	sw	a5,52(sp)
    1588:	dc42                	sw	a6,56(sp)
    158a:	de46                	sw	a7,60(sp)
    158c:	c61a                	sw	t1,12(sp)
    158e:	f19fe0ef          	jal	ra,4a6 <vprintfmt.constprop.0>
    1592:	40f2                	lw	ra,28(sp)
    1594:	4501                	li	a0,0
    1596:	6121                	addi	sp,sp,64
    1598:	8082                	ret

0000159a <main>:
    159a:	67c5                	lui	a5,0x11
    159c:	1f400713          	li	a4,500
    15a0:	c398                	sw	a4,0(a5)
    15a2:	8082                	ret

000015a4 <strnlen>:
    15a4:	00b506b3          	add	a3,a0,a1
    15a8:	00050793          	mv	a5,a0
    15ac:	00059863          	bnez	a1,15bc <strnlen+0x18>
    15b0:	0240006f          	j	15d4 <strnlen+0x30>
    15b4:	00178793          	addi	a5,a5,1 # 11001 <__C_STACK_TOP__+0x1001>
    15b8:	00f68a63          	beq	a3,a5,15cc <strnlen+0x28>
    15bc:	0007c703          	lbu	a4,0(a5)
    15c0:	fe071ae3          	bnez	a4,15b4 <strnlen+0x10>
    15c4:	40a78533          	sub	a0,a5,a0
    15c8:	00008067          	ret
    15cc:	40a68533          	sub	a0,a3,a0
    15d0:	00008067          	ret
    15d4:	00000513          	li	a0,0
    15d8:	00008067          	ret

000015dc <__moddi3>:
    15dc:	fc010113          	addi	sp,sp,-64
    15e0:	02912a23          	sw	s1,52(sp)
    15e4:	03612023          	sw	s6,32(sp)
    15e8:	01812c23          	sw	s8,24(sp)
    15ec:	02112e23          	sw	ra,60(sp)
    15f0:	02812c23          	sw	s0,56(sp)
    15f4:	03212823          	sw	s2,48(sp)
    15f8:	03312623          	sw	s3,44(sp)
    15fc:	03412423          	sw	s4,40(sp)
    1600:	03512223          	sw	s5,36(sp)
    1604:	01712e23          	sw	s7,28(sp)
    1608:	01912a23          	sw	s9,20(sp)
    160c:	01a12823          	sw	s10,16(sp)
    1610:	01b12623          	sw	s11,12(sp)
    1614:	00050c13          	mv	s8,a0
    1618:	00058b13          	mv	s6,a1
    161c:	00000493          	li	s1,0
    1620:	0005dc63          	bgez	a1,1638 <__moddi3+0x5c>
    1624:	00a037b3          	snez	a5,a0
    1628:	40b005b3          	neg	a1,a1
    162c:	40f58b33          	sub	s6,a1,a5
    1630:	40a00c33          	neg	s8,a0
    1634:	fff00493          	li	s1,-1
    1638:	0006da63          	bgez	a3,164c <__moddi3+0x70>
    163c:	00c035b3          	snez	a1,a2
    1640:	40d006b3          	neg	a3,a3
    1644:	40b686b3          	sub	a3,a3,a1
    1648:	40c00633          	neg	a2,a2
    164c:	00060a93          	mv	s5,a2
    1650:	00068993          	mv	s3,a3
    1654:	000c0413          	mv	s0,s8
    1658:	000b0913          	mv	s2,s6
    165c:	28069463          	bnez	a3,18e4 <__moddi3+0x308>
    1660:	00001a17          	auipc	s4,0x1
    1664:	220a0a13          	addi	s4,s4,544 # 2880 <__clz_tab>
    1668:	14cb7e63          	bgeu	s6,a2,17c4 <__moddi3+0x1e8>
    166c:	000107b7          	lui	a5,0x10
    1670:	14f67063          	bgeu	a2,a5,17b0 <__moddi3+0x1d4>
    1674:	0ff00793          	li	a5,255
    1678:	00c7f463          	bgeu	a5,a2,1680 <__moddi3+0xa4>
    167c:	00800993          	li	s3,8
    1680:	013657b3          	srl	a5,a2,s3
    1684:	00fa0a33          	add	s4,s4,a5
    1688:	000a4783          	lbu	a5,0(s4)
    168c:	02000713          	li	a4,32
    1690:	013787b3          	add	a5,a5,s3
    1694:	40f709b3          	sub	s3,a4,a5
    1698:	00f70c63          	beq	a4,a5,16b0 <__moddi3+0xd4>
    169c:	013b15b3          	sll	a1,s6,s3
    16a0:	00fc57b3          	srl	a5,s8,a5
    16a4:	01361ab3          	sll	s5,a2,s3
    16a8:	00b7e933          	or	s2,a5,a1
    16ac:	013c1433          	sll	s0,s8,s3
    16b0:	010adb13          	srli	s6,s5,0x10
    16b4:	000b0593          	mv	a1,s6
    16b8:	00090513          	mv	a0,s2
    16bc:	7a5000ef          	jal	ra,2660 <__umodsi3>
    16c0:	00050a13          	mv	s4,a0
    16c4:	000b0593          	mv	a1,s6
    16c8:	010a9b93          	slli	s7,s5,0x10
    16cc:	00090513          	mv	a0,s2
    16d0:	749000ef          	jal	ra,2618 <__udivsi3>
    16d4:	010bdb93          	srli	s7,s7,0x10
    16d8:	00050593          	mv	a1,a0
    16dc:	000b8513          	mv	a0,s7
    16e0:	70d000ef          	jal	ra,25ec <__mulsi3>
    16e4:	010a1a13          	slli	s4,s4,0x10
    16e8:	01045793          	srli	a5,s0,0x10
    16ec:	00fa67b3          	or	a5,s4,a5
    16f0:	00a7fa63          	bgeu	a5,a0,1704 <__moddi3+0x128>
    16f4:	015787b3          	add	a5,a5,s5
    16f8:	0157e663          	bltu	a5,s5,1704 <__moddi3+0x128>
    16fc:	00a7f463          	bgeu	a5,a0,1704 <__moddi3+0x128>
    1700:	015787b3          	add	a5,a5,s5
    1704:	40a78933          	sub	s2,a5,a0
    1708:	000b0593          	mv	a1,s6
    170c:	00090513          	mv	a0,s2
    1710:	751000ef          	jal	ra,2660 <__umodsi3>
    1714:	00050a13          	mv	s4,a0
    1718:	000b0593          	mv	a1,s6
    171c:	00090513          	mv	a0,s2
    1720:	6f9000ef          	jal	ra,2618 <__udivsi3>
    1724:	01041413          	slli	s0,s0,0x10
    1728:	00050593          	mv	a1,a0
    172c:	010a1a13          	slli	s4,s4,0x10
    1730:	000b8513          	mv	a0,s7
    1734:	01045413          	srli	s0,s0,0x10
    1738:	6b5000ef          	jal	ra,25ec <__mulsi3>
    173c:	008a6433          	or	s0,s4,s0
    1740:	00a47a63          	bgeu	s0,a0,1754 <__moddi3+0x178>
    1744:	01540433          	add	s0,s0,s5
    1748:	01546663          	bltu	s0,s5,1754 <__moddi3+0x178>
    174c:	00a47463          	bgeu	s0,a0,1754 <__moddi3+0x178>
    1750:	01540433          	add	s0,s0,s5
    1754:	40a40433          	sub	s0,s0,a0
    1758:	01345533          	srl	a0,s0,s3
    175c:	00000593          	li	a1,0
    1760:	00048a63          	beqz	s1,1774 <__moddi3+0x198>
    1764:	00a037b3          	snez	a5,a0
    1768:	40b005b3          	neg	a1,a1
    176c:	40f585b3          	sub	a1,a1,a5
    1770:	40a00533          	neg	a0,a0
    1774:	03c12083          	lw	ra,60(sp)
    1778:	03812403          	lw	s0,56(sp)
    177c:	03412483          	lw	s1,52(sp)
    1780:	03012903          	lw	s2,48(sp)
    1784:	02c12983          	lw	s3,44(sp)
    1788:	02812a03          	lw	s4,40(sp)
    178c:	02412a83          	lw	s5,36(sp)
    1790:	02012b03          	lw	s6,32(sp)
    1794:	01c12b83          	lw	s7,28(sp)
    1798:	01812c03          	lw	s8,24(sp)
    179c:	01412c83          	lw	s9,20(sp)
    17a0:	01012d03          	lw	s10,16(sp)
    17a4:	00c12d83          	lw	s11,12(sp)
    17a8:	04010113          	addi	sp,sp,64
    17ac:	00008067          	ret
    17b0:	010007b7          	lui	a5,0x1000
    17b4:	01000993          	li	s3,16
    17b8:	ecf664e3          	bltu	a2,a5,1680 <__moddi3+0xa4>
    17bc:	01800993          	li	s3,24
    17c0:	ec1ff06f          	j	1680 <__moddi3+0xa4>
    17c4:	00061a63          	bnez	a2,17d8 <__moddi3+0x1fc>
    17c8:	00000593          	li	a1,0
    17cc:	00100513          	li	a0,1
    17d0:	649000ef          	jal	ra,2618 <__udivsi3>
    17d4:	00050a93          	mv	s5,a0
    17d8:	000107b7          	lui	a5,0x10
    17dc:	0efafa63          	bgeu	s5,a5,18d0 <__moddi3+0x2f4>
    17e0:	0ff00793          	li	a5,255
    17e4:	0157f463          	bgeu	a5,s5,17ec <__moddi3+0x210>
    17e8:	00800993          	li	s3,8
    17ec:	013ad7b3          	srl	a5,s5,s3
    17f0:	00fa0a33          	add	s4,s4,a5
    17f4:	000a4783          	lbu	a5,0(s4)
    17f8:	02000713          	li	a4,32
    17fc:	415b0933          	sub	s2,s6,s5
    1800:	013787b3          	add	a5,a5,s3
    1804:	40f709b3          	sub	s3,a4,a5
    1808:	eaf704e3          	beq	a4,a5,16b0 <__moddi3+0xd4>
    180c:	013a9ab3          	sll	s5,s5,s3
    1810:	00fb5cb3          	srl	s9,s6,a5
    1814:	010ad913          	srli	s2,s5,0x10
    1818:	00fc57b3          	srl	a5,s8,a5
    181c:	013b16b3          	sll	a3,s6,s3
    1820:	00090593          	mv	a1,s2
    1824:	000c8513          	mv	a0,s9
    1828:	00d7ebb3          	or	s7,a5,a3
    182c:	635000ef          	jal	ra,2660 <__umodsi3>
    1830:	00050a13          	mv	s4,a0
    1834:	00090593          	mv	a1,s2
    1838:	013c1433          	sll	s0,s8,s3
    183c:	000c8513          	mv	a0,s9
    1840:	010a9c13          	slli	s8,s5,0x10
    1844:	5d5000ef          	jal	ra,2618 <__udivsi3>
    1848:	010c5c13          	srli	s8,s8,0x10
    184c:	00050593          	mv	a1,a0
    1850:	000c0513          	mv	a0,s8
    1854:	599000ef          	jal	ra,25ec <__mulsi3>
    1858:	010a1a13          	slli	s4,s4,0x10
    185c:	010bd793          	srli	a5,s7,0x10
    1860:	00fa67b3          	or	a5,s4,a5
    1864:	00a7fa63          	bgeu	a5,a0,1878 <__moddi3+0x29c>
    1868:	015787b3          	add	a5,a5,s5
    186c:	0157e663          	bltu	a5,s5,1878 <__moddi3+0x29c>
    1870:	00a7f463          	bgeu	a5,a0,1878 <__moddi3+0x29c>
    1874:	015787b3          	add	a5,a5,s5
    1878:	40a78b33          	sub	s6,a5,a0
    187c:	00090593          	mv	a1,s2
    1880:	000b0513          	mv	a0,s6
    1884:	5dd000ef          	jal	ra,2660 <__umodsi3>
    1888:	00050a13          	mv	s4,a0
    188c:	00090593          	mv	a1,s2
    1890:	000b0513          	mv	a0,s6
    1894:	585000ef          	jal	ra,2618 <__udivsi3>
    1898:	00050593          	mv	a1,a0
    189c:	000c0513          	mv	a0,s8
    18a0:	54d000ef          	jal	ra,25ec <__mulsi3>
    18a4:	010b9693          	slli	a3,s7,0x10
    18a8:	010a1a13          	slli	s4,s4,0x10
    18ac:	0106d693          	srli	a3,a3,0x10
    18b0:	00da66b3          	or	a3,s4,a3
    18b4:	00a6fa63          	bgeu	a3,a0,18c8 <__moddi3+0x2ec>
    18b8:	015686b3          	add	a3,a3,s5
    18bc:	0156e663          	bltu	a3,s5,18c8 <__moddi3+0x2ec>
    18c0:	00a6f463          	bgeu	a3,a0,18c8 <__moddi3+0x2ec>
    18c4:	015686b3          	add	a3,a3,s5
    18c8:	40a68933          	sub	s2,a3,a0
    18cc:	de5ff06f          	j	16b0 <__moddi3+0xd4>
    18d0:	010007b7          	lui	a5,0x1000
    18d4:	01000993          	li	s3,16
    18d8:	f0faeae3          	bltu	s5,a5,17ec <__moddi3+0x210>
    18dc:	01800993          	li	s3,24
    18e0:	f0dff06f          	j	17ec <__moddi3+0x210>
    18e4:	00db7863          	bgeu	s6,a3,18f4 <__moddi3+0x318>
    18e8:	000c0513          	mv	a0,s8
    18ec:	000b0593          	mv	a1,s6
    18f0:	e71ff06f          	j	1760 <__moddi3+0x184>
    18f4:	000107b7          	lui	a5,0x10
    18f8:	04f6fc63          	bgeu	a3,a5,1950 <__moddi3+0x374>
    18fc:	0ff00a93          	li	s5,255
    1900:	00dab533          	sltu	a0,s5,a3
    1904:	00351513          	slli	a0,a0,0x3
    1908:	00a6d733          	srl	a4,a3,a0
    190c:	00001797          	auipc	a5,0x1
    1910:	f7478793          	addi	a5,a5,-140 # 2880 <__clz_tab>
    1914:	00e787b3          	add	a5,a5,a4
    1918:	0007ca83          	lbu	s5,0(a5)
    191c:	02000793          	li	a5,32
    1920:	00aa8ab3          	add	s5,s5,a0
    1924:	41578a33          	sub	s4,a5,s5
    1928:	03579e63          	bne	a5,s5,1964 <__moddi3+0x388>
    192c:	0166e463          	bltu	a3,s6,1934 <__moddi3+0x358>
    1930:	00cc6a63          	bltu	s8,a2,1944 <__moddi3+0x368>
    1934:	40cc0433          	sub	s0,s8,a2
    1938:	40db06b3          	sub	a3,s6,a3
    193c:	008c35b3          	sltu	a1,s8,s0
    1940:	40b68933          	sub	s2,a3,a1
    1944:	00040513          	mv	a0,s0
    1948:	00090593          	mv	a1,s2
    194c:	e15ff06f          	j	1760 <__moddi3+0x184>
    1950:	010007b7          	lui	a5,0x1000
    1954:	01000513          	li	a0,16
    1958:	faf6e8e3          	bltu	a3,a5,1908 <__moddi3+0x32c>
    195c:	01800513          	li	a0,24
    1960:	fa9ff06f          	j	1908 <__moddi3+0x32c>
    1964:	015657b3          	srl	a5,a2,s5
    1968:	014696b3          	sll	a3,a3,s4
    196c:	00d7ecb3          	or	s9,a5,a3
    1970:	015b59b3          	srl	s3,s6,s5
    1974:	010cdb93          	srli	s7,s9,0x10
    1978:	014b16b3          	sll	a3,s6,s4
    197c:	000b8593          	mv	a1,s7
    1980:	015c5b33          	srl	s6,s8,s5
    1984:	00098513          	mv	a0,s3
    1988:	00db6b33          	or	s6,s6,a3
    198c:	01461d33          	sll	s10,a2,s4
    1990:	4d1000ef          	jal	ra,2660 <__umodsi3>
    1994:	00050913          	mv	s2,a0
    1998:	000b8593          	mv	a1,s7
    199c:	00098513          	mv	a0,s3
    19a0:	014c1433          	sll	s0,s8,s4
    19a4:	010c9c13          	slli	s8,s9,0x10
    19a8:	471000ef          	jal	ra,2618 <__udivsi3>
    19ac:	010c5c13          	srli	s8,s8,0x10
    19b0:	00050993          	mv	s3,a0
    19b4:	00050593          	mv	a1,a0
    19b8:	000c0513          	mv	a0,s8
    19bc:	431000ef          	jal	ra,25ec <__mulsi3>
    19c0:	01091913          	slli	s2,s2,0x10
    19c4:	010b5713          	srli	a4,s6,0x10
    19c8:	00e96733          	or	a4,s2,a4
    19cc:	00098d93          	mv	s11,s3
    19d0:	00a77e63          	bgeu	a4,a0,19ec <__moddi3+0x410>
    19d4:	01970733          	add	a4,a4,s9
    19d8:	fff98d93          	addi	s11,s3,-1
    19dc:	01976863          	bltu	a4,s9,19ec <__moddi3+0x410>
    19e0:	00a77663          	bgeu	a4,a0,19ec <__moddi3+0x410>
    19e4:	ffe98d93          	addi	s11,s3,-2
    19e8:	01970733          	add	a4,a4,s9
    19ec:	40a709b3          	sub	s3,a4,a0
    19f0:	000b8593          	mv	a1,s7
    19f4:	00098513          	mv	a0,s3
    19f8:	469000ef          	jal	ra,2660 <__umodsi3>
    19fc:	00050913          	mv	s2,a0
    1a00:	000b8593          	mv	a1,s7
    1a04:	00098513          	mv	a0,s3
    1a08:	411000ef          	jal	ra,2618 <__udivsi3>
    1a0c:	00050993          	mv	s3,a0
    1a10:	00050593          	mv	a1,a0
    1a14:	000c0513          	mv	a0,s8
    1a18:	3d5000ef          	jal	ra,25ec <__mulsi3>
    1a1c:	010b1693          	slli	a3,s6,0x10
    1a20:	01091913          	slli	s2,s2,0x10
    1a24:	0106d693          	srli	a3,a3,0x10
    1a28:	00d966b3          	or	a3,s2,a3
    1a2c:	00098793          	mv	a5,s3
    1a30:	00a6fe63          	bgeu	a3,a0,1a4c <__moddi3+0x470>
    1a34:	019686b3          	add	a3,a3,s9
    1a38:	fff98793          	addi	a5,s3,-1
    1a3c:	0196e863          	bltu	a3,s9,1a4c <__moddi3+0x470>
    1a40:	00a6f663          	bgeu	a3,a0,1a4c <__moddi3+0x470>
    1a44:	ffe98793          	addi	a5,s3,-2
    1a48:	019686b3          	add	a3,a3,s9
    1a4c:	00010337          	lui	t1,0x10
    1a50:	010d9d93          	slli	s11,s11,0x10
    1a54:	00fdedb3          	or	s11,s11,a5
    1a58:	fff30813          	addi	a6,t1,-1 # ffff <__global_pointer$+0xce7f>
    1a5c:	010df733          	and	a4,s11,a6
    1a60:	010d7833          	and	a6,s10,a6
    1a64:	40a68b33          	sub	s6,a3,a0
    1a68:	010ddd93          	srli	s11,s11,0x10
    1a6c:	010d5893          	srli	a7,s10,0x10
    1a70:	00070513          	mv	a0,a4
    1a74:	00080593          	mv	a1,a6
    1a78:	375000ef          	jal	ra,25ec <__mulsi3>
    1a7c:	00050793          	mv	a5,a0
    1a80:	00088593          	mv	a1,a7
    1a84:	00070513          	mv	a0,a4
    1a88:	365000ef          	jal	ra,25ec <__mulsi3>
    1a8c:	00050713          	mv	a4,a0
    1a90:	00080593          	mv	a1,a6
    1a94:	000d8513          	mv	a0,s11
    1a98:	355000ef          	jal	ra,25ec <__mulsi3>
    1a9c:	00050813          	mv	a6,a0
    1aa0:	00088593          	mv	a1,a7
    1aa4:	000d8513          	mv	a0,s11
    1aa8:	345000ef          	jal	ra,25ec <__mulsi3>
    1aac:	01070733          	add	a4,a4,a6
    1ab0:	0107d693          	srli	a3,a5,0x10
    1ab4:	00d70733          	add	a4,a4,a3
    1ab8:	01077463          	bgeu	a4,a6,1ac0 <__moddi3+0x4e4>
    1abc:	00650533          	add	a0,a0,t1
    1ac0:	01075593          	srli	a1,a4,0x10
    1ac4:	00a585b3          	add	a1,a1,a0
    1ac8:	00010537          	lui	a0,0x10
    1acc:	fff50513          	addi	a0,a0,-1 # ffff <__global_pointer$+0xce7f>
    1ad0:	00a77733          	and	a4,a4,a0
    1ad4:	01071713          	slli	a4,a4,0x10
    1ad8:	00a7f7b3          	and	a5,a5,a0
    1adc:	00f707b3          	add	a5,a4,a5
    1ae0:	00bb6663          	bltu	s6,a1,1aec <__moddi3+0x510>
    1ae4:	00bb1e63          	bne	s6,a1,1b00 <__moddi3+0x524>
    1ae8:	00f47c63          	bgeu	s0,a5,1b00 <__moddi3+0x524>
    1aec:	41a78633          	sub	a2,a5,s10
    1af0:	00c7b7b3          	sltu	a5,a5,a2
    1af4:	019787b3          	add	a5,a5,s9
    1af8:	40f585b3          	sub	a1,a1,a5
    1afc:	00060793          	mv	a5,a2
    1b00:	40f407b3          	sub	a5,s0,a5
    1b04:	00f43433          	sltu	s0,s0,a5
    1b08:	40bb05b3          	sub	a1,s6,a1
    1b0c:	408585b3          	sub	a1,a1,s0
    1b10:	01559433          	sll	s0,a1,s5
    1b14:	0147d7b3          	srl	a5,a5,s4
    1b18:	00f46533          	or	a0,s0,a5
    1b1c:	0145d5b3          	srl	a1,a1,s4
    1b20:	c41ff06f          	j	1760 <__moddi3+0x184>

00001b24 <__udivdi3>:
    1b24:	fd010113          	addi	sp,sp,-48
    1b28:	02812423          	sw	s0,40(sp)
    1b2c:	01712623          	sw	s7,12(sp)
    1b30:	02112623          	sw	ra,44(sp)
    1b34:	02912223          	sw	s1,36(sp)
    1b38:	03212023          	sw	s2,32(sp)
    1b3c:	01312e23          	sw	s3,28(sp)
    1b40:	01412c23          	sw	s4,24(sp)
    1b44:	01512a23          	sw	s5,20(sp)
    1b48:	01612823          	sw	s6,16(sp)
    1b4c:	01812423          	sw	s8,8(sp)
    1b50:	01912223          	sw	s9,4(sp)
    1b54:	00050b93          	mv	s7,a0
    1b58:	00058413          	mv	s0,a1
    1b5c:	38069c63          	bnez	a3,1ef4 <__udivdi3+0x3d0>
    1b60:	00060913          	mv	s2,a2
    1b64:	00050a13          	mv	s4,a0
    1b68:	00001497          	auipc	s1,0x1
    1b6c:	d1848493          	addi	s1,s1,-744 # 2880 <__clz_tab>
    1b70:	12c5f863          	bgeu	a1,a2,1ca0 <__udivdi3+0x17c>
    1b74:	000107b7          	lui	a5,0x10
    1b78:	00058c13          	mv	s8,a1
    1b7c:	10f67863          	bgeu	a2,a5,1c8c <__udivdi3+0x168>
    1b80:	0ff00793          	li	a5,255
    1b84:	00c7b7b3          	sltu	a5,a5,a2
    1b88:	00379793          	slli	a5,a5,0x3
    1b8c:	00f65733          	srl	a4,a2,a5
    1b90:	00e484b3          	add	s1,s1,a4
    1b94:	0004c703          	lbu	a4,0(s1)
    1b98:	02000693          	li	a3,32
    1b9c:	00f707b3          	add	a5,a4,a5
    1ba0:	40f68733          	sub	a4,a3,a5
    1ba4:	00f68c63          	beq	a3,a5,1bbc <__udivdi3+0x98>
    1ba8:	00e41433          	sll	s0,s0,a4
    1bac:	00fbd7b3          	srl	a5,s7,a5
    1bb0:	00e61933          	sll	s2,a2,a4
    1bb4:	0087ec33          	or	s8,a5,s0
    1bb8:	00eb9a33          	sll	s4,s7,a4
    1bbc:	01095b13          	srli	s6,s2,0x10
    1bc0:	000b0593          	mv	a1,s6
    1bc4:	000c0513          	mv	a0,s8
    1bc8:	299000ef          	jal	ra,2660 <__umodsi3>
    1bcc:	00050493          	mv	s1,a0
    1bd0:	000b0593          	mv	a1,s6
    1bd4:	01091a93          	slli	s5,s2,0x10
    1bd8:	000c0513          	mv	a0,s8
    1bdc:	23d000ef          	jal	ra,2618 <__udivsi3>
    1be0:	010ada93          	srli	s5,s5,0x10
    1be4:	00050413          	mv	s0,a0
    1be8:	00050593          	mv	a1,a0
    1bec:	000a8513          	mv	a0,s5
    1bf0:	1fd000ef          	jal	ra,25ec <__mulsi3>
    1bf4:	01049493          	slli	s1,s1,0x10
    1bf8:	010a5713          	srli	a4,s4,0x10
    1bfc:	00e4e733          	or	a4,s1,a4
    1c00:	00040993          	mv	s3,s0
    1c04:	00a77e63          	bgeu	a4,a0,1c20 <__udivdi3+0xfc>
    1c08:	01270733          	add	a4,a4,s2
    1c0c:	fff40993          	addi	s3,s0,-1
    1c10:	01276863          	bltu	a4,s2,1c20 <__udivdi3+0xfc>
    1c14:	00a77663          	bgeu	a4,a0,1c20 <__udivdi3+0xfc>
    1c18:	ffe40993          	addi	s3,s0,-2
    1c1c:	01270733          	add	a4,a4,s2
    1c20:	40a70433          	sub	s0,a4,a0
    1c24:	000b0593          	mv	a1,s6
    1c28:	00040513          	mv	a0,s0
    1c2c:	235000ef          	jal	ra,2660 <__umodsi3>
    1c30:	00050493          	mv	s1,a0
    1c34:	000b0593          	mv	a1,s6
    1c38:	00040513          	mv	a0,s0
    1c3c:	1dd000ef          	jal	ra,2618 <__udivsi3>
    1c40:	010a1a13          	slli	s4,s4,0x10
    1c44:	00050413          	mv	s0,a0
    1c48:	00050593          	mv	a1,a0
    1c4c:	01049493          	slli	s1,s1,0x10
    1c50:	000a8513          	mv	a0,s5
    1c54:	010a5a13          	srli	s4,s4,0x10
    1c58:	195000ef          	jal	ra,25ec <__mulsi3>
    1c5c:	0144ea33          	or	s4,s1,s4
    1c60:	00040613          	mv	a2,s0
    1c64:	00aa7c63          	bgeu	s4,a0,1c7c <__udivdi3+0x158>
    1c68:	01490a33          	add	s4,s2,s4
    1c6c:	fff40613          	addi	a2,s0,-1
    1c70:	012a6663          	bltu	s4,s2,1c7c <__udivdi3+0x158>
    1c74:	00aa7463          	bgeu	s4,a0,1c7c <__udivdi3+0x158>
    1c78:	ffe40613          	addi	a2,s0,-2
    1c7c:	01099793          	slli	a5,s3,0x10
    1c80:	00c7e7b3          	or	a5,a5,a2
    1c84:	00000993          	li	s3,0
    1c88:	1300006f          	j	1db8 <__udivdi3+0x294>
    1c8c:	01000737          	lui	a4,0x1000
    1c90:	01000793          	li	a5,16
    1c94:	eee66ce3          	bltu	a2,a4,1b8c <__udivdi3+0x68>
    1c98:	01800793          	li	a5,24
    1c9c:	ef1ff06f          	j	1b8c <__udivdi3+0x68>
    1ca0:	00068993          	mv	s3,a3
    1ca4:	00061a63          	bnez	a2,1cb8 <__udivdi3+0x194>
    1ca8:	00000593          	li	a1,0
    1cac:	00100513          	li	a0,1
    1cb0:	169000ef          	jal	ra,2618 <__udivsi3>
    1cb4:	00050913          	mv	s2,a0
    1cb8:	000107b7          	lui	a5,0x10
    1cbc:	12f97c63          	bgeu	s2,a5,1df4 <__udivdi3+0x2d0>
    1cc0:	0ff00793          	li	a5,255
    1cc4:	0127f463          	bgeu	a5,s2,1ccc <__udivdi3+0x1a8>
    1cc8:	00800993          	li	s3,8
    1ccc:	013957b3          	srl	a5,s2,s3
    1cd0:	00f484b3          	add	s1,s1,a5
    1cd4:	0004c783          	lbu	a5,0(s1)
    1cd8:	02000693          	li	a3,32
    1cdc:	013787b3          	add	a5,a5,s3
    1ce0:	40f68733          	sub	a4,a3,a5
    1ce4:	12f69263          	bne	a3,a5,1e08 <__udivdi3+0x2e4>
    1ce8:	41240433          	sub	s0,s0,s2
    1cec:	00100993          	li	s3,1
    1cf0:	01095a93          	srli	s5,s2,0x10
    1cf4:	000a8593          	mv	a1,s5
    1cf8:	00040513          	mv	a0,s0
    1cfc:	165000ef          	jal	ra,2660 <__umodsi3>
    1d00:	00050493          	mv	s1,a0
    1d04:	000a8593          	mv	a1,s5
    1d08:	00040513          	mv	a0,s0
    1d0c:	01091b13          	slli	s6,s2,0x10
    1d10:	109000ef          	jal	ra,2618 <__udivsi3>
    1d14:	010b5b13          	srli	s6,s6,0x10
    1d18:	00050413          	mv	s0,a0
    1d1c:	00050593          	mv	a1,a0
    1d20:	000b0513          	mv	a0,s6
    1d24:	0c9000ef          	jal	ra,25ec <__mulsi3>
    1d28:	01049493          	slli	s1,s1,0x10
    1d2c:	010a5713          	srli	a4,s4,0x10
    1d30:	00e4e733          	or	a4,s1,a4
    1d34:	00040b93          	mv	s7,s0
    1d38:	00a77e63          	bgeu	a4,a0,1d54 <__udivdi3+0x230>
    1d3c:	01270733          	add	a4,a4,s2
    1d40:	fff40b93          	addi	s7,s0,-1
    1d44:	01276863          	bltu	a4,s2,1d54 <__udivdi3+0x230>
    1d48:	00a77663          	bgeu	a4,a0,1d54 <__udivdi3+0x230>
    1d4c:	ffe40b93          	addi	s7,s0,-2
    1d50:	01270733          	add	a4,a4,s2
    1d54:	40a70433          	sub	s0,a4,a0
    1d58:	000a8593          	mv	a1,s5
    1d5c:	00040513          	mv	a0,s0
    1d60:	101000ef          	jal	ra,2660 <__umodsi3>
    1d64:	00050493          	mv	s1,a0
    1d68:	000a8593          	mv	a1,s5
    1d6c:	00040513          	mv	a0,s0
    1d70:	0a9000ef          	jal	ra,2618 <__udivsi3>
    1d74:	010a1a13          	slli	s4,s4,0x10
    1d78:	00050413          	mv	s0,a0
    1d7c:	00050593          	mv	a1,a0
    1d80:	01049493          	slli	s1,s1,0x10
    1d84:	000b0513          	mv	a0,s6
    1d88:	010a5a13          	srli	s4,s4,0x10
    1d8c:	061000ef          	jal	ra,25ec <__mulsi3>
    1d90:	0144ea33          	or	s4,s1,s4
    1d94:	00040613          	mv	a2,s0
    1d98:	00aa7c63          	bgeu	s4,a0,1db0 <__udivdi3+0x28c>
    1d9c:	01490a33          	add	s4,s2,s4
    1da0:	fff40613          	addi	a2,s0,-1
    1da4:	012a6663          	bltu	s4,s2,1db0 <__udivdi3+0x28c>
    1da8:	00aa7463          	bgeu	s4,a0,1db0 <__udivdi3+0x28c>
    1dac:	ffe40613          	addi	a2,s0,-2
    1db0:	010b9793          	slli	a5,s7,0x10
    1db4:	00c7e7b3          	or	a5,a5,a2
    1db8:	00078513          	mv	a0,a5
    1dbc:	00098593          	mv	a1,s3
    1dc0:	02c12083          	lw	ra,44(sp)
    1dc4:	02812403          	lw	s0,40(sp)
    1dc8:	02412483          	lw	s1,36(sp)
    1dcc:	02012903          	lw	s2,32(sp)
    1dd0:	01c12983          	lw	s3,28(sp)
    1dd4:	01812a03          	lw	s4,24(sp)
    1dd8:	01412a83          	lw	s5,20(sp)
    1ddc:	01012b03          	lw	s6,16(sp)
    1de0:	00c12b83          	lw	s7,12(sp)
    1de4:	00812c03          	lw	s8,8(sp)
    1de8:	00412c83          	lw	s9,4(sp)
    1dec:	03010113          	addi	sp,sp,48
    1df0:	00008067          	ret
    1df4:	010007b7          	lui	a5,0x1000
    1df8:	01000993          	li	s3,16
    1dfc:	ecf968e3          	bltu	s2,a5,1ccc <__udivdi3+0x1a8>
    1e00:	01800993          	li	s3,24
    1e04:	ec9ff06f          	j	1ccc <__udivdi3+0x1a8>
    1e08:	00e91933          	sll	s2,s2,a4
    1e0c:	00f459b3          	srl	s3,s0,a5
    1e10:	00fbd7b3          	srl	a5,s7,a5
    1e14:	00e41433          	sll	s0,s0,a4
    1e18:	0087eb33          	or	s6,a5,s0
    1e1c:	01095413          	srli	s0,s2,0x10
    1e20:	00040593          	mv	a1,s0
    1e24:	00098513          	mv	a0,s3
    1e28:	00eb9a33          	sll	s4,s7,a4
    1e2c:	035000ef          	jal	ra,2660 <__umodsi3>
    1e30:	00050493          	mv	s1,a0
    1e34:	00040593          	mv	a1,s0
    1e38:	00098513          	mv	a0,s3
    1e3c:	01091b93          	slli	s7,s2,0x10
    1e40:	7d8000ef          	jal	ra,2618 <__udivsi3>
    1e44:	010bdb93          	srli	s7,s7,0x10
    1e48:	00050a93          	mv	s5,a0
    1e4c:	00050593          	mv	a1,a0
    1e50:	000b8513          	mv	a0,s7
    1e54:	798000ef          	jal	ra,25ec <__mulsi3>
    1e58:	01049493          	slli	s1,s1,0x10
    1e5c:	010b5793          	srli	a5,s6,0x10
    1e60:	00f4e7b3          	or	a5,s1,a5
    1e64:	000a8993          	mv	s3,s5
    1e68:	00a7fe63          	bgeu	a5,a0,1e84 <__udivdi3+0x360>
    1e6c:	012787b3          	add	a5,a5,s2
    1e70:	fffa8993          	addi	s3,s5,-1
    1e74:	0127e863          	bltu	a5,s2,1e84 <__udivdi3+0x360>
    1e78:	00a7f663          	bgeu	a5,a0,1e84 <__udivdi3+0x360>
    1e7c:	ffea8993          	addi	s3,s5,-2
    1e80:	012787b3          	add	a5,a5,s2
    1e84:	40a78ab3          	sub	s5,a5,a0
    1e88:	00040593          	mv	a1,s0
    1e8c:	000a8513          	mv	a0,s5
    1e90:	7d0000ef          	jal	ra,2660 <__umodsi3>
    1e94:	00040593          	mv	a1,s0
    1e98:	00050493          	mv	s1,a0
    1e9c:	000a8513          	mv	a0,s5
    1ea0:	778000ef          	jal	ra,2618 <__udivsi3>
    1ea4:	010b1413          	slli	s0,s6,0x10
    1ea8:	00050a93          	mv	s5,a0
    1eac:	00050593          	mv	a1,a0
    1eb0:	01049493          	slli	s1,s1,0x10
    1eb4:	000b8513          	mv	a0,s7
    1eb8:	01045413          	srli	s0,s0,0x10
    1ebc:	730000ef          	jal	ra,25ec <__mulsi3>
    1ec0:	0084e433          	or	s0,s1,s0
    1ec4:	000a8793          	mv	a5,s5
    1ec8:	00a47e63          	bgeu	s0,a0,1ee4 <__udivdi3+0x3c0>
    1ecc:	01240433          	add	s0,s0,s2
    1ed0:	fffa8793          	addi	a5,s5,-1
    1ed4:	01246863          	bltu	s0,s2,1ee4 <__udivdi3+0x3c0>
    1ed8:	00a47663          	bgeu	s0,a0,1ee4 <__udivdi3+0x3c0>
    1edc:	ffea8793          	addi	a5,s5,-2
    1ee0:	01240433          	add	s0,s0,s2
    1ee4:	01099993          	slli	s3,s3,0x10
    1ee8:	40a40433          	sub	s0,s0,a0
    1eec:	00f9e9b3          	or	s3,s3,a5
    1ef0:	e01ff06f          	j	1cf0 <__udivdi3+0x1cc>
    1ef4:	1ed5ee63          	bltu	a1,a3,20f0 <__udivdi3+0x5cc>
    1ef8:	000107b7          	lui	a5,0x10
    1efc:	04f6f463          	bgeu	a3,a5,1f44 <__udivdi3+0x420>
    1f00:	0ff00a93          	li	s5,255
    1f04:	00dab7b3          	sltu	a5,s5,a3
    1f08:	00379793          	slli	a5,a5,0x3
    1f0c:	00f6d5b3          	srl	a1,a3,a5
    1f10:	00001717          	auipc	a4,0x1
    1f14:	97070713          	addi	a4,a4,-1680 # 2880 <__clz_tab>
    1f18:	00b70733          	add	a4,a4,a1
    1f1c:	00074a83          	lbu	s5,0(a4)
    1f20:	00fa8ab3          	add	s5,s5,a5
    1f24:	02000793          	li	a5,32
    1f28:	415789b3          	sub	s3,a5,s5
    1f2c:	03579663          	bne	a5,s5,1f58 <__udivdi3+0x434>
    1f30:	00100793          	li	a5,1
    1f34:	e886e2e3          	bltu	a3,s0,1db8 <__udivdi3+0x294>
    1f38:	00cbb633          	sltu	a2,s7,a2
    1f3c:	00164793          	xori	a5,a2,1
    1f40:	e79ff06f          	j	1db8 <__udivdi3+0x294>
    1f44:	01000737          	lui	a4,0x1000
    1f48:	01000793          	li	a5,16
    1f4c:	fce6e0e3          	bltu	a3,a4,1f0c <__udivdi3+0x3e8>
    1f50:	01800793          	li	a5,24
    1f54:	fb9ff06f          	j	1f0c <__udivdi3+0x3e8>
    1f58:	01565cb3          	srl	s9,a2,s5
    1f5c:	013696b3          	sll	a3,a3,s3
    1f60:	00dcecb3          	or	s9,s9,a3
    1f64:	01545933          	srl	s2,s0,s5
    1f68:	01341433          	sll	s0,s0,s3
    1f6c:	015bdab3          	srl	s5,s7,s5
    1f70:	008aeab3          	or	s5,s5,s0
    1f74:	010cd413          	srli	s0,s9,0x10
    1f78:	00040593          	mv	a1,s0
    1f7c:	00090513          	mv	a0,s2
    1f80:	013614b3          	sll	s1,a2,s3
    1f84:	6dc000ef          	jal	ra,2660 <__umodsi3>
    1f88:	00050a13          	mv	s4,a0
    1f8c:	00040593          	mv	a1,s0
    1f90:	00090513          	mv	a0,s2
    1f94:	010c9b13          	slli	s6,s9,0x10
    1f98:	680000ef          	jal	ra,2618 <__udivsi3>
    1f9c:	010b5b13          	srli	s6,s6,0x10
    1fa0:	00050913          	mv	s2,a0
    1fa4:	00050593          	mv	a1,a0
    1fa8:	000b0513          	mv	a0,s6
    1fac:	640000ef          	jal	ra,25ec <__mulsi3>
    1fb0:	010a1a13          	slli	s4,s4,0x10
    1fb4:	010ad713          	srli	a4,s5,0x10
    1fb8:	00ea6733          	or	a4,s4,a4
    1fbc:	00090c13          	mv	s8,s2
    1fc0:	00a77e63          	bgeu	a4,a0,1fdc <__udivdi3+0x4b8>
    1fc4:	01970733          	add	a4,a4,s9
    1fc8:	fff90c13          	addi	s8,s2,-1
    1fcc:	01976863          	bltu	a4,s9,1fdc <__udivdi3+0x4b8>
    1fd0:	00a77663          	bgeu	a4,a0,1fdc <__udivdi3+0x4b8>
    1fd4:	ffe90c13          	addi	s8,s2,-2
    1fd8:	01970733          	add	a4,a4,s9
    1fdc:	40a70933          	sub	s2,a4,a0
    1fe0:	00040593          	mv	a1,s0
    1fe4:	00090513          	mv	a0,s2
    1fe8:	678000ef          	jal	ra,2660 <__umodsi3>
    1fec:	00040593          	mv	a1,s0
    1ff0:	00050a13          	mv	s4,a0
    1ff4:	00090513          	mv	a0,s2
    1ff8:	620000ef          	jal	ra,2618 <__udivsi3>
    1ffc:	010a9413          	slli	s0,s5,0x10
    2000:	00050913          	mv	s2,a0
    2004:	00050593          	mv	a1,a0
    2008:	010a1a13          	slli	s4,s4,0x10
    200c:	000b0513          	mv	a0,s6
    2010:	01045413          	srli	s0,s0,0x10
    2014:	5d8000ef          	jal	ra,25ec <__mulsi3>
    2018:	008a6433          	or	s0,s4,s0
    201c:	00090613          	mv	a2,s2
    2020:	00a47e63          	bgeu	s0,a0,203c <__udivdi3+0x518>
    2024:	01940433          	add	s0,s0,s9
    2028:	fff90613          	addi	a2,s2,-1
    202c:	01946863          	bltu	s0,s9,203c <__udivdi3+0x518>
    2030:	00a47663          	bgeu	s0,a0,203c <__udivdi3+0x518>
    2034:	ffe90613          	addi	a2,s2,-2
    2038:	01940433          	add	s0,s0,s9
    203c:	010c1793          	slli	a5,s8,0x10
    2040:	00010e37          	lui	t3,0x10
    2044:	00c7e7b3          	or	a5,a5,a2
    2048:	fffe0313          	addi	t1,t3,-1 # ffff <__global_pointer$+0xce7f>
    204c:	0067f8b3          	and	a7,a5,t1
    2050:	0064f333          	and	t1,s1,t1
    2054:	40a40433          	sub	s0,s0,a0
    2058:	0107de93          	srli	t4,a5,0x10
    205c:	0104d493          	srli	s1,s1,0x10
    2060:	00088513          	mv	a0,a7
    2064:	00030593          	mv	a1,t1
    2068:	584000ef          	jal	ra,25ec <__mulsi3>
    206c:	00050813          	mv	a6,a0
    2070:	00048593          	mv	a1,s1
    2074:	00088513          	mv	a0,a7
    2078:	574000ef          	jal	ra,25ec <__mulsi3>
    207c:	00050893          	mv	a7,a0
    2080:	00030593          	mv	a1,t1
    2084:	000e8513          	mv	a0,t4
    2088:	564000ef          	jal	ra,25ec <__mulsi3>
    208c:	00050313          	mv	t1,a0
    2090:	00048593          	mv	a1,s1
    2094:	000e8513          	mv	a0,t4
    2098:	554000ef          	jal	ra,25ec <__mulsi3>
    209c:	01085713          	srli	a4,a6,0x10
    20a0:	006888b3          	add	a7,a7,t1
    20a4:	01170733          	add	a4,a4,a7
    20a8:	00050693          	mv	a3,a0
    20ac:	00677463          	bgeu	a4,t1,20b4 <__udivdi3+0x590>
    20b0:	01c506b3          	add	a3,a0,t3
    20b4:	01075513          	srli	a0,a4,0x10
    20b8:	00d506b3          	add	a3,a0,a3
    20bc:	02d46663          	bltu	s0,a3,20e8 <__udivdi3+0x5c4>
    20c0:	bcd412e3          	bne	s0,a3,1c84 <__udivdi3+0x160>
    20c4:	00010537          	lui	a0,0x10
    20c8:	fff50513          	addi	a0,a0,-1 # ffff <__global_pointer$+0xce7f>
    20cc:	00a77733          	and	a4,a4,a0
    20d0:	01071713          	slli	a4,a4,0x10
    20d4:	00a87833          	and	a6,a6,a0
    20d8:	013b9bb3          	sll	s7,s7,s3
    20dc:	01070733          	add	a4,a4,a6
    20e0:	00000993          	li	s3,0
    20e4:	ccebfae3          	bgeu	s7,a4,1db8 <__udivdi3+0x294>
    20e8:	fff78793          	addi	a5,a5,-1 # ffff <__global_pointer$+0xce7f>
    20ec:	b99ff06f          	j	1c84 <__udivdi3+0x160>
    20f0:	00000993          	li	s3,0
    20f4:	00000793          	li	a5,0
    20f8:	cc1ff06f          	j	1db8 <__udivdi3+0x294>

000020fc <__umoddi3>:
    20fc:	fd010113          	addi	sp,sp,-48
    2100:	02812423          	sw	s0,40(sp)
    2104:	02912223          	sw	s1,36(sp)
    2108:	03212023          	sw	s2,32(sp)
    210c:	01612823          	sw	s6,16(sp)
    2110:	02112623          	sw	ra,44(sp)
    2114:	01312e23          	sw	s3,28(sp)
    2118:	01412c23          	sw	s4,24(sp)
    211c:	01512a23          	sw	s5,20(sp)
    2120:	01712623          	sw	s7,12(sp)
    2124:	01812423          	sw	s8,8(sp)
    2128:	01912223          	sw	s9,4(sp)
    212c:	01a12023          	sw	s10,0(sp)
    2130:	00050913          	mv	s2,a0
    2134:	00058b13          	mv	s6,a1
    2138:	00050413          	mv	s0,a0
    213c:	00058493          	mv	s1,a1
    2140:	26069c63          	bnez	a3,23b8 <__umoddi3+0x2bc>
    2144:	00060a13          	mv	s4,a2
    2148:	00068993          	mv	s3,a3
    214c:	00000a97          	auipc	s5,0x0
    2150:	734a8a93          	addi	s5,s5,1844 # 2880 <__clz_tab>
    2154:	14c5f263          	bgeu	a1,a2,2298 <__umoddi3+0x19c>
    2158:	000107b7          	lui	a5,0x10
    215c:	12f67463          	bgeu	a2,a5,2284 <__umoddi3+0x188>
    2160:	0ff00793          	li	a5,255
    2164:	00c7f463          	bgeu	a5,a2,216c <__umoddi3+0x70>
    2168:	00800993          	li	s3,8
    216c:	013657b3          	srl	a5,a2,s3
    2170:	00fa8ab3          	add	s5,s5,a5
    2174:	000ac783          	lbu	a5,0(s5)
    2178:	02000713          	li	a4,32
    217c:	013787b3          	add	a5,a5,s3
    2180:	40f709b3          	sub	s3,a4,a5
    2184:	00f70c63          	beq	a4,a5,219c <__umoddi3+0xa0>
    2188:	013b15b3          	sll	a1,s6,s3
    218c:	00f957b3          	srl	a5,s2,a5
    2190:	01361a33          	sll	s4,a2,s3
    2194:	00b7e4b3          	or	s1,a5,a1
    2198:	01391433          	sll	s0,s2,s3
    219c:	010a5a93          	srli	s5,s4,0x10
    21a0:	000a8593          	mv	a1,s5
    21a4:	00048513          	mv	a0,s1
    21a8:	4b8000ef          	jal	ra,2660 <__umodsi3>
    21ac:	00050913          	mv	s2,a0
    21b0:	000a8593          	mv	a1,s5
    21b4:	010a1b13          	slli	s6,s4,0x10
    21b8:	00048513          	mv	a0,s1
    21bc:	45c000ef          	jal	ra,2618 <__udivsi3>
    21c0:	010b5b13          	srli	s6,s6,0x10
    21c4:	00050593          	mv	a1,a0
    21c8:	000b0513          	mv	a0,s6
    21cc:	420000ef          	jal	ra,25ec <__mulsi3>
    21d0:	01091913          	slli	s2,s2,0x10
    21d4:	01045793          	srli	a5,s0,0x10
    21d8:	00f967b3          	or	a5,s2,a5
    21dc:	00a7fa63          	bgeu	a5,a0,21f0 <__umoddi3+0xf4>
    21e0:	014787b3          	add	a5,a5,s4
    21e4:	0147e663          	bltu	a5,s4,21f0 <__umoddi3+0xf4>
    21e8:	00a7f463          	bgeu	a5,a0,21f0 <__umoddi3+0xf4>
    21ec:	014787b3          	add	a5,a5,s4
    21f0:	40a784b3          	sub	s1,a5,a0
    21f4:	000a8593          	mv	a1,s5
    21f8:	00048513          	mv	a0,s1
    21fc:	464000ef          	jal	ra,2660 <__umodsi3>
    2200:	00050913          	mv	s2,a0
    2204:	000a8593          	mv	a1,s5
    2208:	00048513          	mv	a0,s1
    220c:	40c000ef          	jal	ra,2618 <__udivsi3>
    2210:	01041413          	slli	s0,s0,0x10
    2214:	00050593          	mv	a1,a0
    2218:	01091913          	slli	s2,s2,0x10
    221c:	000b0513          	mv	a0,s6
    2220:	01045413          	srli	s0,s0,0x10
    2224:	3c8000ef          	jal	ra,25ec <__mulsi3>
    2228:	00896433          	or	s0,s2,s0
    222c:	00a47a63          	bgeu	s0,a0,2240 <__umoddi3+0x144>
    2230:	01440433          	add	s0,s0,s4
    2234:	01446663          	bltu	s0,s4,2240 <__umoddi3+0x144>
    2238:	00a47463          	bgeu	s0,a0,2240 <__umoddi3+0x144>
    223c:	01440433          	add	s0,s0,s4
    2240:	40a40433          	sub	s0,s0,a0
    2244:	01345533          	srl	a0,s0,s3
    2248:	00000593          	li	a1,0
    224c:	02c12083          	lw	ra,44(sp)
    2250:	02812403          	lw	s0,40(sp)
    2254:	02412483          	lw	s1,36(sp)
    2258:	02012903          	lw	s2,32(sp)
    225c:	01c12983          	lw	s3,28(sp)
    2260:	01812a03          	lw	s4,24(sp)
    2264:	01412a83          	lw	s5,20(sp)
    2268:	01012b03          	lw	s6,16(sp)
    226c:	00c12b83          	lw	s7,12(sp)
    2270:	00812c03          	lw	s8,8(sp)
    2274:	00412c83          	lw	s9,4(sp)
    2278:	00012d03          	lw	s10,0(sp)
    227c:	03010113          	addi	sp,sp,48
    2280:	00008067          	ret
    2284:	010007b7          	lui	a5,0x1000
    2288:	01000993          	li	s3,16
    228c:	eef660e3          	bltu	a2,a5,216c <__umoddi3+0x70>
    2290:	01800993          	li	s3,24
    2294:	ed9ff06f          	j	216c <__umoddi3+0x70>
    2298:	00061a63          	bnez	a2,22ac <__umoddi3+0x1b0>
    229c:	00000593          	li	a1,0
    22a0:	00100513          	li	a0,1
    22a4:	374000ef          	jal	ra,2618 <__udivsi3>
    22a8:	00050a13          	mv	s4,a0
    22ac:	000107b7          	lui	a5,0x10
    22b0:	0efa7a63          	bgeu	s4,a5,23a4 <__umoddi3+0x2a8>
    22b4:	0ff00793          	li	a5,255
    22b8:	0147f463          	bgeu	a5,s4,22c0 <__umoddi3+0x1c4>
    22bc:	00800993          	li	s3,8
    22c0:	013a57b3          	srl	a5,s4,s3
    22c4:	00fa8ab3          	add	s5,s5,a5
    22c8:	000ac783          	lbu	a5,0(s5)
    22cc:	02000713          	li	a4,32
    22d0:	414b04b3          	sub	s1,s6,s4
    22d4:	013787b3          	add	a5,a5,s3
    22d8:	40f709b3          	sub	s3,a4,a5
    22dc:	ecf700e3          	beq	a4,a5,219c <__umoddi3+0xa0>
    22e0:	013a1a33          	sll	s4,s4,s3
    22e4:	00fb5ab3          	srl	s5,s6,a5
    22e8:	013b15b3          	sll	a1,s6,s3
    22ec:	00f957b3          	srl	a5,s2,a5
    22f0:	010a5493          	srli	s1,s4,0x10
    22f4:	00b7eb33          	or	s6,a5,a1
    22f8:	000a8513          	mv	a0,s5
    22fc:	00048593          	mv	a1,s1
    2300:	360000ef          	jal	ra,2660 <__umodsi3>
    2304:	00048593          	mv	a1,s1
    2308:	01391433          	sll	s0,s2,s3
    230c:	010a1b93          	slli	s7,s4,0x10
    2310:	00050913          	mv	s2,a0
    2314:	000a8513          	mv	a0,s5
    2318:	300000ef          	jal	ra,2618 <__udivsi3>
    231c:	010bdb93          	srli	s7,s7,0x10
    2320:	00050593          	mv	a1,a0
    2324:	000b8513          	mv	a0,s7
    2328:	2c4000ef          	jal	ra,25ec <__mulsi3>
    232c:	01091913          	slli	s2,s2,0x10
    2330:	010b5793          	srli	a5,s6,0x10
    2334:	00f967b3          	or	a5,s2,a5
    2338:	00a7fa63          	bgeu	a5,a0,234c <__umoddi3+0x250>
    233c:	014787b3          	add	a5,a5,s4
    2340:	0147e663          	bltu	a5,s4,234c <__umoddi3+0x250>
    2344:	00a7f463          	bgeu	a5,a0,234c <__umoddi3+0x250>
    2348:	014787b3          	add	a5,a5,s4
    234c:	40a78ab3          	sub	s5,a5,a0
    2350:	00048593          	mv	a1,s1
    2354:	000a8513          	mv	a0,s5
    2358:	308000ef          	jal	ra,2660 <__umodsi3>
    235c:	00050913          	mv	s2,a0
    2360:	00048593          	mv	a1,s1
    2364:	000a8513          	mv	a0,s5
    2368:	2b0000ef          	jal	ra,2618 <__udivsi3>
    236c:	00050593          	mv	a1,a0
    2370:	000b8513          	mv	a0,s7
    2374:	278000ef          	jal	ra,25ec <__mulsi3>
    2378:	010b1593          	slli	a1,s6,0x10
    237c:	01091913          	slli	s2,s2,0x10
    2380:	0105d593          	srli	a1,a1,0x10
    2384:	00b965b3          	or	a1,s2,a1
    2388:	00a5fa63          	bgeu	a1,a0,239c <__umoddi3+0x2a0>
    238c:	014585b3          	add	a1,a1,s4
    2390:	0145e663          	bltu	a1,s4,239c <__umoddi3+0x2a0>
    2394:	00a5f463          	bgeu	a1,a0,239c <__umoddi3+0x2a0>
    2398:	014585b3          	add	a1,a1,s4
    239c:	40a584b3          	sub	s1,a1,a0
    23a0:	dfdff06f          	j	219c <__umoddi3+0xa0>
    23a4:	010007b7          	lui	a5,0x1000
    23a8:	01000993          	li	s3,16
    23ac:	f0fa6ae3          	bltu	s4,a5,22c0 <__umoddi3+0x1c4>
    23b0:	01800993          	li	s3,24
    23b4:	f0dff06f          	j	22c0 <__umoddi3+0x1c4>
    23b8:	e8d5eae3          	bltu	a1,a3,224c <__umoddi3+0x150>
    23bc:	000107b7          	lui	a5,0x10
    23c0:	04f6fc63          	bgeu	a3,a5,2418 <__umoddi3+0x31c>
    23c4:	0ff00a93          	li	s5,255
    23c8:	00dab533          	sltu	a0,s5,a3
    23cc:	00351513          	slli	a0,a0,0x3
    23d0:	00a6d733          	srl	a4,a3,a0
    23d4:	00000797          	auipc	a5,0x0
    23d8:	4ac78793          	addi	a5,a5,1196 # 2880 <__clz_tab>
    23dc:	00e787b3          	add	a5,a5,a4
    23e0:	0007ca83          	lbu	s5,0(a5)
    23e4:	02000793          	li	a5,32
    23e8:	00aa8ab3          	add	s5,s5,a0
    23ec:	41578a33          	sub	s4,a5,s5
    23f0:	03579e63          	bne	a5,s5,242c <__umoddi3+0x330>
    23f4:	0166e463          	bltu	a3,s6,23fc <__umoddi3+0x300>
    23f8:	00c96a63          	bltu	s2,a2,240c <__umoddi3+0x310>
    23fc:	40c90433          	sub	s0,s2,a2
    2400:	40db05b3          	sub	a1,s6,a3
    2404:	00893533          	sltu	a0,s2,s0
    2408:	40a584b3          	sub	s1,a1,a0
    240c:	00040513          	mv	a0,s0
    2410:	00048593          	mv	a1,s1
    2414:	e39ff06f          	j	224c <__umoddi3+0x150>
    2418:	010007b7          	lui	a5,0x1000
    241c:	01000513          	li	a0,16
    2420:	faf6e8e3          	bltu	a3,a5,23d0 <__umoddi3+0x2d4>
    2424:	01800513          	li	a0,24
    2428:	fa9ff06f          	j	23d0 <__umoddi3+0x2d4>
    242c:	014696b3          	sll	a3,a3,s4
    2430:	015657b3          	srl	a5,a2,s5
    2434:	00d7ec33          	or	s8,a5,a3
    2438:	015b5d33          	srl	s10,s6,s5
    243c:	014b15b3          	sll	a1,s6,s4
    2440:	015954b3          	srl	s1,s2,s5
    2444:	010c5b13          	srli	s6,s8,0x10
    2448:	00b4e4b3          	or	s1,s1,a1
    244c:	000d0513          	mv	a0,s10
    2450:	000b0593          	mv	a1,s6
    2454:	01461cb3          	sll	s9,a2,s4
    2458:	208000ef          	jal	ra,2660 <__umodsi3>
    245c:	00050993          	mv	s3,a0
    2460:	000b0593          	mv	a1,s6
    2464:	000d0513          	mv	a0,s10
    2468:	010c1b93          	slli	s7,s8,0x10
    246c:	1ac000ef          	jal	ra,2618 <__udivsi3>
    2470:	010bdb93          	srli	s7,s7,0x10
    2474:	00050593          	mv	a1,a0
    2478:	01491433          	sll	s0,s2,s4
    247c:	00050913          	mv	s2,a0
    2480:	000b8513          	mv	a0,s7
    2484:	168000ef          	jal	ra,25ec <__mulsi3>
    2488:	01099993          	slli	s3,s3,0x10
    248c:	0104d713          	srli	a4,s1,0x10
    2490:	00e9e733          	or	a4,s3,a4
    2494:	00090d13          	mv	s10,s2
    2498:	00a77e63          	bgeu	a4,a0,24b4 <__umoddi3+0x3b8>
    249c:	01870733          	add	a4,a4,s8
    24a0:	fff90d13          	addi	s10,s2,-1
    24a4:	01876863          	bltu	a4,s8,24b4 <__umoddi3+0x3b8>
    24a8:	00a77663          	bgeu	a4,a0,24b4 <__umoddi3+0x3b8>
    24ac:	ffe90d13          	addi	s10,s2,-2
    24b0:	01870733          	add	a4,a4,s8
    24b4:	40a70933          	sub	s2,a4,a0
    24b8:	000b0593          	mv	a1,s6
    24bc:	00090513          	mv	a0,s2
    24c0:	1a0000ef          	jal	ra,2660 <__umodsi3>
    24c4:	00050993          	mv	s3,a0
    24c8:	000b0593          	mv	a1,s6
    24cc:	00090513          	mv	a0,s2
    24d0:	148000ef          	jal	ra,2618 <__udivsi3>
    24d4:	00050913          	mv	s2,a0
    24d8:	00050593          	mv	a1,a0
    24dc:	000b8513          	mv	a0,s7
    24e0:	10c000ef          	jal	ra,25ec <__mulsi3>
    24e4:	01049713          	slli	a4,s1,0x10
    24e8:	01099993          	slli	s3,s3,0x10
    24ec:	01075713          	srli	a4,a4,0x10
    24f0:	00e9e733          	or	a4,s3,a4
    24f4:	00090793          	mv	a5,s2
    24f8:	00a77e63          	bgeu	a4,a0,2514 <__umoddi3+0x418>
    24fc:	01870733          	add	a4,a4,s8
    2500:	fff90793          	addi	a5,s2,-1
    2504:	01876863          	bltu	a4,s8,2514 <__umoddi3+0x418>
    2508:	00a77663          	bgeu	a4,a0,2514 <__umoddi3+0x418>
    250c:	ffe90793          	addi	a5,s2,-2
    2510:	01870733          	add	a4,a4,s8
    2514:	00010eb7          	lui	t4,0x10
    2518:	010d1d13          	slli	s10,s10,0x10
    251c:	00fd6d33          	or	s10,s10,a5
    2520:	fffe8793          	addi	a5,t4,-1 # ffff <__global_pointer$+0xce7f>
    2524:	00fd78b3          	and	a7,s10,a5
    2528:	00fcf7b3          	and	a5,s9,a5
    252c:	40a70733          	sub	a4,a4,a0
    2530:	010d5d13          	srli	s10,s10,0x10
    2534:	010cde13          	srli	t3,s9,0x10
    2538:	00088513          	mv	a0,a7
    253c:	00078593          	mv	a1,a5
    2540:	0ac000ef          	jal	ra,25ec <__mulsi3>
    2544:	00050813          	mv	a6,a0
    2548:	000e0593          	mv	a1,t3
    254c:	00088513          	mv	a0,a7
    2550:	09c000ef          	jal	ra,25ec <__mulsi3>
    2554:	00050893          	mv	a7,a0
    2558:	00078593          	mv	a1,a5
    255c:	000d0513          	mv	a0,s10
    2560:	08c000ef          	jal	ra,25ec <__mulsi3>
    2564:	00050313          	mv	t1,a0
    2568:	000e0593          	mv	a1,t3
    256c:	000d0513          	mv	a0,s10
    2570:	07c000ef          	jal	ra,25ec <__mulsi3>
    2574:	01085793          	srli	a5,a6,0x10
    2578:	006888b3          	add	a7,a7,t1
    257c:	011787b3          	add	a5,a5,a7
    2580:	0067f463          	bgeu	a5,t1,2588 <__umoddi3+0x48c>
    2584:	01d50533          	add	a0,a0,t4
    2588:	0107d593          	srli	a1,a5,0x10
    258c:	00a585b3          	add	a1,a1,a0
    2590:	00010537          	lui	a0,0x10
    2594:	fff50513          	addi	a0,a0,-1 # ffff <__global_pointer$+0xce7f>
    2598:	00a7f7b3          	and	a5,a5,a0
    259c:	01079793          	slli	a5,a5,0x10
    25a0:	00a87533          	and	a0,a6,a0
    25a4:	00a78533          	add	a0,a5,a0
    25a8:	00b76663          	bltu	a4,a1,25b4 <__umoddi3+0x4b8>
    25ac:	00b71e63          	bne	a4,a1,25c8 <__umoddi3+0x4cc>
    25b0:	00a47c63          	bgeu	s0,a0,25c8 <__umoddi3+0x4cc>
    25b4:	41950633          	sub	a2,a0,s9
    25b8:	00c537b3          	sltu	a5,a0,a2
    25bc:	018787b3          	add	a5,a5,s8
    25c0:	40f585b3          	sub	a1,a1,a5
    25c4:	00060513          	mv	a0,a2
    25c8:	40a40533          	sub	a0,s0,a0
    25cc:	00a43433          	sltu	s0,s0,a0
    25d0:	40b705b3          	sub	a1,a4,a1
    25d4:	408585b3          	sub	a1,a1,s0
    25d8:	01559433          	sll	s0,a1,s5
    25dc:	01455533          	srl	a0,a0,s4
    25e0:	00a46533          	or	a0,s0,a0
    25e4:	0145d5b3          	srl	a1,a1,s4
    25e8:	c65ff06f          	j	224c <__umoddi3+0x150>

000025ec <__mulsi3>:
    25ec:	00050613          	mv	a2,a0
    25f0:	00000513          	li	a0,0
    25f4:	0015f693          	andi	a3,a1,1
    25f8:	00068463          	beqz	a3,2600 <__mulsi3+0x14>
    25fc:	00c50533          	add	a0,a0,a2
    2600:	0015d593          	srli	a1,a1,0x1
    2604:	00161613          	slli	a2,a2,0x1
    2608:	fe0596e3          	bnez	a1,25f4 <__mulsi3+0x8>
    260c:	00008067          	ret

00002610 <__divsi3>:
    2610:	06054063          	bltz	a0,2670 <__umodsi3+0x10>
    2614:	0605c663          	bltz	a1,2680 <__umodsi3+0x20>

00002618 <__udivsi3>:
    2618:	00058613          	mv	a2,a1
    261c:	00050593          	mv	a1,a0
    2620:	fff00513          	li	a0,-1
    2624:	02060c63          	beqz	a2,265c <__udivsi3+0x44>
    2628:	00100693          	li	a3,1
    262c:	00b67a63          	bgeu	a2,a1,2640 <__udivsi3+0x28>
    2630:	00c05863          	blez	a2,2640 <__udivsi3+0x28>
    2634:	00161613          	slli	a2,a2,0x1
    2638:	00169693          	slli	a3,a3,0x1
    263c:	feb66ae3          	bltu	a2,a1,2630 <__udivsi3+0x18>
    2640:	00000513          	li	a0,0
    2644:	00c5e663          	bltu	a1,a2,2650 <__udivsi3+0x38>
    2648:	40c585b3          	sub	a1,a1,a2
    264c:	00d56533          	or	a0,a0,a3
    2650:	0016d693          	srli	a3,a3,0x1
    2654:	00165613          	srli	a2,a2,0x1
    2658:	fe0696e3          	bnez	a3,2644 <__udivsi3+0x2c>
    265c:	00008067          	ret

00002660 <__umodsi3>:
    2660:	00008293          	mv	t0,ra
    2664:	fb5ff0ef          	jal	ra,2618 <__udivsi3>
    2668:	00058513          	mv	a0,a1
    266c:	00028067          	jr	t0
    2670:	40a00533          	neg	a0,a0
    2674:	00b04863          	bgtz	a1,2684 <__umodsi3+0x24>
    2678:	40b005b3          	neg	a1,a1
    267c:	f9dff06f          	j	2618 <__udivsi3>
    2680:	40b005b3          	neg	a1,a1
    2684:	00008293          	mv	t0,ra
    2688:	f91ff0ef          	jal	ra,2618 <__udivsi3>
    268c:	40a00533          	neg	a0,a0
    2690:	00028067          	jr	t0

00002694 <__modsi3>:
    2694:	00008293          	mv	t0,ra
    2698:	0005ca63          	bltz	a1,26ac <__modsi3+0x18>
    269c:	00054c63          	bltz	a0,26b4 <__modsi3+0x20>
    26a0:	f79ff0ef          	jal	ra,2618 <__udivsi3>
    26a4:	00058513          	mv	a0,a1
    26a8:	00028067          	jr	t0
    26ac:	40b005b3          	neg	a1,a1
    26b0:	fe0558e3          	bgez	a0,26a0 <__modsi3+0xc>
    26b4:	40a00533          	neg	a0,a0
    26b8:	f61ff0ef          	jal	ra,2618 <__udivsi3>
    26bc:	40b00533          	neg	a0,a1
    26c0:	00028067          	jr	t0
	...

000026e0 <sc_exit>:
    26e0:	0f400293          	li	t0,244
    26e4:	8282                	jr	t0
    26e6:	00000013          	nop
    26ea:	00000013          	nop
    26ee:	00000013          	nop
    26f2:	00000013          	nop
    26f6:	00000013          	nop
    26fa:	00000013          	nop
    26fe:	0001                	nop
	...

Disassembly of section .rodata.str1.4:

00002720 <.rodata.str1.4>:
    2720:	6e28                	flw	fa0,88(a2)
    2722:	6c75                	lui	s8,0x1d
    2724:	296c                	fld	fa1,208(a0)
	...

Disassembly of section .rodata:

00002728 <__clz_tab-0x158>:
    2728:	0820                	addi	s0,sp,24
    272a:	0000                	unimp
    272c:	06da                	slli	a3,a3,0x16
    272e:	0000                	unimp
    2730:	0828                	addi	a0,sp,24
    2732:	0000                	unimp
    2734:	06da                	slli	a3,a3,0x16
    2736:	0000                	unimp
    2738:	06da                	slli	a3,a3,0x16
    273a:	0000                	unimp
    273c:	06da                	slli	a3,a3,0x16
    273e:	0000                	unimp
    2740:	06da                	slli	a3,a3,0x16
    2742:	0000                	unimp
    2744:	0910                	addi	a2,sp,144
    2746:	0000                	unimp
    2748:	06da                	slli	a3,a3,0x16
    274a:	0000                	unimp
    274c:	06da                	slli	a3,a3,0x16
    274e:	0000                	unimp
    2750:	06c2                	slli	a3,a3,0x10
    2752:	0000                	unimp
    2754:	080c                	addi	a1,sp,16
    2756:	0000                	unimp
    2758:	06da                	slli	a3,a3,0x16
    275a:	0000                	unimp
    275c:	06c2                	slli	a3,a3,0x10
    275e:	0000                	unimp
    2760:	07ca                	slli	a5,a5,0x12
    2762:	0000                	unimp
    2764:	07ca                	slli	a5,a5,0x12
    2766:	0000                	unimp
    2768:	07ca                	slli	a5,a5,0x12
    276a:	0000                	unimp
    276c:	07ca                	slli	a5,a5,0x12
    276e:	0000                	unimp
    2770:	07ca                	slli	a5,a5,0x12
    2772:	0000                	unimp
    2774:	07ca                	slli	a5,a5,0x12
    2776:	0000                	unimp
    2778:	07ca                	slli	a5,a5,0x12
    277a:	0000                	unimp
    277c:	07ca                	slli	a5,a5,0x12
    277e:	0000                	unimp
    2780:	07ca                	slli	a5,a5,0x12
    2782:	0000                	unimp
    2784:	06da                	slli	a3,a3,0x16
    2786:	0000                	unimp
    2788:	06da                	slli	a3,a3,0x16
    278a:	0000                	unimp
    278c:	06da                	slli	a3,a3,0x16
    278e:	0000                	unimp
    2790:	06da                	slli	a3,a3,0x16
    2792:	0000                	unimp
    2794:	06da                	slli	a3,a3,0x16
    2796:	0000                	unimp
    2798:	06da                	slli	a3,a3,0x16
    279a:	0000                	unimp
    279c:	06da                	slli	a3,a3,0x16
    279e:	0000                	unimp
    27a0:	06da                	slli	a3,a3,0x16
    27a2:	0000                	unimp
    27a4:	06da                	slli	a3,a3,0x16
    27a6:	0000                	unimp
    27a8:	06da                	slli	a3,a3,0x16
    27aa:	0000                	unimp
    27ac:	06da                	slli	a3,a3,0x16
    27ae:	0000                	unimp
    27b0:	06da                	slli	a3,a3,0x16
    27b2:	0000                	unimp
    27b4:	06da                	slli	a3,a3,0x16
    27b6:	0000                	unimp
    27b8:	06da                	slli	a3,a3,0x16
    27ba:	0000                	unimp
    27bc:	06da                	slli	a3,a3,0x16
    27be:	0000                	unimp
    27c0:	06da                	slli	a3,a3,0x16
    27c2:	0000                	unimp
    27c4:	06da                	slli	a3,a3,0x16
    27c6:	0000                	unimp
    27c8:	06da                	slli	a3,a3,0x16
    27ca:	0000                	unimp
    27cc:	06da                	slli	a3,a3,0x16
    27ce:	0000                	unimp
    27d0:	06da                	slli	a3,a3,0x16
    27d2:	0000                	unimp
    27d4:	06da                	slli	a3,a3,0x16
    27d6:	0000                	unimp
    27d8:	06da                	slli	a3,a3,0x16
    27da:	0000                	unimp
    27dc:	06da                	slli	a3,a3,0x16
    27de:	0000                	unimp
    27e0:	06da                	slli	a3,a3,0x16
    27e2:	0000                	unimp
    27e4:	06da                	slli	a3,a3,0x16
    27e6:	0000                	unimp
    27e8:	06da                	slli	a3,a3,0x16
    27ea:	0000                	unimp
    27ec:	06da                	slli	a3,a3,0x16
    27ee:	0000                	unimp
    27f0:	06da                	slli	a3,a3,0x16
    27f2:	0000                	unimp
    27f4:	06da                	slli	a3,a3,0x16
    27f6:	0000                	unimp
    27f8:	06da                	slli	a3,a3,0x16
    27fa:	0000                	unimp
    27fc:	0924                	addi	s1,sp,152
    27fe:	0000                	unimp
    2800:	06da                	slli	a3,a3,0x16
    2802:	0000                	unimp
    2804:	06da                	slli	a3,a3,0x16
    2806:	0000                	unimp
    2808:	06da                	slli	a3,a3,0x16
    280a:	0000                	unimp
    280c:	06da                	slli	a3,a3,0x16
    280e:	0000                	unimp
    2810:	06da                	slli	a3,a3,0x16
    2812:	0000                	unimp
    2814:	06da                	slli	a3,a3,0x16
    2816:	0000                	unimp
    2818:	06da                	slli	a3,a3,0x16
    281a:	0000                	unimp
    281c:	06da                	slli	a3,a3,0x16
    281e:	0000                	unimp
    2820:	06da                	slli	a3,a3,0x16
    2822:	0000                	unimp
    2824:	06da                	slli	a3,a3,0x16
    2826:	0000                	unimp
    2828:	0d4e                	slli	s10,s10,0x13
    282a:	0000                	unimp
    282c:	0e82                	c.slli64	t4
    282e:	0000                	unimp
    2830:	06da                	slli	a3,a3,0x16
    2832:	0000                	unimp
    2834:	050a                	slli	a0,a0,0x2
    2836:	0000                	unimp
    2838:	06da                	slli	a3,a3,0x16
    283a:	0000                	unimp
    283c:	06da                	slli	a3,a3,0x16
    283e:	0000                	unimp
    2840:	06da                	slli	a3,a3,0x16
    2842:	0000                	unimp
    2844:	06da                	slli	a3,a3,0x16
    2846:	0000                	unimp
    2848:	06da                	slli	a3,a3,0x16
    284a:	0000                	unimp
    284c:	0be6                	slli	s7,s7,0x19
    284e:	0000                	unimp
    2850:	06da                	slli	a3,a3,0x16
    2852:	0000                	unimp
    2854:	06da                	slli	a3,a3,0x16
    2856:	0000                	unimp
    2858:	0bf0                	addi	a2,sp,476
    285a:	0000                	unimp
    285c:	0c18                	addi	a4,sp,528
    285e:	0000                	unimp
    2860:	06da                	slli	a3,a3,0x16
    2862:	0000                	unimp
    2864:	06da                	slli	a3,a3,0x16
    2866:	0000                	unimp
    2868:	0d28                	addi	a0,sp,664
    286a:	0000                	unimp
    286c:	06da                	slli	a3,a3,0x16
    286e:	0000                	unimp
    2870:	0eac                	addi	a1,sp,856
    2872:	0000                	unimp
    2874:	06da                	slli	a3,a3,0x16
    2876:	0000                	unimp
    2878:	06da                	slli	a3,a3,0x16
    287a:	0000                	unimp
    287c:	123c                	addi	a5,sp,296
	...

00002880 <__clz_tab>:
    2880:	0100                	addi	s0,sp,128
    2882:	0202                	c.slli64	tp
    2884:	03030303          	lb	t1,48(t1)
    2888:	0404                	addi	s1,sp,512
    288a:	0404                	addi	s1,sp,512
    288c:	0404                	addi	s1,sp,512
    288e:	0404                	addi	s1,sp,512
    2890:	0505                	addi	a0,a0,1
    2892:	0505                	addi	a0,a0,1
    2894:	0505                	addi	a0,a0,1
    2896:	0505                	addi	a0,a0,1
    2898:	0505                	addi	a0,a0,1
    289a:	0505                	addi	a0,a0,1
    289c:	0505                	addi	a0,a0,1
    289e:	0505                	addi	a0,a0,1
    28a0:	0606                	slli	a2,a2,0x1
    28a2:	0606                	slli	a2,a2,0x1
    28a4:	0606                	slli	a2,a2,0x1
    28a6:	0606                	slli	a2,a2,0x1
    28a8:	0606                	slli	a2,a2,0x1
    28aa:	0606                	slli	a2,a2,0x1
    28ac:	0606                	slli	a2,a2,0x1
    28ae:	0606                	slli	a2,a2,0x1
    28b0:	0606                	slli	a2,a2,0x1
    28b2:	0606                	slli	a2,a2,0x1
    28b4:	0606                	slli	a2,a2,0x1
    28b6:	0606                	slli	a2,a2,0x1
    28b8:	0606                	slli	a2,a2,0x1
    28ba:	0606                	slli	a2,a2,0x1
    28bc:	0606                	slli	a2,a2,0x1
    28be:	0606                	slli	a2,a2,0x1
    28c0:	07070707          	0x7070707
    28c4:	07070707          	0x7070707
    28c8:	07070707          	0x7070707
    28cc:	07070707          	0x7070707
    28d0:	07070707          	0x7070707
    28d4:	07070707          	0x7070707
    28d8:	07070707          	0x7070707
    28dc:	07070707          	0x7070707
    28e0:	07070707          	0x7070707
    28e4:	07070707          	0x7070707
    28e8:	07070707          	0x7070707
    28ec:	07070707          	0x7070707
    28f0:	07070707          	0x7070707
    28f4:	07070707          	0x7070707
    28f8:	07070707          	0x7070707
    28fc:	07070707          	0x7070707
    2900:	0808                	addi	a0,sp,16
    2902:	0808                	addi	a0,sp,16
    2904:	0808                	addi	a0,sp,16
    2906:	0808                	addi	a0,sp,16
    2908:	0808                	addi	a0,sp,16
    290a:	0808                	addi	a0,sp,16
    290c:	0808                	addi	a0,sp,16
    290e:	0808                	addi	a0,sp,16
    2910:	0808                	addi	a0,sp,16
    2912:	0808                	addi	a0,sp,16
    2914:	0808                	addi	a0,sp,16
    2916:	0808                	addi	a0,sp,16
    2918:	0808                	addi	a0,sp,16
    291a:	0808                	addi	a0,sp,16
    291c:	0808                	addi	a0,sp,16
    291e:	0808                	addi	a0,sp,16
    2920:	0808                	addi	a0,sp,16
    2922:	0808                	addi	a0,sp,16
    2924:	0808                	addi	a0,sp,16
    2926:	0808                	addi	a0,sp,16
    2928:	0808                	addi	a0,sp,16
    292a:	0808                	addi	a0,sp,16
    292c:	0808                	addi	a0,sp,16
    292e:	0808                	addi	a0,sp,16
    2930:	0808                	addi	a0,sp,16
    2932:	0808                	addi	a0,sp,16
    2934:	0808                	addi	a0,sp,16
    2936:	0808                	addi	a0,sp,16
    2938:	0808                	addi	a0,sp,16
    293a:	0808                	addi	a0,sp,16
    293c:	0808                	addi	a0,sp,16
    293e:	0808                	addi	a0,sp,16
    2940:	0808                	addi	a0,sp,16
    2942:	0808                	addi	a0,sp,16
    2944:	0808                	addi	a0,sp,16
    2946:	0808                	addi	a0,sp,16
    2948:	0808                	addi	a0,sp,16
    294a:	0808                	addi	a0,sp,16
    294c:	0808                	addi	a0,sp,16
    294e:	0808                	addi	a0,sp,16
    2950:	0808                	addi	a0,sp,16
    2952:	0808                	addi	a0,sp,16
    2954:	0808                	addi	a0,sp,16
    2956:	0808                	addi	a0,sp,16
    2958:	0808                	addi	a0,sp,16
    295a:	0808                	addi	a0,sp,16
    295c:	0808                	addi	a0,sp,16
    295e:	0808                	addi	a0,sp,16
    2960:	0808                	addi	a0,sp,16
    2962:	0808                	addi	a0,sp,16
    2964:	0808                	addi	a0,sp,16
    2966:	0808                	addi	a0,sp,16
    2968:	0808                	addi	a0,sp,16
    296a:	0808                	addi	a0,sp,16
    296c:	0808                	addi	a0,sp,16
    296e:	0808                	addi	a0,sp,16
    2970:	0808                	addi	a0,sp,16
    2972:	0808                	addi	a0,sp,16
    2974:	0808                	addi	a0,sp,16
    2976:	0808                	addi	a0,sp,16
    2978:	0808                	addi	a0,sp,16
    297a:	0808                	addi	a0,sp,16
    297c:	0808                	addi	a0,sp,16
    297e:	0808                	addi	a0,sp,16

Disassembly of section .tbss:

00002980 <__BSS_START__>:
	...

Disassembly of section .stack:

0000fc00 <__C_STACK_TOP__-0x400>:
	...

Disassembly of section .comment:

00000000 <.comment>:
   0:	3a434347          	fmsub.d	ft6,ft6,ft4,ft7,rmm
   4:	2820                	fld	fs0,80(s0)
   6:	29554e47          	fmsub.s	ft8,fa0,fs5,ft5,rmm
   a:	3120                	fld	fs0,96(a0)
   c:	2e30                	fld	fa2,88(a2)
   e:	2e32                	fld	ft8,264(sp)
  10:	0030                	addi	a2,sp,8

Disassembly of section .riscv.attributes:

00000000 <.riscv.attributes>:
   0:	2441                	jal	280 <_start+0x80>
   2:	0000                	unimp
   4:	7200                	flw	fs0,32(a2)
   6:	7369                	lui	t1,0xffffa
   8:	01007663          	bgeu	zero,a6,14 <buf.1+0x14>
   c:	001a                	c.slli	zero,0x6
   e:	0000                	unimp
  10:	1004                	addi	s1,sp,32
  12:	7205                	lui	tp,0xfffe1
  14:	3376                	fld	ft6,376(sp)
  16:	6932                	flw	fs2,12(sp)
  18:	7032                	flw	ft0,44(sp)
  1a:	5f30                	lw	a2,120(a4)
  1c:	30703263          	0x30703263
  20:	0800                	addi	s0,sp,16
  22:	0a01                	addi	s4,s4,0
  24:	0b              	Address 0x0000000000000024 is out of bounds.


Disassembly of section .debug_info:

00000000 <.debug_info>:
       0:	09e1                	addi	s3,s3,24
       2:	0000                	unimp
       4:	0004                	0x4
       6:	0000                	unimp
       8:	0000                	unimp
       a:	0104                	addi	s1,sp,128
       c:	0105                	addi	sp,sp,1
       e:	0000                	unimp
      10:	1f0c                	addi	a1,sp,944
      12:	0000                	unimp
      14:	4b00                	lw	s0,16(a4)
      16:	0000                	unimp
      18:	dc00                	sw	s0,56(s0)
      1a:	0015                	c.nop	5
      1c:	4800                	lw	s0,16(s0)
      1e:	0005                	c.nop	1
      20:	0000                	unimp
      22:	0000                	unimp
      24:	0200                	addi	s0,sp,256
      26:	0708                	addi	a0,sp,896
      28:	00e9                	addi	ra,ra,26
      2a:	0000                	unimp
      2c:	69050403          	lb	s0,1680(a0)
      30:	746e                	flw	fs0,248(sp)
      32:	0200                	addi	s0,sp,256
      34:	0704                	addi	s1,sp,896
      36:	000000f3          	0xf3
      3a:	0802                	c.slli64	a6
      3c:	db05                	beqz	a4,ffffff6c <__C_STACK_TOP__+0xfffeff6c>
      3e:	0000                	unimp
      40:	0200                	addi	s0,sp,256
      42:	0410                	addi	a2,sp,512
      44:	0278                	addi	a4,sp,268
      46:	0000                	unimp
      48:	0102                	c.slli64	sp
      4a:	e106                	fsw	ft1,128(sp)
      4c:	0001                	nop
      4e:	0200                	addi	s0,sp,256
      50:	0801                	addi	a6,a6,0
      52:	01df 0000 0202      	0x202000001df
      58:	b605                	j	fffffb78 <__C_STACK_TOP__+0xfffefb78>
      5a:	0000                	unimp
      5c:	0200                	addi	s0,sp,256
      5e:	0702                	c.slli64	a4
      60:	0212                	slli	tp,tp,0x4
      62:	0000                	unimp
      64:	0402                	c.slli64	s0
      66:	e005                	bnez	s0,86 <buflen.0+0x46>
      68:	0000                	unimp
      6a:	0200                	addi	s0,sp,256
      6c:	0704                	addi	s1,sp,896
      6e:	00ee                	slli	ra,ra,0x1b
      70:	0000                	unimp
      72:	0102                	c.slli64	sp
      74:	e808                	fsw	fa0,16(s0)
      76:	0001                	nop
      78:	0400                	addi	s0,sp,512
      7a:	0201                	addi	tp,tp,0
      7c:	0000                	unimp
      7e:	7b02                	flw	fs6,32(sp)
      80:	4f16                	lw	t5,68(sp)
      82:	0000                	unimp
      84:	0500                	addi	s0,sp,640
      86:	0079                	c.nop	30
      88:	0000                	unimp
      8a:	8504                	0x8504
      8c:	0002                	c.slli64	zero
      8e:	0200                	addi	s0,sp,256
      90:	0f80                	addi	s0,sp,976
      92:	002c                	addi	a1,sp,8
      94:	0000                	unimp
      96:	8404                	0x8404
      98:	0002                	c.slli64	zero
      9a:	0200                	addi	s0,sp,256
      9c:	1681                	addi	a3,a3,-32
      9e:	00000033          	add	zero,zero,zero
      a2:	4804                	lw	s1,16(s0)
      a4:	0002                	c.slli64	zero
      a6:	0200                	addi	s0,sp,256
      a8:	0f84                	addi	s1,sp,976
      aa:	003a                	c.slli	zero,0xe
      ac:	0000                	unimp
      ae:	4704                	lw	s1,8(a4)
      b0:	0002                	c.slli64	zero
      b2:	0200                	addi	s0,sp,256
      b4:	1685                	addi	a3,a3,-31
      b6:	0025                	c.nop	9
      b8:	0000                	unimp
      ba:	0402                	c.slli64	s0
      bc:	1004                	addi	s1,sp,32
      be:	0000                	unimp
      c0:	0200                	addi	s0,sp,256
      c2:	0308                	addi	a0,sp,384
      c4:	0008                	0x8
      c6:	0000                	unimp
      c8:	0802                	c.slli64	a6
      ca:	7d04                	flw	fs1,56(a0)
      cc:	0002                	c.slli64	zero
      ce:	0200                	addi	s0,sp,256
      d0:	0310                	addi	a2,sp,384
      d2:	0000024f          	fnmadd.s	ft4,ft0,ft0,ft0,rne
      d6:	2002                	fld	ft0,0(sp)
      d8:	00027003          	0x27003
      dc:	0600                	addi	s0,sp,768
      de:	0209                	addi	tp,tp,2
      e0:	0000                	unimp
      e2:	0208                	addi	a0,sp,256
      e4:	01ed                	addi	gp,gp,27
      e6:	080a                	slli	a6,a6,0x2
      e8:	0001                	nop
      ea:	0700                	addi	s0,sp,896
      ec:	6f6c                	flw	fa1,92(a4)
      ee:	ed020077          	0xed020077
      f2:	1a01                	addi	s4,s4,-32
      f4:	008a                	slli	ra,ra,0x2
      f6:	0000                	unimp
      f8:	0800                	addi	s0,sp,16
      fa:	0100                	addi	s0,sp,128
      fc:	0000                	unimp
      fe:	ed02                	fsw	ft0,152(sp)
     100:	1f01                	addi	t5,t5,-32
     102:	008a                	slli	ra,ra,0x2
     104:	0000                	unimp
     106:	0004                	0x4
     108:	0809                	addi	a6,a6,2
     10a:	f402                	fsw	ft0,40(sp)
     10c:	0901                	addi	s2,s2,0
     10e:	012a                	slli	sp,sp,0xa
     110:	0000                	unimp
     112:	730a                	flw	ft6,160(sp)
     114:	0200                	addi	s0,sp,256
     116:	01f6                	slli	gp,gp,0x1d
     118:	0000dd13          	srli	s10,ra,0x0
     11c:	0a00                	addi	s0,sp,272
     11e:	6c6c                	flw	fa1,92(s0)
     120:	0200                	addi	s0,sp,256
     122:	a20a01f7          	0xa20a01f7
     126:	0000                	unimp
     128:	0000                	unimp
     12a:	0000000b          	0xb
     12e:	0200                	addi	s0,sp,256
     130:	01f8                	addi	a4,sp,204
     132:	00010803          	lb	a6,0(sp)
     136:	0500                	addi	s0,sp,640
     138:	012a                	slli	sp,sp,0xa
     13a:	0000                	unimp
     13c:	850c                	0x850c
     13e:	0000                	unimp
     140:	4c00                	lw	s0,24(s0)
     142:	0001                	nop
     144:	0d00                	addi	s0,sp,656
     146:	00000033          	add	zero,zero,zero
     14a:	00ff                	0xff
     14c:	3c05                	jal	fffffb7c <__C_STACK_TOP__+0xfffefb7c>
     14e:	0001                	nop
     150:	0e00                	addi	s0,sp,784
     152:	01d5                	addi	gp,gp,21
     154:	0000                	unimp
     156:	0202                	c.slli64	tp
     158:	1602                	slli	a2,a2,0x20
     15a:	014c                	addi	a1,sp,132
     15c:	0000                	unimp
     15e:	0002250f          	0x2250f
     162:	0100                	addi	s0,sp,128
     164:	a20104e7          	jalr	s1,-1504(sp)
     168:	0000                	unimp
     16a:	dc00                	sw	s0,56(s0)
     16c:	0015                	c.nop	5
     16e:	4800                	lw	s0,16(s0)
     170:	0005                	c.nop	1
     172:	0100                	addi	s0,sp,128
     174:	d69c                	sw	a5,40(a3)
     176:	0005                	c.nop	1
     178:	1000                	addi	s0,sp,32
     17a:	0075                	c.nop	29
     17c:	e701                	bnez	a4,184 <SIM_STOP+0x8c>
     17e:	1204                	addi	s1,sp,288
     180:	00a2                	slli	ra,ra,0x8
     182:	0000                	unimp
     184:	0000                	unimp
     186:	0000                	unimp
     188:	7610                	flw	fa2,40(a2)
     18a:	0100                	addi	s0,sp,128
     18c:	a21c04e7          	jalr	s1,-1503(s8) # 1ca21 <__C_STACK_TOP__+0xca21>
     190:	0000                	unimp
     192:	a800                	fsd	fs0,16(s0)
     194:	0000                	unimp
     196:	1100                	addi	s0,sp,160
     198:	e9010063          	beq	sp,a6,fffff818 <__C_STACK_TOP__+0xfffef818>
     19c:	0904                	addi	s1,sp,144
     19e:	008a                	slli	ra,ra,0x2
     1a0:	0000                	unimp
     1a2:	00d0                	addi	a2,sp,68
     1a4:	0000                	unimp
     1a6:	7511                	lui	a0,0xfffe4
     1a8:	0075                	c.nop	29
     1aa:	ea01                	bnez	a2,1ba <SIM_STOP+0xc2>
     1ac:	0b04                	addi	s1,sp,400
     1ae:	012a                	slli	sp,sp,0xa
     1b0:	0000                	unimp
     1b2:	00000107          	0x107
     1b6:	7611                	lui	a2,0xfffe4
     1b8:	0076                	c.slli	zero,0x1d
     1ba:	eb01                	bnez	a4,1ca <machine_trap_entry+0xa>
     1bc:	0b04                	addi	s1,sp,400
     1be:	012a                	slli	sp,sp,0xa
     1c0:	0000                	unimp
     1c2:	011f 0000 7711      	0x77110000011f
     1c8:	0100                	addi	s0,sp,128
     1ca:	04ec                	addi	a1,sp,588
     1cc:	a20a                	fsd	ft2,256(sp)
     1ce:	0000                	unimp
     1d0:	a700                	fsd	fs0,8(a4)
     1d2:	0001                	nop
     1d4:	1200                	addi	s0,sp,288
     1d6:	05d6                	slli	a1,a1,0x15
     1d8:	0000                	unimp
     1da:	164c                	addi	a1,sp,804
     1dc:	0000                	unimp
     1de:	0000                	unimp
     1e0:	0000                	unimp
     1e2:	f401                	bnez	s0,ea <buflen.0+0xaa>
     1e4:	0a04                	addi	s1,sp,272
     1e6:	0005fe13          	andi	t3,a1,0
     1ea:	df00                	sw	s0,56(a4)
     1ec:	0001                	nop
     1ee:	1300                	addi	s0,sp,416
     1f0:	000005f3          	0x5f3
     1f4:	00000207          	0x207
     1f8:	e814                	fsw	fa3,16(s0)
     1fa:	0005                	c.nop	1
     1fc:	1500                	addi	s0,sp,672
     1fe:	0000                	unimp
     200:	0000                	unimp
     202:	0a16                	slli	s4,s4,0x5
     204:	0006                	c.slli	zero,0x1
     206:	1600                	addi	s0,sp,800
     208:	0616                	slli	a2,a2,0x5
     20a:	0000                	unimp
     20c:	2216                	fld	ft4,320(sp)
     20e:	0006                	c.slli	zero,0x1
     210:	1700                	addi	s0,sp,928
     212:	062e                	slli	a2,a2,0xb
     214:	0000                	unimp
     216:	027f                	0x27f
     218:	0000                	unimp
     21a:	00063a17          	auipc	s4,0x63
     21e:	c900                	sw	s0,16(a0)
     220:	0002                	c.slli64	zero
     222:	1700                	addi	s0,sp,928
     224:	0646                	slli	a2,a2,0x11
     226:	0000                	unimp
     228:	0334                	addi	a3,sp,392
     22a:	0000                	unimp
     22c:	00065217          	auipc	tp,0x65
     230:	8900                	0x8900
     232:	17000003          	lb	zero,368(zero) # 170 <SIM_STOP+0x78>
     236:	065e                	slli	a2,a2,0x17
     238:	0000                	unimp
     23a:	000003d3          	fadd.s	ft7,ft0,ft0,rne
     23e:	00066a17          	auipc	s4,0x66
     242:	fc00                	fsw	fs0,56(s0)
     244:	17000003          	lb	zero,368(zero) # 170 <SIM_STOP+0x78>
     248:	0676                	slli	a2,a2,0x1d
     24a:	0000                	unimp
     24c:	041c                	addi	a5,sp,512
     24e:	0000                	unimp
     250:	00068217          	auipc	tp,0x68
     254:	4800                	lw	s0,16(s0)
     256:	0004                	0x4
     258:	1700                	addi	s0,sp,928
     25a:	068d                	addi	a3,a3,3
     25c:	0000                	unimp
     25e:	0466                	slli	s0,s0,0x19
     260:	0000                	unimp
     262:	9916                	add	s2,s2,t0
     264:	0006                	c.slli	zero,0x1
     266:	1800                	addi	s0,sp,48
     268:	06a5                	addi	a3,a3,9
     26a:	0000                	unimp
     26c:	0018                	0x18
     26e:	0000                	unimp
     270:	00000287          	0x287
     274:	0006aa17          	auipc	s4,0x6a
     278:	9a00                	0x9a00
     27a:	0004                	0x4
     27c:	1700                	addi	s0,sp,928
     27e:	000006b7          	lui	a3,0x0
     282:	04b8                	addi	a4,sp,584
     284:	0000                	unimp
     286:	1900                	addi	s0,sp,176
     288:	06c5                	addi	a3,a3,17
     28a:	0000                	unimp
     28c:	16b0                	addi	a2,sp,872
     28e:	0000                	unimp
     290:	0000                	unimp
     292:	0000                	unimp
     294:	02c0                	addi	s0,sp,324
     296:	0000                	unimp
     298:	ca1a                	sw	t1,20(sp)
     29a:	0006                	c.slli	zero,0x1
     29c:	0100                	addi	s0,sp,128
     29e:	1a66                	slli	s4,s4,0x39
     2a0:	000006d7          	0x6d7
     2a4:	6701                	0x6701
     2a6:	e416                	fsw	ft5,8(sp)
     2a8:	0006                	c.slli	zero,0x1
     2aa:	1600                	addi	s0,sp,800
     2ac:	06f1                	addi	a3,a3,28
     2ae:	0000                	unimp
     2b0:	fe16                	fsw	ft5,60(sp)
     2b2:	0006                	c.slli	zero,0x1
     2b4:	1600                	addi	s0,sp,800
     2b6:	0000070b          	0x70b
     2ba:	1816                	slli	a6,a6,0x25
     2bc:	00000007          	0x7
     2c0:	a719                	j	9c6 <vprintfmt.constprop.0+0x520>
     2c2:	b0000007          	0xb0000007
     2c6:	0016                	c.slli	zero,0x5
     2c8:	a800                	fsd	fs0,16(s0)
     2ca:	0000                	unimp
     2cc:	4700                	lw	s0,8(a4)
     2ce:	17000003          	lb	zero,368(zero) # 170 <SIM_STOP+0x78>
     2d2:	07ac                	addi	a1,sp,968
     2d4:	0000                	unimp
     2d6:	000004cb          	fnmsub.s	fs1,ft0,ft0,ft0,rne
     2da:	0007b917          	auipc	s2,0x7b
     2de:	de00                	sw	s0,56(a2)
     2e0:	0004                	0x4
     2e2:	1700                	addi	s0,sp,928
     2e4:	07c6                	slli	a5,a5,0x11
     2e6:	0000                	unimp
     2e8:	04f1                	addi	s1,s1,28
     2ea:	0000                	unimp
     2ec:	0007d317          	auipc	t1,0x7d
     2f0:	0f00                	addi	s0,sp,912
     2f2:	0005                	c.nop	1
     2f4:	1700                	addi	s0,sp,928
     2f6:	07e0                	addi	s0,sp,972
     2f8:	0000                	unimp
     2fa:	052d                	addi	a0,a0,11
     2fc:	0000                	unimp
     2fe:	0007ed17          	auipc	s10,0x7e
     302:	5600                	lw	s0,40(a2)
     304:	0005                	c.nop	1
     306:	1700                	addi	s0,sp,928
     308:	07fa                	slli	a5,a5,0x1e
     30a:	0000                	unimp
     30c:	057f                	0x57f
     30e:	0000                	unimp
     310:	0016c01b          	0x16c01b
     314:	c900                	sw	s0,16(a0)
     316:	0009                	c.nop	2
     318:	1b00                	addi	s0,sp,432
     31a:	16d4                	addi	a3,sp,868
     31c:	0000                	unimp
     31e:	09d2                	slli	s3,s3,0x14
     320:	0000                	unimp
     322:	0016e41b          	0x16e41b
     326:	db00                	sw	s0,48(a4)
     328:	0009                	c.nop	2
     32a:	1b00                	addi	s0,sp,432
     32c:	1714                	addi	a3,sp,928
     32e:	0000                	unimp
     330:	09c9                	addi	s3,s3,18
     332:	0000                	unimp
     334:	0017241b          	0x17241b
     338:	d200                	sw	s0,32(a2)
     33a:	0009                	c.nop	2
     33c:	1b00                	addi	s0,sp,432
     33e:	173c                	addi	a5,sp,936
     340:	0000                	unimp
     342:	000009db          	0x9db
     346:	1800                	addi	s0,sp,48
     348:	0726                	slli	a4,a4,0x9
     34a:	0000                	unimp
     34c:	0030                	addi	a2,sp,8
     34e:	0000                	unimp
     350:	00000367          	jalr	t1,zero # 0 <buf.1>
     354:	00072b17          	auipc	s6,0x72
     358:	9d00                	0x9d00
     35a:	0005                	c.nop	1
     35c:	1700                	addi	s0,sp,928
     35e:	0738                	addi	a4,sp,904
     360:	0000                	unimp
     362:	000005bb          	0x5bb
     366:	1800                	addi	s0,sp,48
     368:	0746                	slli	a4,a4,0x11
     36a:	0000                	unimp
     36c:	0050                	addi	a2,sp,4
     36e:	0000                	unimp
     370:	03ea                	slli	t2,t2,0x1a
     372:	0000                	unimp
     374:	00074b17          	auipc	s6,0x74
     378:	ce00                	sw	s0,24(a2)
     37a:	0005                	c.nop	1
     37c:	1700                	addi	s0,sp,928
     37e:	0758                	addi	a4,sp,900
     380:	0000                	unimp
     382:	000005fb          	0x5fb
     386:	00076517          	auipc	a0,0x76
     38a:	0e00                	addi	s0,sp,784
     38c:	0006                	c.slli	zero,0x1
     38e:	1700                	addi	s0,sp,928
     390:	0772                	slli	a4,a4,0x1c
     392:	0000                	unimp
     394:	062c                	addi	a1,sp,776
     396:	0000                	unimp
     398:	00077f17          	auipc	t5,0x77
     39c:	4a00                	lw	s0,16(a2)
     39e:	0006                	c.slli	zero,0x1
     3a0:	1700                	addi	s0,sp,928
     3a2:	078c                	addi	a1,sp,960
     3a4:	0000                	unimp
     3a6:	00000673          	0x673
     3aa:	00079917          	auipc	s2,0x79
     3ae:	a700                	fsd	fs0,8(a4)
     3b0:	0006                	c.slli	zero,0x1
     3b2:	1b00                	addi	s0,sp,432
     3b4:	1830                	addi	a2,sp,56
     3b6:	0000                	unimp
     3b8:	09c9                	addi	s3,s3,18
     3ba:	0000                	unimp
     3bc:	0018481b          	0x18481b
     3c0:	d200                	sw	s0,32(a2)
     3c2:	0009                	c.nop	2
     3c4:	1b00                	addi	s0,sp,432
     3c6:	1858                	addi	a4,sp,52
     3c8:	0000                	unimp
     3ca:	000009db          	0x9db
     3ce:	0018881b          	0x18881b
     3d2:	c900                	sw	s0,16(a0)
     3d4:	0009                	c.nop	2
     3d6:	1b00                	addi	s0,sp,432
     3d8:	1898                	addi	a4,sp,112
     3da:	0000                	unimp
     3dc:	09d2                	slli	s3,s3,0x14
     3de:	0000                	unimp
     3e0:	0018a41b          	0x18a41b
     3e4:	db00                	sw	s0,48(a4)
     3e6:	0009                	c.nop	2
     3e8:	0000                	unimp
     3ea:	0818                	addi	a4,sp,16
     3ec:	0008                	0x8
     3ee:	7800                	flw	fs0,48(s0)
     3f0:	0000                	unimp
     3f2:	0a00                	addi	s0,sp,272
     3f4:	0004                	0x4
     3f6:	1700                	addi	s0,sp,928
     3f8:	080d                	addi	a6,a6,3
     3fa:	0000                	unimp
     3fc:	06c5                	addi	a3,a3,17
     3fe:	0000                	unimp
     400:	00081a17          	auipc	s4,0x81
     404:	f900                	fsw	fs0,48(a0)
     406:	0006                	c.slli	zero,0x1
     408:	0000                	unimp
     40a:	2819                	jal	420 <STACK_SIZE+0x20>
     40c:	0008                	0x8
     40e:	3400                	fld	fs0,40(s0)
     410:	0019                	c.nop	6
     412:	1000                	addi	s0,sp,32
     414:	0000                	unimp
     416:	2500                	fld	fs0,8(a0)
     418:	0004                	0x4
     41a:	1700                	addi	s0,sp,928
     41c:	082d                	addi	a6,a6,11
     41e:	0000                	unimp
     420:	00000717          	auipc	a4,0x0
     424:	1900                	addi	s0,sp,176
     426:	0000083b          	0x83b
     42a:	1964                	addi	s1,sp,188
     42c:	0000                	unimp
     42e:	01c0                	addi	s0,sp,196
     430:	0000                	unimp
     432:	05ca                	slli	a1,a1,0x12
     434:	0000                	unimp
     436:	00083c17          	auipc	s8,0x83
     43a:	2a00                	fld	fs0,16(a2)
     43c:	17000007          	0x17000007
     440:	0848                	addi	a0,sp,20
     442:	0000                	unimp
     444:	073d                	addi	a4,a4,15
     446:	0000                	unimp
     448:	5418                	lw	a4,40(s0)
     44a:	0008                	0x8
     44c:	9000                	0x9000
     44e:	0000                	unimp
     450:	c900                	sw	s0,16(a0)
     452:	0004                	0x4
     454:	1700                	addi	s0,sp,928
     456:	0859                	addi	a6,a6,22
     458:	0000                	unimp
     45a:	0766                	slli	a4,a4,0x19
     45c:	0000                	unimp
     45e:	661a                	flw	fa2,132(sp)
     460:	0008                	0x8
     462:	0100                	addi	s0,sp,128
     464:	1768                	addi	a0,sp,940
     466:	00000873          	0x873
     46a:	0784                	addi	s1,sp,960
     46c:	0000                	unimp
     46e:	00088017          	auipc	zero,0x88
     472:	b800                	fsd	fs0,48(s0)
     474:	17000007          	0x17000007
     478:	088d                	addi	a7,a7,3
     47a:	0000                	unimp
     47c:	07ec                	addi	a1,sp,972
     47e:	0000                	unimp
     480:	00089a17          	auipc	s4,0x89
     484:	3200                	fld	fs0,32(a2)
     486:	0008                	0x8
     488:	1700                	addi	s0,sp,928
     48a:	000008a7          	0x8a7
     48e:	0885                	addi	a7,a7,1
     490:	0000                	unimp
     492:	0019941b          	0x19941b
     496:	c900                	sw	s0,16(a0)
     498:	0009                	c.nop	2
     49a:	1b00                	addi	s0,sp,432
     49c:	19ac                	addi	a1,sp,248
     49e:	0000                	unimp
     4a0:	09d2                	slli	s3,s3,0x14
     4a2:	0000                	unimp
     4a4:	0019c01b          	0x19c01b
     4a8:	db00                	sw	s0,48(a4)
     4aa:	0009                	c.nop	2
     4ac:	1b00                	addi	s0,sp,432
     4ae:	19fc                	addi	a5,sp,252
     4b0:	0000                	unimp
     4b2:	09c9                	addi	s3,s3,18
     4b4:	0000                	unimp
     4b6:	001a0c1b          	0x1a0c1b
     4ba:	d200                	sw	s0,32(a2)
     4bc:	0009                	c.nop	2
     4be:	1b00                	addi	s0,sp,432
     4c0:	1a1c                	addi	a5,sp,304
     4c2:	0000                	unimp
     4c4:	000009db          	0x9db
     4c8:	1800                	addi	s0,sp,48
     4ca:	08b5                	addi	a7,a7,13
     4cc:	0000                	unimp
     4ce:	00d0                	addi	a2,sp,68
     4d0:	0000                	unimp
     4d2:	00000597          	auipc	a1,0x0
     4d6:	0008ba17          	auipc	s4,0x8b
     4da:	a300                	fsd	fs0,0(a4)
     4dc:	0008                	0x8
     4de:	1700                	addi	s0,sp,928
     4e0:	000008c7          	fmsub.s	fa7,ft0,ft0,ft0,rne
     4e4:	08c1                	addi	a7,a7,16
     4e6:	0000                	unimp
     4e8:	0008d417          	auipc	s0,0x8d
     4ec:	fc00                	fsw	fs0,56(s0)
     4ee:	0008                	0x8
     4f0:	1700                	addi	s0,sp,928
     4f2:	08e1                	addi	a7,a7,24
     4f4:	0000                	unimp
     4f6:	091a                	slli	s2,s2,0x6
     4f8:	0000                	unimp
     4fa:	0008ee17          	auipc	t3,0x8e
     4fe:	2d00                	fld	fs0,24(a0)
     500:	0009                	c.nop	2
     502:	1700                	addi	s0,sp,928
     504:	000008fb          	0x8fb
     508:	0940                	addi	s0,sp,148
     50a:	0000                	unimp
     50c:	081a                	slli	a6,a6,0x6
     50e:	0009                	c.nop	2
     510:	0100                	addi	s0,sp,128
     512:	09151a6b          	0x9151a6b
     516:	0000                	unimp
     518:	6101                	0x6101
     51a:	2219                	jal	620 <vprintfmt.constprop.0+0x17a>
     51c:	0009                	c.nop	2
     51e:	7000                	flw	fs0,32(s0)
     520:	001a                	c.slli	zero,0x6
     522:	1000                	addi	s0,sp,32
     524:	0000                	unimp
     526:	3a00                	fld	fs0,48(a2)
     528:	0005                	c.nop	1
     52a:	1a00                	addi	s0,sp,304
     52c:	00000927          	0x927
     530:	5a01                	li	s4,-32
     532:	341a                	fld	fs0,416(sp)
     534:	0009                	c.nop	2
     536:	0100                	addi	s0,sp,128
     538:	4219005b          	0x4219005b
     53c:	0009                	c.nop	2
     53e:	8000                	0x8000
     540:	001a                	c.slli	zero,0x6
     542:	1000                	addi	s0,sp,32
     544:	0000                	unimp
     546:	5a00                	lw	s0,48(a2)
     548:	0005                	c.nop	1
     54a:	1a00                	addi	s0,sp,304
     54c:	00000947          	fmsub.s	fs2,ft0,ft0,ft0,rne
     550:	5a01                	li	s4,-32
     552:	541a                	lw	s0,164(sp)
     554:	0009                	c.nop	2
     556:	0100                	addi	s0,sp,128
     558:	6219005b          	0x6219005b
     55c:	0009                	c.nop	2
     55e:	9000                	0x9000
     560:	001a                	c.slli	zero,0x6
     562:	1000                	addi	s0,sp,32
     564:	0000                	unimp
     566:	7a00                	flw	fs0,48(a2)
     568:	0005                	c.nop	1
     56a:	1a00                	addi	s0,sp,304
     56c:	00000967          	jalr	s2,zero # 0 <buf.1>
     570:	5a01                	li	s4,-32
     572:	741a                	flw	fs0,164(sp)
     574:	0009                	c.nop	2
     576:	0100                	addi	s0,sp,128
     578:	821c005b          	0x821c005b
     57c:	0009                	c.nop	2
     57e:	a000                	fsd	fs0,0(s0)
     580:	001a                	c.slli	zero,0x6
     582:	0c00                	addi	s0,sp,528
     584:	0000                	unimp
     586:	1a00                	addi	s0,sp,304
     588:	00000983          	lb	s3,0(zero) # 0 <buf.1>
     58c:	5a01                	li	s4,-32
     58e:	901a                	c.add	zero,t1
     590:	0009                	c.nop	2
     592:	0100                	addi	s0,sp,128
     594:	1900005b          	0x1900005b
     598:	099f 0000 1aec      	0x1aec0000099f
     59e:	0000                	unimp
     5a0:	0014                	0x14
     5a2:	0000                	unimp
     5a4:	05b2                	slli	a1,a1,0xc
     5a6:	0000                	unimp
     5a8:	0009a417          	auipc	s0,0x9a
     5ac:	8300                	0x8300
     5ae:	0009                	c.nop	2
     5b0:	0000                	unimp
     5b2:	b21c                	fsd	fa5,32(a2)
     5b4:	0009                	c.nop	2
     5b6:	0000                	unimp
     5b8:	1000001b          	0x1000001b
     5bc:	0000                	unimp
     5be:	1700                	addi	s0,sp,928
     5c0:	000009b3          	add	s3,zero,zero
     5c4:	0996                	slli	s3,s3,0x5
     5c6:	0000                	unimp
     5c8:	0000                	unimp
     5ca:	0017d41b          	0x17d41b
     5ce:	d200                	sw	s0,32(a2)
     5d0:	0009                	c.nop	2
     5d2:	0000                	unimp
     5d4:	0000                	unimp
     5d6:	631d                	lui	t1,0x7
     5d8:	0002                	c.slli64	zero
     5da:	0100                	addi	s0,sp,128
     5dc:	ae0103f7          	0xae0103f7
     5e0:	0000                	unimp
     5e2:	0300                	addi	s0,sp,384
     5e4:	000009c3          	fmadd.s	fs3,ft0,ft0,ft0,rne
     5e8:	6e1e                	flw	ft8,196(sp)
     5ea:	0100                	addi	s0,sp,128
     5ec:	ae1703f7          	0xae1703f7
     5f0:	0000                	unimp
     5f2:	1e00                	addi	s0,sp,816
     5f4:	0064                	addi	s1,sp,12
     5f6:	f701                	bnez	a4,4fe <vprintfmt.constprop.0+0x58>
     5f8:	00ae2203          	lw	tp,10(t3) # 8e504 <__C_STACK_TOP__+0x7e504>
     5fc:	0000                	unimp
     5fe:	721e                	flw	ft4,228(sp)
     600:	0070                	addi	a2,sp,12
     602:	f701                	bnez	a4,50a <vprintfmt.constprop.0+0x64>
     604:	09c32e03          	lw	t3,156(t1) # 709c <__global_pointer$+0x3f1c>
     608:	0000                	unimp
     60a:	6e1f 006e f901      	0xf901006e6e1f
     610:	01371103          	lh	sp,19(a4) # 433 <STACK_SIZE+0x33>
     614:	0000                	unimp
     616:	641f 0064 fa01      	0xfa010064641f
     61c:	01371103          	lh	sp,19(a4)
     620:	0000                	unimp
     622:	721f 0072 fb01      	0xfb010072721f
     628:	012a0b03          	lb	s6,18(s4) # 8b4e8 <__C_STACK_TOP__+0x7b4e8>
     62c:	0000                	unimp
     62e:	641f 0030 fc01      	0xfc010030641f
     634:	00960a03          	lb	s4,9(a2) # fffe4009 <__C_STACK_TOP__+0xfffd4009>
     638:	0000                	unimp
     63a:	641f 0031 fc01      	0xfc010031641f
     640:	00960e03          	lb	t3,9(a2)
     644:	0000                	unimp
     646:	6e1f 0030 fc01      	0xfc0100306e1f
     64c:	00961203          	lh	tp,9(a2)
     650:	0000                	unimp
     652:	6e1f 0031 fc01      	0xfc0100316e1f
     658:	00961603          	lh	a2,9(a2)
     65c:	0000                	unimp
     65e:	6e1f 0032 fc01      	0xfc0100326e1f
     664:	00961a03          	lh	s4,9(a2)
     668:	0000                	unimp
     66a:	711f 0030 fd01      	0xfd010030711f
     670:	00960a03          	lb	s4,9(a2)
     674:	0000                	unimp
     676:	711f 0031 fd01      	0xfd010031711f
     67c:	00960e03          	lb	t3,9(a2)
     680:	0000                	unimp
     682:	621f 0100 03fe      	0x3fe0100621f
     688:	960a                	add	a2,a2,sp
     68a:	0000                	unimp
     68c:	1f00                	addi	s0,sp,944
     68e:	6d62                	flw	fs10,24(sp)
     690:	0100                	addi	s0,sp,128
     692:	03fe                	slli	t2,t2,0x1f
     694:	960d                	srai	a2,a2,0x23
     696:	0000                	unimp
     698:	1f00                	addi	s0,sp,944
     69a:	01007777          	0x1007777
     69e:	371104c7          	fmsub.q	fs1,ft2,fa7,ft6,rne
     6a2:	0001                	nop
     6a4:	2000                	fld	fs0,0(s0)
     6a6:	06c5                	addi	a3,a3,17
     6a8:	0000                	unimp
     6aa:	8c21                	xor	s0,s0,s0
     6ac:	0002                	c.slli64	zero
     6ae:	0100                	addi	s0,sp,128
     6b0:	042e                	slli	s0,s0,0xb
     6b2:	9604                	0x9604
     6b4:	0000                	unimp
     6b6:	1f00                	addi	s0,sp,944
     6b8:	5f5f 0061 2e01      	0x2e0100615f5f
     6be:	0404                	addi	s1,sp,512
     6c0:	0096                	slli	ra,ra,0x5
     6c2:	0000                	unimp
     6c4:	2000                	fld	fs0,0(s0)
     6c6:	0726                	slli	a4,a4,0x9
     6c8:	0000                	unimp
     6ca:	3821                	jal	fffffee2 <__C_STACK_TOP__+0xfffefee2>
     6cc:	0002                	c.slli64	zero
     6ce:	0100                	addi	s0,sp,128
     6d0:	043a                	slli	s0,s0,0xe
     6d2:	9604                	0x9604
     6d4:	0000                	unimp
     6d6:	2100                	fld	fs0,0(a0)
     6d8:	00b1                	addi	ra,ra,12
     6da:	0000                	unimp
     6dc:	3a01                	jal	ffffffec <__C_STACK_TOP__+0xfffeffec>
     6de:	0404                	addi	s1,sp,512
     6e0:	0096                	slli	ra,ra,0x5
     6e2:	0000                	unimp
     6e4:	3321                	jal	3ec <printf_putch+0x6c>
     6e6:	0002                	c.slli64	zero
     6e8:	0100                	addi	s0,sp,128
     6ea:	043a                	slli	s0,s0,0xe
     6ec:	9604                	0x9604
     6ee:	0000                	unimp
     6f0:	2100                	fld	fs0,0(a0)
     6f2:	022e                	slli	tp,tp,0xb
     6f4:	0000                	unimp
     6f6:	3a01                	jal	6 <buf.1+0x6>
     6f8:	0404                	addi	s1,sp,512
     6fa:	0096                	slli	ra,ra,0x5
     6fc:	0000                	unimp
     6fe:	9621                	srai	a2,a2,0x28
     700:	0002                	c.slli64	zero
     702:	0100                	addi	s0,sp,128
     704:	043a                	slli	s0,s0,0xe
     706:	9604                	0x9604
     708:	0000                	unimp
     70a:	2100                	fld	fs0,0(a0)
     70c:	0291                	addi	t0,t0,4
     70e:	0000                	unimp
     710:	3a01                	jal	20 <CL_SIZE>
     712:	0404                	addi	s1,sp,512
     714:	0096                	slli	ra,ra,0x5
     716:	0000                	unimp
     718:	5f1f 6d5f 0100      	0x1006d5f5f1f
     71e:	043a                	slli	s0,s0,0xe
     720:	9604                	0x9604
     722:	0000                	unimp
     724:	0000                	unimp
     726:	4620                	lw	s0,72(a2)
     728:	21000007          	0x21000007
     72c:	028c                	addi	a1,sp,320
     72e:	0000                	unimp
     730:	4601                	li	a2,0
     732:	0404                	addi	s1,sp,512
     734:	0096                	slli	ra,ra,0x5
     736:	0000                	unimp
     738:	5f1f 615f 0100      	0x100615f5f1f
     73e:	0446                	slli	s0,s0,0x11
     740:	9604                	0x9604
     742:	0000                	unimp
     744:	0000                	unimp
     746:	a720                	fsd	fs0,72(a4)
     748:	21000007          	0x21000007
     74c:	0238                	addi	a4,sp,264
     74e:	0000                	unimp
     750:	5f01                	li	t5,-32
     752:	0804                	addi	s1,sp,16
     754:	0096                	slli	ra,ra,0x5
     756:	0000                	unimp
     758:	b121                	j	360 <trap_entry+0x84>
     75a:	0000                	unimp
     75c:	0100                	addi	s0,sp,128
     75e:	045f 9608 0000      	0x9608045f
     764:	2100                	fld	fs0,0(a0)
     766:	00000233          	add	tp,zero,zero
     76a:	5f01                	li	t5,-32
     76c:	0804                	addi	s1,sp,16
     76e:	0096                	slli	ra,ra,0x5
     770:	0000                	unimp
     772:	2e21                	jal	a8a <vprintfmt.constprop.0+0x5e4>
     774:	0002                	c.slli64	zero
     776:	0100                	addi	s0,sp,128
     778:	045f 9608 0000      	0x9608045f
     77e:	2100                	fld	fs0,0(a0)
     780:	0296                	slli	t0,t0,0x5
     782:	0000                	unimp
     784:	5f01                	li	t5,-32
     786:	0804                	addi	s1,sp,16
     788:	0096                	slli	ra,ra,0x5
     78a:	0000                	unimp
     78c:	9121                	srli	a0,a0,0x28
     78e:	0002                	c.slli64	zero
     790:	0100                	addi	s0,sp,128
     792:	045f 9608 0000      	0x9608045f
     798:	1f00                	addi	s0,sp,944
     79a:	5f5f 006d 5f01      	0x5f01006d5f5f
     7a0:	0804                	addi	s1,sp,16
     7a2:	0096                	slli	ra,ra,0x5
     7a4:	0000                	unimp
     7a6:	2000                	fld	fs0,0(s0)
     7a8:	0808                	addi	a0,sp,16
     7aa:	0000                	unimp
     7ac:	3821                	jal	ffffffc4 <__C_STACK_TOP__+0xfffeffc4>
     7ae:	0002                	c.slli64	zero
     7b0:	0100                	addi	s0,sp,128
     7b2:	0464                	addi	s1,sp,524
     7b4:	9604                	0x9604
     7b6:	0000                	unimp
     7b8:	2100                	fld	fs0,0(a0)
     7ba:	00b1                	addi	ra,ra,12
     7bc:	0000                	unimp
     7be:	6401                	0x6401
     7c0:	0404                	addi	s1,sp,512
     7c2:	0096                	slli	ra,ra,0x5
     7c4:	0000                	unimp
     7c6:	3321                	jal	4ce <vprintfmt.constprop.0+0x28>
     7c8:	0002                	c.slli64	zero
     7ca:	0100                	addi	s0,sp,128
     7cc:	0464                	addi	s1,sp,524
     7ce:	9604                	0x9604
     7d0:	0000                	unimp
     7d2:	2100                	fld	fs0,0(a0)
     7d4:	022e                	slli	tp,tp,0xb
     7d6:	0000                	unimp
     7d8:	6401                	0x6401
     7da:	0404                	addi	s1,sp,512
     7dc:	0096                	slli	ra,ra,0x5
     7de:	0000                	unimp
     7e0:	9621                	srai	a2,a2,0x28
     7e2:	0002                	c.slli64	zero
     7e4:	0100                	addi	s0,sp,128
     7e6:	0464                	addi	s1,sp,524
     7e8:	9604                	0x9604
     7ea:	0000                	unimp
     7ec:	2100                	fld	fs0,0(a0)
     7ee:	0291                	addi	t0,t0,4
     7f0:	0000                	unimp
     7f2:	6401                	0x6401
     7f4:	0404                	addi	s1,sp,512
     7f6:	0096                	slli	ra,ra,0x5
     7f8:	0000                	unimp
     7fa:	5f1f 6d5f 0100      	0x1006d5f5f1f
     800:	0464                	addi	s1,sp,524
     802:	9604                	0x9604
     804:	0000                	unimp
     806:	0000                	unimp
     808:	2820                	fld	fs0,80(s0)
     80a:	0008                	0x8
     80c:	2100                	fld	fs0,0(a0)
     80e:	028c                	addi	a1,sp,320
     810:	0000                	unimp
     812:	8701                	c.srai64	a4
     814:	0404                	addi	s1,sp,512
     816:	0096                	slli	ra,ra,0x5
     818:	0000                	unimp
     81a:	5f1f 615f 0100      	0x100615f5f1f
     820:	96040487          	0x96040487
     824:	0000                	unimp
     826:	0000                	unimp
     828:	3b20                	fld	fs0,112(a4)
     82a:	0008                	0x8
     82c:	1f00                	addi	s0,sp,944
     82e:	5f5f 0078 9501      	0x950100785f5f
     834:	0504                	addi	s1,sp,640
     836:	0096                	slli	ra,ra,0x5
     838:	0000                	unimp
     83a:	2200                	fld	fs0,0(a2)
     83c:	6d1f 0031 a501      	0xa50100316d1f
     842:	0f04                	addi	s1,sp,912
     844:	0096                	slli	ra,ra,0x5
     846:	0000                	unimp
     848:	6d1f 0030 a501      	0xa50100306d1f
     84e:	1304                	addi	s1,sp,416
     850:	0096                	slli	ra,ra,0x5
     852:	0000                	unimp
     854:	b520                	fsd	fs0,104(a0)
     856:	0008                	0x8
     858:	2100                	fld	fs0,0(a0)
     85a:	0238                	addi	a4,sp,264
     85c:	0000                	unimp
     85e:	b001                	j	5e <buflen.0+0x1e>
     860:	0804                	addi	s1,sp,16
     862:	0096                	slli	ra,ra,0x5
     864:	0000                	unimp
     866:	b121                	j	46e <STACK_SIZE+0x6e>
     868:	0000                	unimp
     86a:	0100                	addi	s0,sp,128
     86c:	04b0                	addi	a2,sp,584
     86e:	9608                	0x9608
     870:	0000                	unimp
     872:	2100                	fld	fs0,0(a0)
     874:	00000233          	add	tp,zero,zero
     878:	b001                	j	78 <buflen.0+0x38>
     87a:	0804                	addi	s1,sp,16
     87c:	0096                	slli	ra,ra,0x5
     87e:	0000                	unimp
     880:	2e21                	jal	b98 <vprintfmt.constprop.0+0x6f2>
     882:	0002                	c.slli64	zero
     884:	0100                	addi	s0,sp,128
     886:	04b0                	addi	a2,sp,584
     888:	9608                	0x9608
     88a:	0000                	unimp
     88c:	2100                	fld	fs0,0(a0)
     88e:	0296                	slli	t0,t0,0x5
     890:	0000                	unimp
     892:	b001                	j	92 <buflen.0+0x52>
     894:	0804                	addi	s1,sp,16
     896:	0096                	slli	ra,ra,0x5
     898:	0000                	unimp
     89a:	9121                	srli	a0,a0,0x28
     89c:	0002                	c.slli64	zero
     89e:	0100                	addi	s0,sp,128
     8a0:	04b0                	addi	a2,sp,584
     8a2:	9608                	0x9608
     8a4:	0000                	unimp
     8a6:	1f00                	addi	s0,sp,944
     8a8:	5f5f 006d b001      	0xb001006d5f5f
     8ae:	0804                	addi	s1,sp,16
     8b0:	0096                	slli	ra,ra,0x5
     8b2:	0000                	unimp
     8b4:	2000                	fld	fs0,0(s0)
     8b6:	099f 0000 ed21      	0xed210000099f
     8bc:	0001                	nop
     8be:	0100                	addi	s0,sp,128
     8c0:	04b1                	addi	s1,s1,12
     8c2:	9608                	0x9608
     8c4:	0000                	unimp
     8c6:	2100                	fld	fs0,0(a0)
     8c8:	01f2                	slli	gp,gp,0x1c
     8ca:	0000                	unimp
     8cc:	b101                	j	4cc <vprintfmt.constprop.0+0x26>
     8ce:	0804                	addi	s1,sp,16
     8d0:	0096                	slli	ra,ra,0x5
     8d2:	0000                	unimp
     8d4:	f721                	bnez	a4,81c <vprintfmt.constprop.0+0x376>
     8d6:	0001                	nop
     8d8:	0100                	addi	s0,sp,128
     8da:	04b1                	addi	s1,s1,12
     8dc:	9608                	0x9608
     8de:	0000                	unimp
     8e0:	2100                	fld	fs0,0(a0)
     8e2:	01fc                	addi	a5,sp,204
     8e4:	0000                	unimp
     8e6:	b101                	j	4e6 <vprintfmt.constprop.0+0x40>
     8e8:	0804                	addi	s1,sp,16
     8ea:	0096                	slli	ra,ra,0x5
     8ec:	0000                	unimp
     8ee:	a021                	j	8f6 <vprintfmt.constprop.0+0x450>
     8f0:	0002                	c.slli64	zero
     8f2:	0100                	addi	s0,sp,128
     8f4:	04b1                	addi	s1,s1,12
     8f6:	9608                	0x9608
     8f8:	0000                	unimp
     8fa:	2100                	fld	fs0,0(a0)
     8fc:	025e                	slli	tp,tp,0x17
     8fe:	0000                	unimp
     900:	b101                	j	500 <vprintfmt.constprop.0+0x5a>
     902:	0804                	addi	s1,sp,16
     904:	0096                	slli	ra,ra,0x5
     906:	0000                	unimp
     908:	9b21                	andi	a4,a4,-24
     90a:	0002                	c.slli64	zero
     90c:	0100                	addi	s0,sp,128
     90e:	04b1                	addi	s1,s1,12
     910:	9608                	0x9608
     912:	0000                	unimp
     914:	2100                	fld	fs0,0(a0)
     916:	00c0                	addi	s0,sp,68
     918:	0000                	unimp
     91a:	b101                	j	51a <vprintfmt.constprop.0+0x74>
     91c:	0804                	addi	s1,sp,16
     91e:	0096                	slli	ra,ra,0x5
     920:	0000                	unimp
     922:	4220                	lw	s0,64(a2)
     924:	0009                	c.nop	2
     926:	2100                	fld	fs0,0(a0)
     928:	00c5                	addi	ra,ra,17
     92a:	0000                	unimp
     92c:	b101                	j	52c <vprintfmt.constprop.0+0x86>
     92e:	0804                	addi	s1,sp,16
     930:	0096                	slli	ra,ra,0x5
     932:	0000                	unimp
     934:	cb21                	beqz	a4,984 <vprintfmt.constprop.0+0x4de>
     936:	0000                	unimp
     938:	0100                	addi	s0,sp,128
     93a:	04b1                	addi	s1,s1,12
     93c:	9608                	0x9608
     93e:	0000                	unimp
     940:	0000                	unimp
     942:	6220                	flw	fs0,64(a2)
     944:	0009                	c.nop	2
     946:	2100                	fld	fs0,0(a0)
     948:	00c5                	addi	ra,ra,17
     94a:	0000                	unimp
     94c:	b101                	j	54c <vprintfmt.constprop.0+0xa6>
     94e:	0804                	addi	s1,sp,16
     950:	0096                	slli	ra,ra,0x5
     952:	0000                	unimp
     954:	cb21                	beqz	a4,9a4 <vprintfmt.constprop.0+0x4fe>
     956:	0000                	unimp
     958:	0100                	addi	s0,sp,128
     95a:	04b1                	addi	s1,s1,12
     95c:	9608                	0x9608
     95e:	0000                	unimp
     960:	0000                	unimp
     962:	8220                	0x8220
     964:	0009                	c.nop	2
     966:	2100                	fld	fs0,0(a0)
     968:	00c5                	addi	ra,ra,17
     96a:	0000                	unimp
     96c:	b101                	j	56c <vprintfmt.constprop.0+0xc6>
     96e:	0804                	addi	s1,sp,16
     970:	0096                	slli	ra,ra,0x5
     972:	0000                	unimp
     974:	cb21                	beqz	a4,9c4 <vprintfmt.constprop.0+0x51e>
     976:	0000                	unimp
     978:	0100                	addi	s0,sp,128
     97a:	04b1                	addi	s1,s1,12
     97c:	9608                	0x9608
     97e:	0000                	unimp
     980:	0000                	unimp
     982:	2122                	fld	ft2,8(sp)
     984:	00c5                	addi	ra,ra,17
     986:	0000                	unimp
     988:	b101                	j	588 <vprintfmt.constprop.0+0xe2>
     98a:	0804                	addi	s1,sp,16
     98c:	0096                	slli	ra,ra,0x5
     98e:	0000                	unimp
     990:	cb21                	beqz	a4,9e0 <vprintfmt.constprop.0+0x53a>
     992:	0000                	unimp
     994:	0100                	addi	s0,sp,128
     996:	04b1                	addi	s1,s1,12
     998:	9608                	0x9608
     99a:	0000                	unimp
     99c:	0000                	unimp
     99e:	2000                	fld	fs0,0(s0)
     9a0:	09b2                	slli	s3,s3,0xc
     9a2:	0000                	unimp
     9a4:	5f1f 785f 0100      	0x100785f5f1f
     9aa:	04b6                	slli	s1,s1,0xd
     9ac:	9605                	srai	a2,a2,0x21
     9ae:	0000                	unimp
     9b0:	0000                	unimp
     9b2:	1f22                	slli	t5,t5,0x28
     9b4:	5f5f 0078 be01      	0xbe0100785f5f
     9ba:	0504                	addi	s1,sp,640
     9bc:	0096                	slli	ra,ra,0x5
     9be:	0000                	unimp
     9c0:	0000                	unimp
     9c2:	2300                	fld	fs0,0(a4)
     9c4:	ae04                	fsd	fs1,24(a2)
     9c6:	0000                	unimp
     9c8:	2400                	fld	fs0,8(s0)
     9ca:	023d                	addi	tp,tp,15
     9cc:	0000                	unimp
     9ce:	023d                	addi	tp,tp,15
     9d0:	0000                	unimp
     9d2:	d124                	sw	s1,96(a0)
     9d4:	0000                	unimp
     9d6:	d100                	sw	s0,32(a0)
     9d8:	0000                	unimp
     9da:	2400                	fld	fs0,8(s0)
     9dc:	0016                	c.slli	zero,0x5
     9de:	0000                	unimp
     9e0:	0016                	c.slli	zero,0x5
     9e2:	0000                	unimp
     9e4:	a200                	fsd	fs0,0(a2)
     9e6:	0009                	c.nop	2
     9e8:	0400                	addi	s0,sp,512
     9ea:	d800                	sw	s0,48(s0)
     9ec:	0001                	nop
     9ee:	0400                	addi	s0,sp,512
     9f0:	0501                	addi	a0,a0,0
     9f2:	0001                	nop
     9f4:	0c00                	addi	s0,sp,528
     9f6:	001f 0000 004b      	0x4b0000001f
     9fc:	0000                	unimp
     9fe:	1b24                	addi	s1,sp,440
     a00:	0000                	unimp
     a02:	05d8                	addi	a4,sp,708
     a04:	0000                	unimp
     a06:	08a2                	slli	a7,a7,0x8
     a08:	0000                	unimp
     a0a:	0802                	c.slli64	a6
     a0c:	0000e907          	0xe907
     a10:	0300                	addi	s0,sp,384
     a12:	0504                	addi	s1,sp,640
     a14:	6e69                	lui	t3,0x1a
     a16:	0074                	addi	a3,sp,12
     a18:	0402                	c.slli64	s0
     a1a:	0000f307          	0xf307
     a1e:	0200                	addi	s0,sp,256
     a20:	0508                	addi	a0,sp,640
     a22:	000000db          	0xdb
     a26:	1002                	c.slli	zero,0x20
     a28:	7804                	flw	fs1,48(s0)
     a2a:	0002                	c.slli64	zero
     a2c:	0200                	addi	s0,sp,256
     a2e:	0601                	addi	a2,a2,0
     a30:	01e1                	addi	gp,gp,24
     a32:	0000                	unimp
     a34:	0102                	c.slli64	sp
     a36:	df08                	sw	a0,56(a4)
     a38:	0001                	nop
     a3a:	0200                	addi	s0,sp,256
     a3c:	0502                	c.slli64	a0
     a3e:	00b6                	slli	ra,ra,0xd
     a40:	0000                	unimp
     a42:	0202                	c.slli64	tp
     a44:	00021207          	0x21207
     a48:	0200                	addi	s0,sp,256
     a4a:	0504                	addi	s1,sp,640
     a4c:	00e0                	addi	s0,sp,76
     a4e:	0000                	unimp
     a50:	0402                	c.slli64	s0
     a52:	0000ee07          	0xee07
     a56:	0200                	addi	s0,sp,256
     a58:	0801                	addi	a6,a6,0
     a5a:	01e8                	addi	a0,sp,204
     a5c:	0000                	unimp
     a5e:	0104                	addi	s1,sp,128
     a60:	0002                	c.slli64	zero
     a62:	0200                	addi	s0,sp,256
     a64:	004f167b          	0x4f167b
     a68:	0000                	unimp
     a6a:	7905                	lui	s2,0xfffe1
     a6c:	0000                	unimp
     a6e:	0400                	addi	s0,sp,512
     a70:	0285                	addi	t0,t0,1
     a72:	0000                	unimp
     a74:	8002                	0x8002
     a76:	00002c0f          	0x2c0f
     a7a:	0400                	addi	s0,sp,512
     a7c:	0284                	addi	s1,sp,320
     a7e:	0000                	unimp
     a80:	8102                	jr	sp
     a82:	3316                	fld	ft6,352(sp)
     a84:	0000                	unimp
     a86:	0400                	addi	s0,sp,512
     a88:	0248                	addi	a0,sp,260
     a8a:	0000                	unimp
     a8c:	8402                	jr	s0
     a8e:	00003a0f          	0x3a0f
     a92:	0400                	addi	s0,sp,512
     a94:	00000247          	fmsub.s	ft4,ft0,ft0,ft0,rne
     a98:	8502                	jr	a0
     a9a:	2516                	fld	fa0,320(sp)
     a9c:	0000                	unimp
     a9e:	0200                	addi	s0,sp,256
     aa0:	0404                	addi	s1,sp,512
     aa2:	0010                	0x10
     aa4:	0000                	unimp
     aa6:	0802                	c.slli64	a6
     aa8:	00000803          	lb	a6,0(zero) # 0 <buf.1>
     aac:	0200                	addi	s0,sp,256
     aae:	0408                	addi	a0,sp,512
     ab0:	027d                	addi	tp,tp,31
     ab2:	0000                	unimp
     ab4:	1002                	c.slli	zero,0x20
     ab6:	00024f03          	lbu	t5,0(tp) # 68250 <__C_STACK_TOP__+0x58250>
     aba:	0200                	addi	s0,sp,256
     abc:	0320                	addi	s0,sp,392
     abe:	0270                	addi	a2,sp,268
     ac0:	0000                	unimp
     ac2:	0906                	slli	s2,s2,0x1
     ac4:	0002                	c.slli64	zero
     ac6:	0800                	addi	s0,sp,16
     ac8:	ed02                	fsw	ft0,152(sp)
     aca:	0a01                	addi	s4,s4,0
     acc:	0108                	addi	a0,sp,128
     ace:	0000                	unimp
     ad0:	776f6c07          	0x776f6c07
     ad4:	0200                	addi	s0,sp,256
     ad6:	01ed                	addi	gp,gp,27
     ad8:	8a1a                	mv	s4,t1
     ada:	0000                	unimp
     adc:	0000                	unimp
     ade:	0008                	0x8
     ae0:	0001                	nop
     ae2:	0200                	addi	s0,sp,256
     ae4:	01ed                	addi	gp,gp,27
     ae6:	8a1f 0000 0400      	0x40000008a1f
     aec:	0900                	addi	s0,sp,144
     aee:	0208                	addi	a0,sp,256
     af0:	01f4                	addi	a3,sp,204
     af2:	2a09                	jal	c04 <vprintfmt.constprop.0+0x75e>
     af4:	0001                	nop
     af6:	0a00                	addi	s0,sp,272
     af8:	f6020073          	0xf6020073
     afc:	1301                	addi	t1,t1,-32
     afe:	00dd                	addi	ra,ra,23
     b00:	0000                	unimp
     b02:	6c0a                	flw	fs8,128(sp)
     b04:	006c                	addi	a1,sp,12
     b06:	f702                	fsw	ft0,172(sp)
     b08:	0a01                	addi	s4,s4,0
     b0a:	00a2                	slli	ra,ra,0x8
     b0c:	0000                	unimp
     b0e:	0b00                	addi	s0,sp,400
     b10:	0000                	unimp
     b12:	0000                	unimp
     b14:	f802                	fsw	ft0,48(sp)
     b16:	0301                	addi	t1,t1,0
     b18:	0108                	addi	a0,sp,128
     b1a:	0000                	unimp
     b1c:	2a05                	jal	c4c <vprintfmt.constprop.0+0x7a6>
     b1e:	0001                	nop
     b20:	0c00                	addi	s0,sp,528
     b22:	0085                	addi	ra,ra,1
     b24:	0000                	unimp
     b26:	014c                	addi	a1,sp,132
     b28:	0000                	unimp
     b2a:	330d                	jal	84c <vprintfmt.constprop.0+0x3a6>
     b2c:	0000                	unimp
     b2e:	ff00                	fsw	fs0,56(a4)
     b30:	0500                	addi	s0,sp,640
     b32:	013c                	addi	a5,sp,136
     b34:	0000                	unimp
     b36:	d50e                	sw	gp,168(sp)
     b38:	0001                	nop
     b3a:	0200                	addi	s0,sp,256
     b3c:	0202                	c.slli64	tp
     b3e:	4c16                	lw	s8,68(sp)
     b40:	0001                	nop
     b42:	0f00                	addi	s0,sp,912
     b44:	02a5                	addi	t0,t0,9
     b46:	0000                	unimp
     b48:	2601                	jal	e48 <vprintfmt.constprop.0+0x9a2>
     b4a:	0105                	addi	sp,sp,1
     b4c:	00ae                	slli	ra,ra,0xb
     b4e:	0000                	unimp
     b50:	1b24                	addi	s1,sp,440
     b52:	0000                	unimp
     b54:	05d8                	addi	a4,sp,708
     b56:	0000                	unimp
     b58:	9c01                	0x9c01
     b5a:	00000597          	auipc	a1,0x0
     b5e:	6e10                	flw	fa2,24(a2)
     b60:	0100                	addi	s0,sp,128
     b62:	0526                	slli	a0,a0,0x9
     b64:	ae14                	fsd	fa3,24(a2)
     b66:	0000                	unimp
     b68:	a900                	fsd	fs0,16(a0)
     b6a:	0009                	c.nop	2
     b6c:	1000                	addi	s0,sp,32
     b6e:	0064                	addi	s1,sp,12
     b70:	2601                	jal	e70 <vprintfmt.constprop.0+0x9ca>
     b72:	1f05                	addi	t5,t5,-31
     b74:	00ae                	slli	ra,ra,0xb
     b76:	0000                	unimp
     b78:	0a21                	addi	s4,s4,8
     b7a:	0000                	unimp
     b7c:	9711                	srai	a4,a4,0x24
     b7e:	0005                	c.nop	1
     b80:	2400                	fld	fs0,8(s0)
     b82:	f000001b          	0xf000001b
     b86:	0000                	unimp
     b88:	0100                	addi	s0,sp,128
     b8a:	0528                	addi	a0,sp,648
     b8c:	120a                	slli	tp,tp,0x22
     b8e:	000005bf 00000ab9 	0xab9000005bf
     b96:	b412                	fsd	ft4,40(sp)
     b98:	0005                	c.nop	1
     b9a:	d900                	sw	s0,48(a0)
     b9c:	000a                	c.slli	zero,0x2
     b9e:	1200                	addi	s0,sp,288
     ba0:	05a9                	addi	a1,a1,10
     ba2:	0000                	unimp
     ba4:	0b41                	addi	s6,s6,16
     ba6:	0000                	unimp
     ba8:	0000f013          	andi	zero,ra,0
     bac:	1400                	addi	s0,sp,544
     bae:	000005cb          	fnmsub.s	fa1,ft0,ft0,ft0,rne
     bb2:	d714                	sw	a3,40(a4)
     bb4:	0005                	c.nop	1
     bb6:	1400                	addi	s0,sp,544
     bb8:	000005e3          	beqz	zero,13c2 <vprintfmt.constprop.0+0xf1c>
     bbc:	ef15                	bnez	a4,bf8 <vprintfmt.constprop.0+0x752>
     bbe:	0005                	c.nop	1
     bc0:	a900                	fsd	fs0,16(a0)
     bc2:	1500000b          	0x1500000b
     bc6:	000005fb          	0x5fb
     bca:	0c3a                	slli	s8,s8,0xe
     bcc:	0000                	unimp
     bce:	0715                	addi	a4,a4,5
     bd0:	0006                	c.slli	zero,0x1
     bd2:	8f00                	0x8f00
     bd4:	000c                	0xc
     bd6:	1500                	addi	s0,sp,672
     bd8:	00000613          	li	a2,0
     bdc:	0cff                	0xcff
     bde:	0000                	unimp
     be0:	1f15                	addi	t5,t5,-27
     be2:	0006                	c.slli	zero,0x1
     be4:	5f00                	lw	s0,56(a4)
     be6:	000d                	c.nop	3
     be8:	1500                	addi	s0,sp,672
     bea:	0000062b          	0x62b
     bee:	0d88                	addi	a0,sp,720
     bf0:	0000                	unimp
     bf2:	3715                	jal	b16 <vprintfmt.constprop.0+0x670>
     bf4:	0006                	c.slli	zero,0x1
     bf6:	a600                	fsd	fs0,8(a2)
     bf8:	000d                	c.nop	3
     bfa:	1500                	addi	s0,sp,672
     bfc:	00000643          	fmadd.s	fa2,ft0,ft0,ft0,rne
     c00:	0dd0                	addi	a2,sp,724
     c02:	0000                	unimp
     c04:	4e15                	li	t3,5
     c06:	0006                	c.slli	zero,0x1
     c08:	ee00                	fsw	fs0,24(a2)
     c0a:	000d                	c.nop	3
     c0c:	1400                	addi	s0,sp,544
     c0e:	065a                	slli	a2,a2,0x16
     c10:	0000                	unimp
     c12:	6616                	flw	fa2,68(sp)
     c14:	0006                	c.slli	zero,0x1
     c16:	1800                	addi	s0,sp,48
     c18:	0001                	nop
     c1a:	4d00                	lw	s0,24(a0)
     c1c:	0002                	c.slli64	zero
     c1e:	1500                	addi	s0,sp,672
     c20:	0000066b          	0x66b
     c24:	0e2d                	addi	t3,t3,11
     c26:	0000                	unimp
     c28:	7815                	lui	a6,0xfffe5
     c2a:	0006                	c.slli	zero,0x1
     c2c:	6900                	flw	fs0,16(a0)
     c2e:	000e                	c.slli	zero,0x3
     c30:	0000                	unimp
     c32:	00068617          	auipc	a2,0x68
     c36:	bc00                	fsd	fs0,56(s0)
     c38:	c800001b          	0xc800001b
     c3c:	0000                	unimp
     c3e:	d400                	sw	s0,40(s0)
     c40:	0002                	c.slli64	zero
     c42:	1500                	addi	s0,sp,672
     c44:	0000068b          	0x68b
     c48:	0e7c                	addi	a5,sp,796
     c4a:	0000                	unimp
     c4c:	9815                	andi	s0,s0,-27
     c4e:	0006                	c.slli	zero,0x1
     c50:	8f00                	0x8f00
     c52:	000e                	c.slli	zero,0x3
     c54:	1500                	addi	s0,sp,672
     c56:	06a5                	addi	a3,a3,9
     c58:	0000                	unimp
     c5a:	0ea2                	slli	t4,t4,0x8
     c5c:	0000                	unimp
     c5e:	b215                	j	582 <vprintfmt.constprop.0+0xdc>
     c60:	0006                	c.slli	zero,0x1
     c62:	c000                	sw	s0,0(s0)
     c64:	000e                	c.slli	zero,0x3
     c66:	1500                	addi	s0,sp,672
     c68:	000006bf 00000ede 	0xede000006bf
     c70:	cc15                	beqz	s0,cac <vprintfmt.constprop.0+0x806>
     c72:	0006                	c.slli	zero,0x1
     c74:	2400                	fld	fs0,8(s0)
     c76:	1500000f          	0x1500000f
     c7a:	06d9                	addi	a3,a3,22
     c7c:	0000                	unimp
     c7e:	0f42                	slli	t5,t5,0x10
     c80:	0000                	unimp
     c82:	cc18                	sw	a4,24(s0)
     c84:	8a00001b          	0x8a00001b
     c88:	0009                	c.nop	2
     c8a:	1800                	addi	s0,sp,48
     c8c:	1be0                	addi	s0,sp,508
     c8e:	0000                	unimp
     c90:	00000993          	li	s3,0
     c94:	f418                	fsw	fa4,40(s0)
     c96:	9c00001b          	0x9c00001b
     c9a:	0009                	c.nop	2
     c9c:	1800                	addi	s0,sp,48
     c9e:	1c30                	addi	a2,sp,568
     ca0:	0000                	unimp
     ca2:	098a                	slli	s3,s3,0x2
     ca4:	0000                	unimp
     ca6:	4018                	lw	a4,0(s0)
     ca8:	001c                	0x1c
     caa:	9300                	0x9300
     cac:	0009                	c.nop	2
     cae:	1800                	addi	s0,sp,48
     cb0:	1c5c                	addi	a5,sp,564
     cb2:	0000                	unimp
     cb4:	099c                	addi	a5,sp,208
     cb6:	0000                	unimp
     cb8:	1600                	addi	s0,sp,800
     cba:	07fc                	addi	a5,sp,972
     cbc:	0000                	unimp
     cbe:	0138                	addi	a4,sp,136
     cc0:	0000                	unimp
     cc2:	0441                	addi	s0,s0,16
     cc4:	0000                	unimp
     cc6:	fd15                	bnez	a0,c02 <vprintfmt.constprop.0+0x75c>
     cc8:	60000007          	0x60000007
     ccc:	1500000f          	0x1500000f
     cd0:	0809                	addi	a6,a6,2
     cd2:	0000                	unimp
     cd4:	00000f73          	0xf73
     cd8:	1516                	slli	a0,a0,0x25
     cda:	0008                	0x8
     cdc:	5000                	lw	s0,32(s0)
     cde:	0001                	nop
     ce0:	7600                	flw	fs0,40(a2)
     ce2:	15000003          	lb	zero,336(zero) # 150 <SIM_STOP+0x58>
     ce6:	081a                	slli	a6,a6,0x6
     ce8:	0000                	unimp
     cea:	0fb4                	addi	a3,sp,984
     cec:	0000                	unimp
     cee:	2715                	jal	1412 <vprintfmt.constprop.0+0xf6c>
     cf0:	0008                	0x8
     cf2:	d600                	sw	s0,40(a2)
     cf4:	1500000f          	0x1500000f
     cf8:	0834                	addi	a3,sp,24
     cfa:	0000                	unimp
     cfc:	0fe9                	addi	t6,t6,26
     cfe:	0000                	unimp
     d00:	4115                	li	sp,5
     d02:	0008                	0x8
     d04:	1d00                	addi	s0,sp,688
     d06:	0010                	0x10
     d08:	1500                	addi	s0,sp,672
     d0a:	084e                	slli	a6,a6,0x13
     d0c:	0000                	unimp
     d0e:	1051                	c.nop	-12
     d10:	0000                	unimp
     d12:	5b15                	li	s6,-27
     d14:	0008                	0x8
     d16:	9700                	0x9700
     d18:	0010                	0x10
     d1a:	1500                	addi	s0,sp,672
     d1c:	0868                	addi	a0,sp,28
     d1e:	0000                	unimp
     d20:	10df 0000 8818      	0x8818000010df
     d26:	001f 8a00 0009      	0x98a00001f
     d2c:	1800                	addi	s0,sp,48
     d2e:	1f9c                	addi	a5,sp,1008
     d30:	0000                	unimp
     d32:	00000993          	li	s3,0
     d36:	b018                	fsd	fa4,32(s0)
     d38:	001f 9c00 0009      	0x99c00001f
     d3e:	1800                	addi	s0,sp,48
     d40:	1fec                	addi	a1,sp,1020
     d42:	0000                	unimp
     d44:	098a                	slli	s3,s3,0x2
     d46:	0000                	unimp
     d48:	fc18                	fsw	fa4,56(s0)
     d4a:	001f 9300 0009      	0x99300001f
     d50:	1800                	addi	s0,sp,48
     d52:	2018                	fld	fa4,0(s0)
     d54:	0000                	unimp
     d56:	099c                	addi	a5,sp,208
     d58:	0000                	unimp
     d5a:	1900                	addi	s0,sp,176
     d5c:	0876                	slli	a6,a6,0x1d
     d5e:	0000                	unimp
     d60:	0178                	addi	a4,sp,140
     d62:	0000                	unimp
     d64:	7b15                	lui	s6,0xfffe5
     d66:	0008                	0x8
     d68:	fd00                	fsw	fs0,56(a0)
     d6a:	0010                	0x10
     d6c:	1500                	addi	s0,sp,672
     d6e:	0888                	addi	a0,sp,80
     d70:	0000                	unimp
     d72:	0000111b          	0x111b
     d76:	9515                	srai	a0,a0,0x25
     d78:	0008                	0x8
     d7a:	5600                	lw	s0,40(a2)
     d7c:	0011                	c.nop	4
     d7e:	1500                	addi	s0,sp,672
     d80:	08a2                	slli	a7,a7,0x8
     d82:	0000                	unimp
     d84:	1169                	addi	sp,sp,-6
     d86:	0000                	unimp
     d88:	af15                	j	14bc <putchar+0x72>
     d8a:	0008                	0x8
     d8c:	8700                	0x8700
     d8e:	0011                	c.nop	4
     d90:	1500                	addi	s0,sp,672
     d92:	08bc                	addi	a5,sp,88
     d94:	0000                	unimp
     d96:	11da                	slli	gp,gp,0x36
     d98:	0000                	unimp
     d9a:	c915                	beqz	a0,dce <vprintfmt.constprop.0+0x928>
     d9c:	0008                	0x8
     d9e:	ed00                	fsw	fs0,24(a0)
     da0:	0011                	c.nop	4
     da2:	1500                	addi	s0,sp,672
     da4:	08d6                	slli	a7,a7,0x15
     da6:	0000                	unimp
     da8:	1200                	addi	s0,sp,288
     daa:	0000                	unimp
     dac:	0008e317          	auipc	t1,0x8e
     db0:	6000                	flw	fs0,0(s0)
     db2:	0020                	addi	s0,sp,8
     db4:	1000                	addi	s0,sp,32
     db6:	0000                	unimp
     db8:	e700                	fsw	fs0,8(a4)
     dba:	1a000003          	lb	zero,416(zero) # 1a0 <SIM_STOP+0xa8>
     dbe:	08e8                	addi	a0,sp,92
     dc0:	0000                	unimp
     dc2:	5a01                	li	s4,-32
     dc4:	f51a                	fsw	ft6,168(sp)
     dc6:	0008                	0x8
     dc8:	0100                	addi	s0,sp,128
     dca:	0317005b          	0x317005b
     dce:	0009                	c.nop	2
     dd0:	7000                	flw	fs0,32(s0)
     dd2:	0020                	addi	s0,sp,8
     dd4:	1000                	addi	s0,sp,32
     dd6:	0000                	unimp
     dd8:	0700                	addi	s0,sp,896
     dda:	0004                	0x4
     ddc:	1a00                	addi	s0,sp,304
     dde:	0908                	addi	a0,sp,144
     de0:	0000                	unimp
     de2:	5a01                	li	s4,-32
     de4:	151a                	slli	a0,a0,0x26
     de6:	0009                	c.nop	2
     de8:	0100                	addi	s0,sp,128
     dea:	2317005b          	0x2317005b
     dee:	0009                	c.nop	2
     df0:	8000                	0x8000
     df2:	0020                	addi	s0,sp,8
     df4:	1000                	addi	s0,sp,32
     df6:	0000                	unimp
     df8:	2700                	fld	fs0,8(a4)
     dfa:	0004                	0x4
     dfc:	1a00                	addi	s0,sp,304
     dfe:	0928                	addi	a0,sp,152
     e00:	0000                	unimp
     e02:	5a01                	li	s4,-32
     e04:	351a                	fld	fa0,416(sp)
     e06:	0009                	c.nop	2
     e08:	0100                	addi	s0,sp,128
     e0a:	4319005b          	0x4319005b
     e0e:	0009                	c.nop	2
     e10:	a800                	fsd	fs0,16(s0)
     e12:	0001                	nop
     e14:	1a00                	addi	s0,sp,304
     e16:	0944                	addi	s1,sp,148
     e18:	0000                	unimp
     e1a:	5a01                	li	s4,-32
     e1c:	511a                	lw	sp,164(sp)
     e1e:	0009                	c.nop	2
     e20:	0100                	addi	s0,sp,128
     e22:	0000005b          	0x5b
     e26:	e716                	fsw	ft5,140(sp)
     e28:	0006                	c.slli	zero,0x1
     e2a:	c000                	sw	s0,0(s0)
     e2c:	0001                	nop
     e2e:	6100                	flw	fs0,0(a0)
     e30:	0004                	0x4
     e32:	1500                	addi	s0,sp,672
     e34:	06ec                	addi	a1,sp,844
     e36:	0000                	unimp
     e38:	00001213          	slli	tp,zero,0x0
     e3c:	f915                	bnez	a0,d70 <vprintfmt.constprop.0+0x8ca>
     e3e:	0006                	c.slli	zero,0x1
     e40:	3900                	fld	fs0,48(a0)
     e42:	0012                	c.slli	zero,0x4
     e44:	0000                	unimp
     e46:	00076817          	auipc	a6,0x76
     e4a:	f000                	fsw	fs0,32(s0)
     e4c:	001c                	0x1c
     e4e:	c800                	sw	s0,16(s0)
     e50:	0000                	unimp
     e52:	e800                	fsw	fs0,16(s0)
     e54:	0004                	0x4
     e56:	1500                	addi	s0,sp,672
     e58:	076d                	addi	a4,a4,27
     e5a:	0000                	unimp
     e5c:	00001257          	0x1257
     e60:	7a15                	lui	s4,0xfffe5
     e62:	6a000007          	0x6a000007
     e66:	0012                	c.slli	zero,0x4
     e68:	1500                	addi	s0,sp,672
     e6a:	00000787          	0x787
     e6e:	127d                	addi	tp,tp,-1
     e70:	0000                	unimp
     e72:	9415                	srai	s0,s0,0x25
     e74:	9b000007          	0x9b000007
     e78:	0012                	c.slli	zero,0x4
     e7a:	1500                	addi	s0,sp,672
     e7c:	07a1                	addi	a5,a5,8
     e7e:	0000                	unimp
     e80:	12b9                	addi	t0,t0,-18
     e82:	0000                	unimp
     e84:	ae15                	j	11b8 <vprintfmt.constprop.0+0xd12>
     e86:	ff000007          	0xff000007
     e8a:	0012                	c.slli	zero,0x4
     e8c:	1500                	addi	s0,sp,672
     e8e:	000007bb          	0x7bb
     e92:	131d                	addi	t1,t1,-25
     e94:	0000                	unimp
     e96:	0018                	0x18
     e98:	001d                	c.nop	7
     e9a:	8a00                	0x8a00
     e9c:	0009                	c.nop	2
     e9e:	1800                	addi	s0,sp,48
     ea0:	1d14                	addi	a3,sp,688
     ea2:	0000                	unimp
     ea4:	00000993          	li	s3,0
     ea8:	2818                	fld	fa4,16(s0)
     eaa:	001d                	c.nop	7
     eac:	9c00                	0x9c00
     eae:	0009                	c.nop	2
     eb0:	1800                	addi	s0,sp,48
     eb2:	1d64                	addi	s1,sp,700
     eb4:	0000                	unimp
     eb6:	098a                	slli	s3,s3,0x2
     eb8:	0000                	unimp
     eba:	7418                	flw	fa4,40(s0)
     ebc:	001d                	c.nop	7
     ebe:	9300                	0x9300
     ec0:	0009                	c.nop	2
     ec2:	1800                	addi	s0,sp,48
     ec4:	1d90                	addi	a2,sp,752
     ec6:	0000                	unimp
     ec8:	099c                	addi	a5,sp,208
     eca:	0000                	unimp
     ecc:	1600                	addi	s0,sp,800
     ece:	00000707          	0x707
     ed2:	01d8                	addi	a4,sp,196
     ed4:	0000                	unimp
     ed6:	0000056b          	0x56b
     eda:	0c15                	addi	s8,s8,5
     edc:	3b000007          	0x3b000007
     ee0:	15000013          	li	zero,336
     ee4:	0719                	addi	a4,a4,6
     ee6:	0000                	unimp
     ee8:	135d                	addi	t1,t1,-9
     eea:	0000                	unimp
     eec:	2615                	jal	1210 <vprintfmt.constprop.0+0xd6a>
     eee:	70000007          	0x70000007
     ef2:	15000013          	li	zero,336
     ef6:	00000733          	add	a4,zero,zero
     efa:	13a4                	addi	s1,sp,488
     efc:	0000                	unimp
     efe:	4015                	c.li	zero,5
     f00:	d8000007          	0xd8000007
     f04:	15000013          	li	zero,336
     f08:	074d                	addi	a4,a4,19
     f0a:	0000                	unimp
     f0c:	141e                	slli	s0,s0,0x27
     f0e:	0000                	unimp
     f10:	5a15                	li	s4,-27
     f12:	5b000007          	0x5b000007
     f16:	0014                	0x14
     f18:	1800                	addi	s0,sp,48
     f1a:	1e30                	addi	a2,sp,824
     f1c:	0000                	unimp
     f1e:	098a                	slli	s3,s3,0x2
     f20:	0000                	unimp
     f22:	4418                	lw	a4,8(s0)
     f24:	001e                	c.slli	zero,0x7
     f26:	9300                	0x9300
     f28:	0009                	c.nop	2
     f2a:	1800                	addi	s0,sp,48
     f2c:	1e58                	addi	a4,sp,820
     f2e:	0000                	unimp
     f30:	099c                	addi	a5,sp,208
     f32:	0000                	unimp
     f34:	9418                	0x9418
     f36:	001e                	c.slli	zero,0x7
     f38:	8a00                	0x8a00
     f3a:	0009                	c.nop	2
     f3c:	1800                	addi	s0,sp,48
     f3e:	1ea4                	addi	s1,sp,888
     f40:	0000                	unimp
     f42:	00000993          	li	s3,0
     f46:	c018                	sw	a4,0(s0)
     f48:	001e                	c.slli	zero,0x7
     f4a:	9c00                	0x9c00
     f4c:	0009                	c.nop	2
     f4e:	0000                	unimp
     f50:	c916                	sw	t0,144(sp)
     f52:	f0000007          	0xf0000007
     f56:	0001                	nop
     f58:	8b00                	0x8b00
     f5a:	0005                	c.nop	1
     f5c:	1500                	addi	s0,sp,672
     f5e:	07ce                	slli	a5,a5,0x13
     f60:	0000                	unimp
     f62:	1479                	addi	s0,s0,-2
     f64:	0000                	unimp
     f66:	db15                	beqz	a4,e9a <vprintfmt.constprop.0+0x9f4>
     f68:	8c000007          	0x8c000007
     f6c:	0014                	0x14
     f6e:	0000                	unimp
     f70:	b418                	fsd	fa4,40(s0)
     f72:	001c                	0x1c
     f74:	9300                	0x9300
     f76:	0009                	c.nop	2
     f78:	0000                	unimp
     f7a:	0000                	unimp
     f7c:	0002631b          	0x2631b
     f80:	0100                	addi	s0,sp,128
     f82:	ae0103f7          	0xae0103f7
     f86:	0000                	unimp
     f88:	0300                	addi	s0,sp,384
     f8a:	0984                	addi	s1,sp,208
     f8c:	0000                	unimp
     f8e:	6e1c                	flw	fa5,24(a2)
     f90:	0100                	addi	s0,sp,128
     f92:	ae1703f7          	0xae1703f7
     f96:	0000                	unimp
     f98:	1c00                	addi	s0,sp,560
     f9a:	0064                	addi	s1,sp,12
     f9c:	f701                	bnez	a4,ea4 <vprintfmt.constprop.0+0x9fe>
     f9e:	00ae2203          	lw	tp,10(t3) # 1a00a <__C_STACK_TOP__+0xa00a>
     fa2:	0000                	unimp
     fa4:	721c                	flw	fa5,32(a2)
     fa6:	0070                	addi	a2,sp,12
     fa8:	f701                	bnez	a4,eb0 <vprintfmt.constprop.0+0xa0a>
     faa:	09842e03          	lw	t3,152(s0) # 9a640 <__C_STACK_TOP__+0x8a640>
     fae:	0000                	unimp
     fb0:	6e1d                	lui	t3,0x7
     fb2:	006e                	c.slli	zero,0x1b
     fb4:	f901                	bnez	a0,ec4 <vprintfmt.constprop.0+0xa1e>
     fb6:	01371103          	lh	sp,19(a4)
     fba:	0000                	unimp
     fbc:	641d                	lui	s0,0x7
     fbe:	0064                	addi	s1,sp,12
     fc0:	fa01                	bnez	a2,ed0 <vprintfmt.constprop.0+0xa2a>
     fc2:	01371103          	lh	sp,19(a4)
     fc6:	0000                	unimp
     fc8:	721d                	lui	tp,0xfffe7
     fca:	0072                	c.slli	zero,0x1c
     fcc:	fb01                	bnez	a4,edc <vprintfmt.constprop.0+0xa36>
     fce:	012a0b03          	lb	s6,18(s4) # fffe5012 <__C_STACK_TOP__+0xfffd5012>
     fd2:	0000                	unimp
     fd4:	641d                	lui	s0,0x7
     fd6:	0030                	addi	a2,sp,8
     fd8:	fc01                	bnez	s0,ef0 <vprintfmt.constprop.0+0xa4a>
     fda:	00960a03          	lb	s4,9(a2) # 68c3b <__C_STACK_TOP__+0x58c3b>
     fde:	0000                	unimp
     fe0:	641d                	lui	s0,0x7
     fe2:	0031                	c.nop	12
     fe4:	fc01                	bnez	s0,efc <vprintfmt.constprop.0+0xa56>
     fe6:	00960e03          	lb	t3,9(a2)
     fea:	0000                	unimp
     fec:	6e1d                	lui	t3,0x7
     fee:	0030                	addi	a2,sp,8
     ff0:	fc01                	bnez	s0,f08 <vprintfmt.constprop.0+0xa62>
     ff2:	00961203          	lh	tp,9(a2)
     ff6:	0000                	unimp
     ff8:	6e1d                	lui	t3,0x7
     ffa:	0031                	c.nop	12
     ffc:	fc01                	bnez	s0,f14 <vprintfmt.constprop.0+0xa6e>
     ffe:	00961603          	lh	a2,9(a2)
    1002:	0000                	unimp
    1004:	6e1d                	lui	t3,0x7
    1006:	0032                	c.slli	zero,0xc
    1008:	fc01                	bnez	s0,f20 <vprintfmt.constprop.0+0xa7a>
    100a:	00961a03          	lh	s4,9(a2)
    100e:	0000                	unimp
    1010:	711d                	addi	sp,sp,-96
    1012:	0030                	addi	a2,sp,8
    1014:	fd01                	bnez	a0,f2c <vprintfmt.constprop.0+0xa86>
    1016:	00960a03          	lb	s4,9(a2)
    101a:	0000                	unimp
    101c:	711d                	addi	sp,sp,-96
    101e:	0031                	c.nop	12
    1020:	fd01                	bnez	a0,f38 <vprintfmt.constprop.0+0xa92>
    1022:	00960e03          	lb	t3,9(a2)
    1026:	0000                	unimp
    1028:	621d                	lui	tp,0x7
    102a:	0100                	addi	s0,sp,128
    102c:	03fe                	slli	t2,t2,0x1f
    102e:	960a                	add	a2,a2,sp
    1030:	0000                	unimp
    1032:	1d00                	addi	s0,sp,688
    1034:	6d62                	flw	fs10,24(sp)
    1036:	0100                	addi	s0,sp,128
    1038:	03fe                	slli	t2,t2,0x1f
    103a:	960d                	srai	a2,a2,0x23
    103c:	0000                	unimp
    103e:	1d00                	addi	s0,sp,688
    1040:	01007777          	0x1007777
    1044:	371104c7          	fmsub.q	fs1,ft2,fa7,ft6,rne
    1048:	0001                	nop
    104a:	1e00                	addi	s0,sp,816
    104c:	0686                	slli	a3,a3,0x1
    104e:	0000                	unimp
    1050:	8c1f 0002 0100      	0x10000028c1f
    1056:	042e                	slli	s0,s0,0xb
    1058:	9604                	0x9604
    105a:	0000                	unimp
    105c:	1d00                	addi	s0,sp,688
    105e:	5f5f 0061 2e01      	0x2e0100615f5f
    1064:	0404                	addi	s1,sp,512
    1066:	0096                	slli	ra,ra,0x5
    1068:	0000                	unimp
    106a:	1e00                	addi	s0,sp,816
    106c:	000006e7          	jalr	a3,zero # 0 <buf.1>
    1070:	381f 0002 0100      	0x1000002381f
    1076:	043a                	slli	s0,s0,0xe
    1078:	9604                	0x9604
    107a:	0000                	unimp
    107c:	1f00                	addi	s0,sp,944
    107e:	00b1                	addi	ra,ra,12
    1080:	0000                	unimp
    1082:	3a01                	jal	992 <vprintfmt.constprop.0+0x4ec>
    1084:	0404                	addi	s1,sp,512
    1086:	0096                	slli	ra,ra,0x5
    1088:	0000                	unimp
    108a:	331f 0002 0100      	0x1000002331f
    1090:	043a                	slli	s0,s0,0xe
    1092:	9604                	0x9604
    1094:	0000                	unimp
    1096:	1f00                	addi	s0,sp,944
    1098:	022e                	slli	tp,tp,0xb
    109a:	0000                	unimp
    109c:	3a01                	jal	9ac <vprintfmt.constprop.0+0x506>
    109e:	0404                	addi	s1,sp,512
    10a0:	0096                	slli	ra,ra,0x5
    10a2:	0000                	unimp
    10a4:	961f 0002 0100      	0x1000002961f
    10aa:	043a                	slli	s0,s0,0xe
    10ac:	9604                	0x9604
    10ae:	0000                	unimp
    10b0:	1f00                	addi	s0,sp,944
    10b2:	0291                	addi	t0,t0,4
    10b4:	0000                	unimp
    10b6:	3a01                	jal	9c6 <vprintfmt.constprop.0+0x520>
    10b8:	0404                	addi	s1,sp,512
    10ba:	0096                	slli	ra,ra,0x5
    10bc:	0000                	unimp
    10be:	5f1d                	li	t5,-25
    10c0:	6d5f 0100 043a      	0x43a01006d5f
    10c6:	9604                	0x9604
    10c8:	0000                	unimp
    10ca:	0000                	unimp
    10cc:	071e                	slli	a4,a4,0x7
    10ce:	1f000007          	0x1f000007
    10d2:	028c                	addi	a1,sp,320
    10d4:	0000                	unimp
    10d6:	4601                	li	a2,0
    10d8:	0404                	addi	s1,sp,512
    10da:	0096                	slli	ra,ra,0x5
    10dc:	0000                	unimp
    10de:	5f1d                	li	t5,-25
    10e0:	615f 0100 0446      	0x4460100615f
    10e6:	9604                	0x9604
    10e8:	0000                	unimp
    10ea:	0000                	unimp
    10ec:	681e                	flw	fa6,196(sp)
    10ee:	1f000007          	0x1f000007
    10f2:	0238                	addi	a4,sp,264
    10f4:	0000                	unimp
    10f6:	5f01                	li	t5,-32
    10f8:	0804                	addi	s1,sp,16
    10fa:	0096                	slli	ra,ra,0x5
    10fc:	0000                	unimp
    10fe:	b11f 0000 0100      	0x1000000b11f
    1104:	045f 9608 0000      	0x9608045f
    110a:	1f00                	addi	s0,sp,944
    110c:	00000233          	add	tp,zero,zero
    1110:	5f01                	li	t5,-32
    1112:	0804                	addi	s1,sp,16
    1114:	0096                	slli	ra,ra,0x5
    1116:	0000                	unimp
    1118:	2e1f 0002 0100      	0x10000022e1f
    111e:	045f 9608 0000      	0x9608045f
    1124:	1f00                	addi	s0,sp,944
    1126:	0296                	slli	t0,t0,0x5
    1128:	0000                	unimp
    112a:	5f01                	li	t5,-32
    112c:	0804                	addi	s1,sp,16
    112e:	0096                	slli	ra,ra,0x5
    1130:	0000                	unimp
    1132:	911f 0002 0100      	0x1000002911f
    1138:	045f 9608 0000      	0x9608045f
    113e:	1d00                	addi	s0,sp,688
    1140:	5f5f 006d 5f01      	0x5f01006d5f5f
    1146:	0804                	addi	s1,sp,16
    1148:	0096                	slli	ra,ra,0x5
    114a:	0000                	unimp
    114c:	1e00                	addi	s0,sp,816
    114e:	07c9                	addi	a5,a5,18
    1150:	0000                	unimp
    1152:	381f 0002 0100      	0x1000002381f
    1158:	0464                	addi	s1,sp,524
    115a:	9604                	0x9604
    115c:	0000                	unimp
    115e:	1f00                	addi	s0,sp,944
    1160:	00b1                	addi	ra,ra,12
    1162:	0000                	unimp
    1164:	6401                	0x6401
    1166:	0404                	addi	s1,sp,512
    1168:	0096                	slli	ra,ra,0x5
    116a:	0000                	unimp
    116c:	331f 0002 0100      	0x1000002331f
    1172:	0464                	addi	s1,sp,524
    1174:	9604                	0x9604
    1176:	0000                	unimp
    1178:	1f00                	addi	s0,sp,944
    117a:	022e                	slli	tp,tp,0xb
    117c:	0000                	unimp
    117e:	6401                	0x6401
    1180:	0404                	addi	s1,sp,512
    1182:	0096                	slli	ra,ra,0x5
    1184:	0000                	unimp
    1186:	961f 0002 0100      	0x1000002961f
    118c:	0464                	addi	s1,sp,524
    118e:	9604                	0x9604
    1190:	0000                	unimp
    1192:	1f00                	addi	s0,sp,944
    1194:	0291                	addi	t0,t0,4
    1196:	0000                	unimp
    1198:	6401                	0x6401
    119a:	0404                	addi	s1,sp,512
    119c:	0096                	slli	ra,ra,0x5
    119e:	0000                	unimp
    11a0:	5f1d                	li	t5,-25
    11a2:	6d5f 0100 0464      	0x46401006d5f
    11a8:	9604                	0x9604
    11aa:	0000                	unimp
    11ac:	0000                	unimp
    11ae:	e91e                	fsw	ft7,144(sp)
    11b0:	1f000007          	0x1f000007
    11b4:	028c                	addi	a1,sp,320
    11b6:	0000                	unimp
    11b8:	8701                	c.srai64	a4
    11ba:	0404                	addi	s1,sp,512
    11bc:	0096                	slli	ra,ra,0x5
    11be:	0000                	unimp
    11c0:	5f1d                	li	t5,-25
    11c2:	615f 0100 0487      	0x4870100615f
    11c8:	9604                	0x9604
    11ca:	0000                	unimp
    11cc:	0000                	unimp
    11ce:	fc1e                	fsw	ft7,56(sp)
    11d0:	1d000007          	0x1d000007
    11d4:	5f5f 0078 9501      	0x950100785f5f
    11da:	0504                	addi	s1,sp,640
    11dc:	0096                	slli	ra,ra,0x5
    11de:	0000                	unimp
    11e0:	2000                	fld	fs0,0(s0)
    11e2:	6d1d                	lui	s10,0x7
    11e4:	0031                	c.nop	12
    11e6:	a501                	j	17e6 <__moddi3+0x20a>
    11e8:	0f04                	addi	s1,sp,912
    11ea:	0096                	slli	ra,ra,0x5
    11ec:	0000                	unimp
    11ee:	6d1d                	lui	s10,0x7
    11f0:	0030                	addi	a2,sp,8
    11f2:	a501                	j	17f2 <__moddi3+0x216>
    11f4:	1304                	addi	s1,sp,416
    11f6:	0096                	slli	ra,ra,0x5
    11f8:	0000                	unimp
    11fa:	761e                	flw	fa2,228(sp)
    11fc:	0008                	0x8
    11fe:	1f00                	addi	s0,sp,944
    1200:	0238                	addi	a4,sp,264
    1202:	0000                	unimp
    1204:	b001                	j	a04 <vprintfmt.constprop.0+0x55e>
    1206:	0804                	addi	s1,sp,16
    1208:	0096                	slli	ra,ra,0x5
    120a:	0000                	unimp
    120c:	b11f 0000 0100      	0x1000000b11f
    1212:	04b0                	addi	a2,sp,584
    1214:	9608                	0x9608
    1216:	0000                	unimp
    1218:	1f00                	addi	s0,sp,944
    121a:	00000233          	add	tp,zero,zero
    121e:	b001                	j	a1e <vprintfmt.constprop.0+0x578>
    1220:	0804                	addi	s1,sp,16
    1222:	0096                	slli	ra,ra,0x5
    1224:	0000                	unimp
    1226:	2e1f 0002 0100      	0x10000022e1f
    122c:	04b0                	addi	a2,sp,584
    122e:	9608                	0x9608
    1230:	0000                	unimp
    1232:	1f00                	addi	s0,sp,944
    1234:	0296                	slli	t0,t0,0x5
    1236:	0000                	unimp
    1238:	b001                	j	a38 <vprintfmt.constprop.0+0x592>
    123a:	0804                	addi	s1,sp,16
    123c:	0096                	slli	ra,ra,0x5
    123e:	0000                	unimp
    1240:	911f 0002 0100      	0x1000002911f
    1246:	04b0                	addi	a2,sp,584
    1248:	9608                	0x9608
    124a:	0000                	unimp
    124c:	1d00                	addi	s0,sp,688
    124e:	5f5f 006d b001      	0xb001006d5f5f
    1254:	0804                	addi	s1,sp,16
    1256:	0096                	slli	ra,ra,0x5
    1258:	0000                	unimp
    125a:	1e00                	addi	s0,sp,816
    125c:	0960                	addi	s0,sp,156
    125e:	0000                	unimp
    1260:	ed1f 0001 0100      	0x1000001ed1f
    1266:	04b1                	addi	s1,s1,12
    1268:	9608                	0x9608
    126a:	0000                	unimp
    126c:	1f00                	addi	s0,sp,944
    126e:	01f2                	slli	gp,gp,0x1c
    1270:	0000                	unimp
    1272:	b101                	j	e72 <vprintfmt.constprop.0+0x9cc>
    1274:	0804                	addi	s1,sp,16
    1276:	0096                	slli	ra,ra,0x5
    1278:	0000                	unimp
    127a:	f71f 0001 0100      	0x1000001f71f
    1280:	04b1                	addi	s1,s1,12
    1282:	9608                	0x9608
    1284:	0000                	unimp
    1286:	1f00                	addi	s0,sp,944
    1288:	01fc                	addi	a5,sp,204
    128a:	0000                	unimp
    128c:	b101                	j	e8c <vprintfmt.constprop.0+0x9e6>
    128e:	0804                	addi	s1,sp,16
    1290:	0096                	slli	ra,ra,0x5
    1292:	0000                	unimp
    1294:	a01f 0002 0100      	0x1000002a01f
    129a:	04b1                	addi	s1,s1,12
    129c:	9608                	0x9608
    129e:	0000                	unimp
    12a0:	1f00                	addi	s0,sp,944
    12a2:	025e                	slli	tp,tp,0x17
    12a4:	0000                	unimp
    12a6:	b101                	j	ea6 <vprintfmt.constprop.0+0xa00>
    12a8:	0804                	addi	s1,sp,16
    12aa:	0096                	slli	ra,ra,0x5
    12ac:	0000                	unimp
    12ae:	9b1f 0002 0100      	0x10000029b1f
    12b4:	04b1                	addi	s1,s1,12
    12b6:	9608                	0x9608
    12b8:	0000                	unimp
    12ba:	1f00                	addi	s0,sp,944
    12bc:	00c0                	addi	s0,sp,68
    12be:	0000                	unimp
    12c0:	b101                	j	ec0 <vprintfmt.constprop.0+0xa1a>
    12c2:	0804                	addi	s1,sp,16
    12c4:	0096                	slli	ra,ra,0x5
    12c6:	0000                	unimp
    12c8:	031e                	slli	t1,t1,0x7
    12ca:	0009                	c.nop	2
    12cc:	1f00                	addi	s0,sp,944
    12ce:	00c5                	addi	ra,ra,17
    12d0:	0000                	unimp
    12d2:	b101                	j	ed2 <vprintfmt.constprop.0+0xa2c>
    12d4:	0804                	addi	s1,sp,16
    12d6:	0096                	slli	ra,ra,0x5
    12d8:	0000                	unimp
    12da:	cb1f 0000 0100      	0x1000000cb1f
    12e0:	04b1                	addi	s1,s1,12
    12e2:	9608                	0x9608
    12e4:	0000                	unimp
    12e6:	0000                	unimp
    12e8:	231e                	fld	ft6,448(sp)
    12ea:	0009                	c.nop	2
    12ec:	1f00                	addi	s0,sp,944
    12ee:	00c5                	addi	ra,ra,17
    12f0:	0000                	unimp
    12f2:	b101                	j	ef2 <vprintfmt.constprop.0+0xa4c>
    12f4:	0804                	addi	s1,sp,16
    12f6:	0096                	slli	ra,ra,0x5
    12f8:	0000                	unimp
    12fa:	cb1f 0000 0100      	0x1000000cb1f
    1300:	04b1                	addi	s1,s1,12
    1302:	9608                	0x9608
    1304:	0000                	unimp
    1306:	0000                	unimp
    1308:	431e                	lw	t1,196(sp)
    130a:	0009                	c.nop	2
    130c:	1f00                	addi	s0,sp,944
    130e:	00c5                	addi	ra,ra,17
    1310:	0000                	unimp
    1312:	b101                	j	f12 <vprintfmt.constprop.0+0xa6c>
    1314:	0804                	addi	s1,sp,16
    1316:	0096                	slli	ra,ra,0x5
    1318:	0000                	unimp
    131a:	cb1f 0000 0100      	0x1000000cb1f
    1320:	04b1                	addi	s1,s1,12
    1322:	9608                	0x9608
    1324:	0000                	unimp
    1326:	0000                	unimp
    1328:	1f20                	addi	s0,sp,952
    132a:	00c5                	addi	ra,ra,17
    132c:	0000                	unimp
    132e:	b101                	j	f2e <vprintfmt.constprop.0+0xa88>
    1330:	0804                	addi	s1,sp,16
    1332:	0096                	slli	ra,ra,0x5
    1334:	0000                	unimp
    1336:	cb1f 0000 0100      	0x1000000cb1f
    133c:	04b1                	addi	s1,s1,12
    133e:	9608                	0x9608
    1340:	0000                	unimp
    1342:	0000                	unimp
    1344:	1e00                	addi	s0,sp,816
    1346:	00000973          	0x973
    134a:	5f1d                	li	t5,-25
    134c:	785f 0100 04b6      	0x4b60100785f
    1352:	9605                	srai	a2,a2,0x21
    1354:	0000                	unimp
    1356:	0000                	unimp
    1358:	1d20                	addi	s0,sp,696
    135a:	5f5f 0078 be01      	0xbe0100785f5f
    1360:	0504                	addi	s1,sp,640
    1362:	0096                	slli	ra,ra,0x5
    1364:	0000                	unimp
    1366:	0000                	unimp
    1368:	2100                	fld	fs0,0(a0)
    136a:	ae04                	fsd	fs1,24(a2)
    136c:	0000                	unimp
    136e:	2200                	fld	fs0,0(a2)
    1370:	023d                	addi	tp,tp,15
    1372:	0000                	unimp
    1374:	023d                	addi	tp,tp,15
    1376:	0000                	unimp
    1378:	d122                	sw	s0,160(sp)
    137a:	0000                	unimp
    137c:	d100                	sw	s0,32(a0)
    137e:	0000                	unimp
    1380:	2200                	fld	fs0,0(a2)
    1382:	0016                	c.slli	zero,0x5
    1384:	0000                	unimp
    1386:	0016                	c.slli	zero,0x5
    1388:	0000                	unimp
    138a:	b200                	fsd	fs0,32(a2)
    138c:	0009                	c.nop	2
    138e:	0400                	addi	s0,sp,512
    1390:	9600                	0x9600
    1392:	04000003          	lb	zero,64(zero) # 40 <buflen.0>
    1396:	0501                	addi	a0,a0,0
    1398:	0001                	nop
    139a:	0c00                	addi	s0,sp,528
    139c:	001f 0000 004b      	0x4b0000001f
    13a2:	0000                	unimp
    13a4:	20fc                	fld	fa5,192(s1)
    13a6:	0000                	unimp
    13a8:	04f0                	addi	a2,sp,588
    13aa:	0000                	unimp
    13ac:	0000102b          	0x102b
    13b0:	0802                	c.slli64	a6
    13b2:	0000e907          	0xe907
    13b6:	0300                	addi	s0,sp,384
    13b8:	0504                	addi	s1,sp,640
    13ba:	6e69                	lui	t3,0x1a
    13bc:	0074                	addi	a3,sp,12
    13be:	0402                	c.slli64	s0
    13c0:	0000f307          	0xf307
    13c4:	0200                	addi	s0,sp,256
    13c6:	0508                	addi	a0,sp,640
    13c8:	000000db          	0xdb
    13cc:	1002                	c.slli	zero,0x20
    13ce:	7804                	flw	fs1,48(s0)
    13d0:	0002                	c.slli64	zero
    13d2:	0200                	addi	s0,sp,256
    13d4:	0601                	addi	a2,a2,0
    13d6:	01e1                	addi	gp,gp,24
    13d8:	0000                	unimp
    13da:	0102                	c.slli64	sp
    13dc:	df08                	sw	a0,56(a4)
    13de:	0001                	nop
    13e0:	0200                	addi	s0,sp,256
    13e2:	0502                	c.slli64	a0
    13e4:	00b6                	slli	ra,ra,0xd
    13e6:	0000                	unimp
    13e8:	0202                	c.slli64	tp
    13ea:	00021207          	0x21207
    13ee:	0200                	addi	s0,sp,256
    13f0:	0504                	addi	s1,sp,640
    13f2:	00e0                	addi	s0,sp,76
    13f4:	0000                	unimp
    13f6:	0402                	c.slli64	s0
    13f8:	0000ee07          	0xee07
    13fc:	0200                	addi	s0,sp,256
    13fe:	0801                	addi	a6,a6,0
    1400:	01e8                	addi	a0,sp,204
    1402:	0000                	unimp
    1404:	0104                	addi	s1,sp,128
    1406:	0002                	c.slli64	zero
    1408:	0200                	addi	s0,sp,256
    140a:	004f167b          	0x4f167b
    140e:	0000                	unimp
    1410:	7905                	lui	s2,0xfffe1
    1412:	0000                	unimp
    1414:	0400                	addi	s0,sp,512
    1416:	0285                	addi	t0,t0,1
    1418:	0000                	unimp
    141a:	8002                	0x8002
    141c:	00002c0f          	0x2c0f
    1420:	0400                	addi	s0,sp,512
    1422:	0284                	addi	s1,sp,320
    1424:	0000                	unimp
    1426:	8102                	jr	sp
    1428:	3316                	fld	ft6,352(sp)
    142a:	0000                	unimp
    142c:	0400                	addi	s0,sp,512
    142e:	0248                	addi	a0,sp,260
    1430:	0000                	unimp
    1432:	8402                	jr	s0
    1434:	00003a0f          	0x3a0f
    1438:	0400                	addi	s0,sp,512
    143a:	00000247          	fmsub.s	ft4,ft0,ft0,ft0,rne
    143e:	8502                	jr	a0
    1440:	2516                	fld	fa0,320(sp)
    1442:	0000                	unimp
    1444:	0200                	addi	s0,sp,256
    1446:	0404                	addi	s1,sp,512
    1448:	0010                	0x10
    144a:	0000                	unimp
    144c:	0802                	c.slli64	a6
    144e:	00000803          	lb	a6,0(zero) # 0 <buf.1>
    1452:	0200                	addi	s0,sp,256
    1454:	0408                	addi	a0,sp,512
    1456:	027d                	addi	tp,tp,31
    1458:	0000                	unimp
    145a:	1002                	c.slli	zero,0x20
    145c:	00024f03          	lbu	t5,0(tp) # 7000 <__global_pointer$+0x3e80>
    1460:	0200                	addi	s0,sp,256
    1462:	0320                	addi	s0,sp,392
    1464:	0270                	addi	a2,sp,268
    1466:	0000                	unimp
    1468:	0906                	slli	s2,s2,0x1
    146a:	0002                	c.slli64	zero
    146c:	0800                	addi	s0,sp,16
    146e:	ed02                	fsw	ft0,152(sp)
    1470:	0a01                	addi	s4,s4,0
    1472:	0108                	addi	a0,sp,128
    1474:	0000                	unimp
    1476:	776f6c07          	0x776f6c07
    147a:	0200                	addi	s0,sp,256
    147c:	01ed                	addi	gp,gp,27
    147e:	8a1a                	mv	s4,t1
    1480:	0000                	unimp
    1482:	0000                	unimp
    1484:	0008                	0x8
    1486:	0001                	nop
    1488:	0200                	addi	s0,sp,256
    148a:	01ed                	addi	gp,gp,27
    148c:	8a1f 0000 0400      	0x40000008a1f
    1492:	0900                	addi	s0,sp,144
    1494:	0208                	addi	a0,sp,256
    1496:	01f4                	addi	a3,sp,204
    1498:	2a09                	jal	15aa <strnlen+0x6>
    149a:	0001                	nop
    149c:	0a00                	addi	s0,sp,272
    149e:	f6020073          	0xf6020073
    14a2:	1301                	addi	t1,t1,-32
    14a4:	00dd                	addi	ra,ra,23
    14a6:	0000                	unimp
    14a8:	6c0a                	flw	fs8,128(sp)
    14aa:	006c                	addi	a1,sp,12
    14ac:	f702                	fsw	ft0,172(sp)
    14ae:	0a01                	addi	s4,s4,0
    14b0:	00a2                	slli	ra,ra,0x8
    14b2:	0000                	unimp
    14b4:	0b00                	addi	s0,sp,400
    14b6:	0000                	unimp
    14b8:	0000                	unimp
    14ba:	f802                	fsw	ft0,48(sp)
    14bc:	0301                	addi	t1,t1,0
    14be:	0108                	addi	a0,sp,128
    14c0:	0000                	unimp
    14c2:	2a05                	jal	15f2 <__moddi3+0x16>
    14c4:	0001                	nop
    14c6:	0c00                	addi	s0,sp,528
    14c8:	0085                	addi	ra,ra,1
    14ca:	0000                	unimp
    14cc:	014c                	addi	a1,sp,132
    14ce:	0000                	unimp
    14d0:	330d                	jal	11f2 <vprintfmt.constprop.0+0xd4c>
    14d2:	0000                	unimp
    14d4:	ff00                	fsw	fs0,56(a4)
    14d6:	0500                	addi	s0,sp,640
    14d8:	013c                	addi	a5,sp,136
    14da:	0000                	unimp
    14dc:	d50e                	sw	gp,168(sp)
    14de:	0001                	nop
    14e0:	0200                	addi	s0,sp,256
    14e2:	0202                	c.slli64	tp
    14e4:	4c16                	lw	s8,68(sp)
    14e6:	0001                	nop
    14e8:	0f00                	addi	s0,sp,912
    14ea:	000002af          	0x2af
    14ee:	1a01                	addi	s4,s4,-32
    14f0:	0105                	addi	sp,sp,1
    14f2:	00ae                	slli	ra,ra,0xb
    14f4:	0000                	unimp
    14f6:	20fc                	fld	fa5,192(s1)
    14f8:	0000                	unimp
    14fa:	04f0                	addi	a2,sp,588
    14fc:	0000                	unimp
    14fe:	9c01                	0x9c01
    1500:	000005a7          	0x5a7
    1504:	7510                	flw	fa2,40(a0)
    1506:	0100                	addi	s0,sp,128
    1508:	051a                	slli	a0,a0,0x6
    150a:	ae14                	fsd	fa3,24(a2)
    150c:	0000                	unimp
    150e:	9f00                	0x9f00
    1510:	0014                	0x14
    1512:	1000                	addi	s0,sp,32
    1514:	0076                	c.slli	zero,0x1d
    1516:	1a01                	addi	s4,s4,-32
    1518:	1f05                	addi	t5,t5,-31
    151a:	00ae                	slli	ra,ra,0xb
    151c:	0000                	unimp
    151e:	00001527          	0x1527
    1522:	7711                	lui	a4,0xfffe4
    1524:	0100                	addi	s0,sp,128
    1526:	051c                	addi	a5,sp,640
    1528:	0000ae0b          	0xae0b
    152c:	8f00                	0x8f00
    152e:	0015                	c.nop	5
    1530:	1200                	addi	s0,sp,288
    1532:	000005a7          	0x5a7
    1536:	2134                	fld	fa3,64(a0)
    1538:	0000                	unimp
    153a:	0208                	addi	a0,sp,256
    153c:	0000                	unimp
    153e:	1e01                	addi	t3,t3,-32
    1540:	0a05                	addi	s4,s4,1
    1542:	0005cf13          	xori	t5,a1,0
    1546:	b700                	fsd	fs0,40(a4)
    1548:	0015                	c.nop	5
    154a:	1300                	addi	s0,sp,416
    154c:	05c4                	addi	s1,sp,708
    154e:	0000                	unimp
    1550:	15df 0000 b913      	0xb913000015df
    1556:	0005                	c.nop	1
    1558:	2700                	fld	fs0,8(a4)
    155a:	0016                	c.slli	zero,0x5
    155c:	1400                	addi	s0,sp,544
    155e:	0208                	addi	a0,sp,256
    1560:	0000                	unimp
    1562:	db15                	beqz	a4,1496 <putchar+0x4c>
    1564:	0005                	c.nop	1
    1566:	1500                	addi	s0,sp,672
    1568:	000005e7          	jalr	a1,zero # 0 <buf.1>
    156c:	f315                	bnez	a4,1490 <putchar+0x46>
    156e:	0005                	c.nop	1
    1570:	1600                	addi	s0,sp,800
    1572:	05ff                	0x5ff
    1574:	0000                	unimp
    1576:	000016cf          	fnmadd.s	fa3,ft0,ft0,ft0,rtz
    157a:	0b16                	slli	s6,s6,0x5
    157c:	0006                	c.slli	zero,0x1
    157e:	1900                	addi	s0,sp,176
    1580:	16000017          	auipc	zero,0x16000
    1584:	00000617          	auipc	a2,0x0
    1588:	00001763          	bnez	zero,1596 <sc_printf+0x22>
    158c:	2316                	fld	ft6,320(sp)
    158e:	0006                	c.slli	zero,0x1
    1590:	b800                	fsd	fs0,48(s0)
    1592:	16000017          	auipc	zero,0x16000
    1596:	0000062f          	0x62f
    159a:	00001823          	sh	zero,16(zero) # 10 <buf.1+0x10>
    159e:	3b16                	fld	fs6,352(sp)
    15a0:	0006                	c.slli	zero,0x1
    15a2:	4c00                	lw	s0,24(s0)
    15a4:	0018                	0x18
    15a6:	1600                	addi	s0,sp,800
    15a8:	00000647          	fmsub.s	fa2,ft0,ft0,ft0,rne
    15ac:	1860                	addi	s0,sp,60
    15ae:	0000                	unimp
    15b0:	5316                	lw	t1,100(sp)
    15b2:	0006                	c.slli	zero,0x1
    15b4:	8000                	0x8000
    15b6:	0018                	0x18
    15b8:	1600                	addi	s0,sp,800
    15ba:	065e                	slli	a2,a2,0x17
    15bc:	0000                	unimp
    15be:	189e                	slli	a7,a7,0x27
    15c0:	0000                	unimp
    15c2:	6a15                	lui	s4,0x5
    15c4:	0006                	c.slli	zero,0x1
    15c6:	1700                	addi	s0,sp,928
    15c8:	0676                	slli	a2,a2,0x1d
    15ca:	0000                	unimp
    15cc:	0228                	addi	a0,sp,264
    15ce:	0000                	unimp
    15d0:	025c                	addi	a5,sp,260
    15d2:	0000                	unimp
    15d4:	7b16                	flw	fs6,100(sp)
    15d6:	0006                	c.slli	zero,0x1
    15d8:	d200                	sw	s0,32(a2)
    15da:	0018                	0x18
    15dc:	1600                	addi	s0,sp,800
    15de:	0688                	addi	a0,sp,832
    15e0:	0000                	unimp
    15e2:	18f0                	addi	a2,sp,124
    15e4:	0000                	unimp
    15e6:	1800                	addi	s0,sp,48
    15e8:	0696                	slli	a3,a3,0x5
    15ea:	0000                	unimp
    15ec:	219c                	fld	fa5,0(a1)
    15ee:	0000                	unimp
    15f0:	0000                	unimp
    15f2:	0000                	unimp
    15f4:	0295                	addi	t0,t0,5
    15f6:	0000                	unimp
    15f8:	9b19                	andi	a4,a4,-26
    15fa:	0006                	c.slli	zero,0x1
    15fc:	0100                	addi	s0,sp,128
    15fe:	1965                	addi	s2,s2,-7
    1600:	06a8                	addi	a0,sp,840
    1602:	0000                	unimp
    1604:	6601                	0x6601
    1606:	b515                	j	142a <vprintfmt.constprop.0+0xf84>
    1608:	0006                	c.slli	zero,0x1
    160a:	1500                	addi	s0,sp,672
    160c:	06c2                	slli	a3,a3,0x10
    160e:	0000                	unimp
    1610:	cf15                	beqz	a4,164c <__moddi3+0x70>
    1612:	0006                	c.slli	zero,0x1
    1614:	1500                	addi	s0,sp,672
    1616:	06dc                	addi	a5,sp,836
    1618:	0000                	unimp
    161a:	e915                	bnez	a0,164e <__moddi3+0x72>
    161c:	0006                	c.slli	zero,0x1
    161e:	0000                	unimp
    1620:	7818                	flw	fa4,48(s0)
    1622:	9c000007          	0x9c000007
    1626:	0021                	c.nop	8
    1628:	a800                	fsd	fs0,16(s0)
    162a:	0000                	unimp
    162c:	1c00                	addi	s0,sp,560
    162e:	16000003          	lb	zero,352(zero) # 160 <SIM_STOP+0x68>
    1632:	077d                	addi	a4,a4,31
    1634:	0000                	unimp
    1636:	00001903          	lh	s2,0(zero) # 0 <buf.1>
    163a:	8a16                	mv	s4,t0
    163c:	16000007          	0x16000007
    1640:	0019                	c.nop	6
    1642:	1600                	addi	s0,sp,800
    1644:	00000797          	auipc	a5,0x0
    1648:	1929                	addi	s2,s2,-22
    164a:	0000                	unimp
    164c:	a416                	fsd	ft5,8(sp)
    164e:	47000007          	0x47000007
    1652:	0019                	c.nop	6
    1654:	1600                	addi	s0,sp,800
    1656:	07b1                	addi	a5,a5,12
    1658:	0000                	unimp
    165a:	1965                	addi	s2,s2,-7
    165c:	0000                	unimp
    165e:	be16                	fsd	ft5,312(sp)
    1660:	8e000007          	0x8e000007
    1664:	0019                	c.nop	6
    1666:	1600                	addi	s0,sp,800
    1668:	000007cb          	fnmsub.s	fa5,ft0,ft0,ft0,rne
    166c:	000019b7          	lui	s3,0x1
    1670:	ac1a                	fsd	ft6,24(sp)
    1672:	0021                	c.nop	8
    1674:	9a00                	0x9a00
    1676:	0009                	c.nop	2
    1678:	1a00                	addi	s0,sp,304
    167a:	21c0                	fld	fs0,128(a1)
    167c:	0000                	unimp
    167e:	000009a3          	sb	zero,19(zero) # 13 <buf.1+0x13>
    1682:	d01a                	sw	t1,32(sp)
    1684:	0021                	c.nop	8
    1686:	ac00                	fsd	fs0,24(s0)
    1688:	0009                	c.nop	2
    168a:	1a00                	addi	s0,sp,304
    168c:	2200                	fld	fs0,0(a2)
    168e:	0000                	unimp
    1690:	099a                	slli	s3,s3,0x6
    1692:	0000                	unimp
    1694:	101a                	c.slli	zero,0x26
    1696:	0022                	c.slli	zero,0x8
    1698:	a300                	fsd	fs0,0(a4)
    169a:	0009                	c.nop	2
    169c:	1a00                	addi	s0,sp,304
    169e:	2228                	fld	fa0,64(a2)
    16a0:	0000                	unimp
    16a2:	09ac                	addi	a1,sp,216
    16a4:	0000                	unimp
    16a6:	1700                	addi	s0,sp,928
    16a8:	000006f7          	0x6f7
    16ac:	0240                	addi	s0,sp,260
    16ae:	0000                	unimp
    16b0:	033c                	addi	a5,sp,392
    16b2:	0000                	unimp
    16b4:	fc16                	fsw	ft5,56(sp)
    16b6:	0006                	c.slli	zero,0x1
    16b8:	d500                	sw	s0,40(a0)
    16ba:	0019                	c.nop	6
    16bc:	1600                	addi	s0,sp,800
    16be:	0709                	addi	a4,a4,2
    16c0:	0000                	unimp
    16c2:	000019f3          	csrrw	s3,ustatus,zero
    16c6:	1700                	addi	s0,sp,928
    16c8:	00000717          	auipc	a4,0x0
    16cc:	0260                	addi	s0,sp,268
    16ce:	0000                	unimp
    16d0:	000003bf 00071c16 	0x71c16000003bf
    16d8:	0600                	addi	s0,sp,768
    16da:	001a                	c.slli	zero,0x6
    16dc:	1600                	addi	s0,sp,800
    16de:	0729                	addi	a4,a4,10
    16e0:	0000                	unimp
    16e2:	1a28                	addi	a0,sp,312
    16e4:	0000                	unimp
    16e6:	3616                	fld	fa2,352(sp)
    16e8:	3b000007          	0x3b000007
    16ec:	001a                	c.slli	zero,0x6
    16ee:	1600                	addi	s0,sp,800
    16f0:	00000743          	fmadd.s	fa4,ft0,ft0,ft0,rne
    16f4:	1a59                	addi	s4,s4,-10
    16f6:	0000                	unimp
    16f8:	5016                	0x5016
    16fa:	77000007          	0x77000007
    16fe:	001a                	c.slli	zero,0x6
    1700:	1600                	addi	s0,sp,800
    1702:	075d                	addi	a4,a4,23
    1704:	0000                	unimp
    1706:	1aa0                	addi	s0,sp,376
    1708:	0000                	unimp
    170a:	6a16                	flw	fs4,68(sp)
    170c:	d4000007          	0xd4000007
    1710:	001a                	c.slli	zero,0x6
    1712:	1a00                	addi	s0,sp,304
    1714:	2304                	fld	fs1,0(a4)
    1716:	0000                	unimp
    1718:	099a                	slli	s3,s3,0x6
    171a:	0000                	unimp
    171c:	1c1a                	slli	s8,s8,0x26
    171e:	a3000023          	sb	a6,-1504(zero) # fffffa20 <__C_STACK_TOP__+0xfffefa20>
    1722:	0009                	c.nop	2
    1724:	1a00                	addi	s0,sp,304
    1726:	232c                	fld	fa1,64(a4)
    1728:	0000                	unimp
    172a:	09ac                	addi	a1,sp,216
    172c:	0000                	unimp
    172e:	5c1a                	lw	s8,164(sp)
    1730:	9a000023          	sb	zero,-1632(zero) # fffff9a0 <__C_STACK_TOP__+0xfffef9a0>
    1734:	0009                	c.nop	2
    1736:	1a00                	addi	s0,sp,304
    1738:	236c                	fld	fa1,192(a4)
    173a:	0000                	unimp
    173c:	000009a3          	sb	zero,19(zero) # 13 <buf.1+0x13>
    1740:	781a                	flw	fa6,164(sp)
    1742:	ac000023          	sb	zero,-1344(zero) # fffffac0 <__C_STACK_TOP__+0xfffefac0>
    1746:	0009                	c.nop	2
    1748:	0000                	unimp
    174a:	0007d917          	auipc	s2,0x7d
    174e:	8000                	0x8000
    1750:	0002                	c.slli64	zero
    1752:	df00                	sw	s0,56(a4)
    1754:	16000003          	lb	zero,352(zero) # 160 <SIM_STOP+0x68>
    1758:	07de                	slli	a5,a5,0x17
    175a:	0000                	unimp
    175c:	1af2                	slli	s5,s5,0x3c
    175e:	0000                	unimp
    1760:	eb16                	fsw	ft5,148(sp)
    1762:	05000007          	0x5000007
    1766:	0000001b          	0x1b
    176a:	f918                	fsw	fa4,48(a0)
    176c:	fc000007          	0xfc000007
    1770:	10000023          	sb	zero,256(zero) # 100 <SIM_STOP+0x8>
    1774:	0000                	unimp
    1776:	fa00                	fsw	fs0,48(a2)
    1778:	16000003          	lb	zero,352(zero) # 160 <SIM_STOP+0x68>
    177c:	07fe                	slli	a5,a5,0x1f
    177e:	0000                	unimp
    1780:	00001b23          	sh	zero,22(zero) # 16 <buf.1+0x16>
    1784:	1800                	addi	s0,sp,48
    1786:	080c                	addi	a1,sp,16
    1788:	0000                	unimp
    178a:	242c                	fld	fa1,72(s0)
    178c:	0000                	unimp
    178e:	01c0                	addi	s0,sp,196
    1790:	0000                	unimp
    1792:	0000059b          	0x59b
    1796:	0d16                	slli	s10,s10,0x5
    1798:	0008                	0x8
    179a:	3600                	fld	fs0,40(a2)
    179c:	1600001b          	0x1600001b
    17a0:	0819                	addi	a6,a6,6
    17a2:	0000                	unimp
    17a4:	1b49                	addi	s6,s6,-14
    17a6:	0000                	unimp
    17a8:	00082517          	auipc	a0,0x82
    17ac:	9800                	0x9800
    17ae:	0002                	c.slli64	zero
    17b0:	9c00                	0x9c00
    17b2:	0004                	0x4
    17b4:	1900                	addi	s0,sp,176
    17b6:	082a                	slli	a6,a6,0xa
    17b8:	0000                	unimp
    17ba:	6601                	0x6601
    17bc:	3719                	jal	16c2 <__moddi3+0xe6>
    17be:	0008                	0x8
    17c0:	0100                	addi	s0,sp,128
    17c2:	08441667          	0x8441667
    17c6:	0000                	unimp
    17c8:	1b72                	slli	s6,s6,0x3c
    17ca:	0000                	unimp
    17cc:	5116                	lw	sp,100(sp)
    17ce:	0008                	0x8
    17d0:	a600                	fsd	fs0,8(a2)
    17d2:	1600001b          	0x1600001b
    17d6:	085e                	slli	a6,a6,0x17
    17d8:	0000                	unimp
    17da:	1bda                	slli	s7,s7,0x36
    17dc:	0000                	unimp
    17de:	6b16                	flw	fs6,68(sp)
    17e0:	0008                	0x8
    17e2:	2000                	fld	fs0,0(s0)
    17e4:	001c                	0x1c
    17e6:	1600                	addi	s0,sp,800
    17e8:	0878                	addi	a4,sp,28
    17ea:	0000                	unimp
    17ec:	1c68                	addi	a0,sp,572
    17ee:	0000                	unimp
    17f0:	5c1a                	lw	s8,164(sp)
    17f2:	0024                	addi	s1,sp,8
    17f4:	9a00                	0x9a00
    17f6:	0009                	c.nop	2
    17f8:	1a00                	addi	s0,sp,304
    17fa:	2470                	fld	fa2,200(s0)
    17fc:	0000                	unimp
    17fe:	000009a3          	sb	zero,19(zero) # 13 <buf.1+0x13>
    1802:	881a                	mv	a6,t1
    1804:	0024                	addi	s1,sp,8
    1806:	ac00                	fsd	fs0,24(s0)
    1808:	0009                	c.nop	2
    180a:	1a00                	addi	s0,sp,304
    180c:	24c4                	fld	fs1,136(s1)
    180e:	0000                	unimp
    1810:	099a                	slli	s3,s3,0x6
    1812:	0000                	unimp
    1814:	d41a                	sw	t1,40(sp)
    1816:	0024                	addi	s1,sp,8
    1818:	a300                	fsd	fs0,0(a4)
    181a:	0009                	c.nop	2
    181c:	1a00                	addi	s0,sp,304
    181e:	24e4                	fld	fs1,200(s1)
    1820:	0000                	unimp
    1822:	09ac                	addi	a1,sp,216
    1824:	0000                	unimp
    1826:	1700                	addi	s0,sp,928
    1828:	0886                	slli	a7,a7,0x1
    182a:	0000                	unimp
    182c:	02d0                	addi	a2,sp,324
    182e:	0000                	unimp
    1830:	0568                	addi	a0,sp,652
    1832:	0000                	unimp
    1834:	8b16                	mv	s6,t0
    1836:	0008                	0x8
    1838:	8600                	0x8600
    183a:	001c                	0x1c
    183c:	1600                	addi	s0,sp,800
    183e:	0898                	addi	a4,sp,80
    1840:	0000                	unimp
    1842:	1ca4                	addi	s1,sp,632
    1844:	0000                	unimp
    1846:	a519                	j	1e4c <__udivdi3+0x328>
    1848:	0008                	0x8
    184a:	0100                	addi	s0,sp,128
    184c:	1656                	slli	a2,a2,0x35
    184e:	08b2                	slli	a7,a7,0xc
    1850:	0000                	unimp
    1852:	1cf1                	addi	s9,s9,-4
    1854:	0000                	unimp
    1856:	bf16                	fsd	ft5,440(sp)
    1858:	0008                	0x8
    185a:	0400                	addi	s0,sp,512
    185c:	001d                	c.nop	7
    185e:	1600                	addi	s0,sp,800
    1860:	08cc                	addi	a1,sp,84
    1862:	0000                	unimp
    1864:	00001d17          	auipc	s10,0x1
    1868:	d919                	beqz	a0,177e <__moddi3+0x1a2>
    186a:	0008                	0x8
    186c:	0100                	addi	s0,sp,128
    186e:	196a                	slli	s2,s2,0x3a
    1870:	08e6                	slli	a7,a7,0x19
    1872:	0000                	unimp
    1874:	6c01                	0x6c01
    1876:	f318                	fsw	fa4,32(a4)
    1878:	0008                	0x8
    187a:	3800                	fld	fs0,48(s0)
    187c:	0025                	c.nop	9
    187e:	1000                	addi	s0,sp,32
    1880:	0000                	unimp
    1882:	0b00                	addi	s0,sp,400
    1884:	0005                	c.nop	1
    1886:	1900                	addi	s0,sp,176
    1888:	08f8                	addi	a4,sp,92
    188a:	0000                	unimp
    188c:	5a01                	li	s4,-32
    188e:	0519                	addi	a0,a0,6
    1890:	0009                	c.nop	2
    1892:	0100                	addi	s0,sp,128
    1894:	1318005b          	0x1318005b
    1898:	0009                	c.nop	2
    189a:	4800                	lw	s0,16(s0)
    189c:	0025                	c.nop	9
    189e:	1000                	addi	s0,sp,32
    18a0:	0000                	unimp
    18a2:	2b00                	fld	fs0,16(a4)
    18a4:	0005                	c.nop	1
    18a6:	1900                	addi	s0,sp,176
    18a8:	0918                	addi	a4,sp,144
    18aa:	0000                	unimp
    18ac:	5a01                	li	s4,-32
    18ae:	2519                	jal	1eb4 <__udivdi3+0x390>
    18b0:	0009                	c.nop	2
    18b2:	0100                	addi	s0,sp,128
    18b4:	3318005b          	0x3318005b
    18b8:	0009                	c.nop	2
    18ba:	5800                	lw	s0,48(s0)
    18bc:	0025                	c.nop	9
    18be:	1000                	addi	s0,sp,32
    18c0:	0000                	unimp
    18c2:	4b00                	lw	s0,16(a4)
    18c4:	0005                	c.nop	1
    18c6:	1900                	addi	s0,sp,176
    18c8:	0938                	addi	a4,sp,152
    18ca:	0000                	unimp
    18cc:	5a01                	li	s4,-32
    18ce:	4519                	li	a0,6
    18d0:	0009                	c.nop	2
    18d2:	0100                	addi	s0,sp,128
    18d4:	531b005b          	0x531b005b
    18d8:	0009                	c.nop	2
    18da:	6800                	flw	fs0,16(s0)
    18dc:	0025                	c.nop	9
    18de:	0c00                	addi	s0,sp,528
    18e0:	0000                	unimp
    18e2:	1900                	addi	s0,sp,176
    18e4:	0954                	addi	a3,sp,148
    18e6:	0000                	unimp
    18e8:	5a01                	li	s4,-32
    18ea:	6119                	addi	sp,sp,384
    18ec:	0009                	c.nop	2
    18ee:	0100                	addi	s0,sp,128
    18f0:	1800005b          	0x1800005b
    18f4:	0970                	addi	a2,sp,156
    18f6:	0000                	unimp
    18f8:	25b4                	fld	fa3,72(a1)
    18fa:	0000                	unimp
    18fc:	0014                	0x14
    18fe:	0000                	unimp
    1900:	00000583          	lb	a1,0(zero) # 0 <buf.1>
    1904:	7516                	flw	fa0,100(sp)
    1906:	0009                	c.nop	2
    1908:	5a00                	lw	s0,48(a2)
    190a:	001d                	c.nop	7
    190c:	0000                	unimp
    190e:	0009831b          	0x9831b
    1912:	c800                	sw	s0,16(s0)
    1914:	0025                	c.nop	9
    1916:	1000                	addi	s0,sp,32
    1918:	0000                	unimp
    191a:	1600                	addi	s0,sp,800
    191c:	0984                	addi	s1,sp,208
    191e:	0000                	unimp
    1920:	1d6d                	addi	s10,s10,-5
    1922:	0000                	unimp
    1924:	0000                	unimp
    1926:	a81a                	fsd	ft6,16(sp)
    1928:	0022                	c.slli	zero,0x8
    192a:	a300                	fsd	fs0,0(a4)
    192c:	0009                	c.nop	2
    192e:	0000                	unimp
    1930:	0000                	unimp
    1932:	631c                	flw	fa5,0(a4)
    1934:	0002                	c.slli64	zero
    1936:	0100                	addi	s0,sp,128
    1938:	ae0103f7          	0xae0103f7
    193c:	0000                	unimp
    193e:	0300                	addi	s0,sp,384
    1940:	0994                	addi	a3,sp,208
    1942:	0000                	unimp
    1944:	6e1d                	lui	t3,0x7
    1946:	0100                	addi	s0,sp,128
    1948:	ae1703f7          	0xae1703f7
    194c:	0000                	unimp
    194e:	1d00                	addi	s0,sp,688
    1950:	0064                	addi	s1,sp,12
    1952:	f701                	bnez	a4,185a <__moddi3+0x27e>
    1954:	00ae2203          	lw	tp,10(t3) # 700a <__global_pointer$+0x3e8a>
    1958:	0000                	unimp
    195a:	721d                	lui	tp,0xfffe7
    195c:	0070                	addi	a2,sp,12
    195e:	f701                	bnez	a4,1866 <__moddi3+0x28a>
    1960:	09942e03          	lw	t3,153(s0) # 7099 <__global_pointer$+0x3f19>
    1964:	0000                	unimp
    1966:	6e1e                	flw	ft8,196(sp)
    1968:	006e                	c.slli	zero,0x1b
    196a:	f901                	bnez	a0,187a <__moddi3+0x29e>
    196c:	01371103          	lh	sp,19(a4) # 16db <__moddi3+0xff>
    1970:	0000                	unimp
    1972:	641e                	flw	fs0,196(sp)
    1974:	0064                	addi	s1,sp,12
    1976:	fa01                	bnez	a2,1886 <__moddi3+0x2aa>
    1978:	01371103          	lh	sp,19(a4)
    197c:	0000                	unimp
    197e:	721e                	flw	ft4,228(sp)
    1980:	0072                	c.slli	zero,0x1c
    1982:	fb01                	bnez	a4,1892 <__moddi3+0x2b6>
    1984:	012a0b03          	lb	s6,18(s4) # 5012 <__global_pointer$+0x1e92>
    1988:	0000                	unimp
    198a:	641e                	flw	fs0,196(sp)
    198c:	0030                	addi	a2,sp,8
    198e:	fc01                	bnez	s0,18a6 <__moddi3+0x2ca>
    1990:	00960a03          	lb	s4,9(a2) # 158d <sc_printf+0x19>
    1994:	0000                	unimp
    1996:	641e                	flw	fs0,196(sp)
    1998:	0031                	c.nop	12
    199a:	fc01                	bnez	s0,18b2 <__moddi3+0x2d6>
    199c:	00960e03          	lb	t3,9(a2)
    19a0:	0000                	unimp
    19a2:	6e1e                	flw	ft8,196(sp)
    19a4:	0030                	addi	a2,sp,8
    19a6:	fc01                	bnez	s0,18be <__moddi3+0x2e2>
    19a8:	00961203          	lh	tp,9(a2)
    19ac:	0000                	unimp
    19ae:	6e1e                	flw	ft8,196(sp)
    19b0:	0031                	c.nop	12
    19b2:	fc01                	bnez	s0,18ca <__moddi3+0x2ee>
    19b4:	00961603          	lh	a2,9(a2)
    19b8:	0000                	unimp
    19ba:	6e1e                	flw	ft8,196(sp)
    19bc:	0032                	c.slli	zero,0xc
    19be:	fc01                	bnez	s0,18d6 <__moddi3+0x2fa>
    19c0:	00961a03          	lh	s4,9(a2)
    19c4:	0000                	unimp
    19c6:	711e                	flw	ft2,228(sp)
    19c8:	0030                	addi	a2,sp,8
    19ca:	fd01                	bnez	a0,18e2 <__moddi3+0x306>
    19cc:	00960a03          	lb	s4,9(a2)
    19d0:	0000                	unimp
    19d2:	711e                	flw	ft2,228(sp)
    19d4:	0031                	c.nop	12
    19d6:	fd01                	bnez	a0,18ee <__moddi3+0x312>
    19d8:	00960e03          	lb	t3,9(a2)
    19dc:	0000                	unimp
    19de:	621e                	flw	ft4,196(sp)
    19e0:	0100                	addi	s0,sp,128
    19e2:	03fe                	slli	t2,t2,0x1f
    19e4:	960a                	add	a2,a2,sp
    19e6:	0000                	unimp
    19e8:	1e00                	addi	s0,sp,816
    19ea:	6d62                	flw	fs10,24(sp)
    19ec:	0100                	addi	s0,sp,128
    19ee:	03fe                	slli	t2,t2,0x1f
    19f0:	960d                	srai	a2,a2,0x23
    19f2:	0000                	unimp
    19f4:	1e00                	addi	s0,sp,816
    19f6:	01007777          	0x1007777
    19fa:	371104c7          	fmsub.q	fs1,ft2,fa7,ft6,rne
    19fe:	0001                	nop
    1a00:	1f00                	addi	s0,sp,944
    1a02:	0696                	slli	a3,a3,0x5
    1a04:	0000                	unimp
    1a06:	8c20                	0x8c20
    1a08:	0002                	c.slli64	zero
    1a0a:	0100                	addi	s0,sp,128
    1a0c:	042e                	slli	s0,s0,0xb
    1a0e:	9604                	0x9604
    1a10:	0000                	unimp
    1a12:	1e00                	addi	s0,sp,816
    1a14:	5f5f 0061 2e01      	0x2e0100615f5f
    1a1a:	0404                	addi	s1,sp,512
    1a1c:	0096                	slli	ra,ra,0x5
    1a1e:	0000                	unimp
    1a20:	1f00                	addi	s0,sp,944
    1a22:	000006f7          	0x6f7
    1a26:	3820                	fld	fs0,112(s0)
    1a28:	0002                	c.slli64	zero
    1a2a:	0100                	addi	s0,sp,128
    1a2c:	043a                	slli	s0,s0,0xe
    1a2e:	9604                	0x9604
    1a30:	0000                	unimp
    1a32:	2000                	fld	fs0,0(s0)
    1a34:	00b1                	addi	ra,ra,12
    1a36:	0000                	unimp
    1a38:	3a01                	jal	1348 <vprintfmt.constprop.0+0xea2>
    1a3a:	0404                	addi	s1,sp,512
    1a3c:	0096                	slli	ra,ra,0x5
    1a3e:	0000                	unimp
    1a40:	3320                	fld	fs0,96(a4)
    1a42:	0002                	c.slli64	zero
    1a44:	0100                	addi	s0,sp,128
    1a46:	043a                	slli	s0,s0,0xe
    1a48:	9604                	0x9604
    1a4a:	0000                	unimp
    1a4c:	2000                	fld	fs0,0(s0)
    1a4e:	022e                	slli	tp,tp,0xb
    1a50:	0000                	unimp
    1a52:	3a01                	jal	1362 <vprintfmt.constprop.0+0xebc>
    1a54:	0404                	addi	s1,sp,512
    1a56:	0096                	slli	ra,ra,0x5
    1a58:	0000                	unimp
    1a5a:	9620                	0x9620
    1a5c:	0002                	c.slli64	zero
    1a5e:	0100                	addi	s0,sp,128
    1a60:	043a                	slli	s0,s0,0xe
    1a62:	9604                	0x9604
    1a64:	0000                	unimp
    1a66:	2000                	fld	fs0,0(s0)
    1a68:	0291                	addi	t0,t0,4
    1a6a:	0000                	unimp
    1a6c:	3a01                	jal	137c <vprintfmt.constprop.0+0xed6>
    1a6e:	0404                	addi	s1,sp,512
    1a70:	0096                	slli	ra,ra,0x5
    1a72:	0000                	unimp
    1a74:	5f1e                	lw	t5,228(sp)
    1a76:	6d5f 0100 043a      	0x43a01006d5f
    1a7c:	9604                	0x9604
    1a7e:	0000                	unimp
    1a80:	0000                	unimp
    1a82:	171f 0007 2000      	0x20000007171f
    1a88:	028c                	addi	a1,sp,320
    1a8a:	0000                	unimp
    1a8c:	4601                	li	a2,0
    1a8e:	0404                	addi	s1,sp,512
    1a90:	0096                	slli	ra,ra,0x5
    1a92:	0000                	unimp
    1a94:	5f1e                	lw	t5,228(sp)
    1a96:	615f 0100 0446      	0x4460100615f
    1a9c:	9604                	0x9604
    1a9e:	0000                	unimp
    1aa0:	0000                	unimp
    1aa2:	781f 0007 2000      	0x20000007781f
    1aa8:	0238                	addi	a4,sp,264
    1aaa:	0000                	unimp
    1aac:	5f01                	li	t5,-32
    1aae:	0804                	addi	s1,sp,16
    1ab0:	0096                	slli	ra,ra,0x5
    1ab2:	0000                	unimp
    1ab4:	b120                	fsd	fs0,96(a0)
    1ab6:	0000                	unimp
    1ab8:	0100                	addi	s0,sp,128
    1aba:	045f 9608 0000      	0x9608045f
    1ac0:	2000                	fld	fs0,0(s0)
    1ac2:	00000233          	add	tp,zero,zero
    1ac6:	5f01                	li	t5,-32
    1ac8:	0804                	addi	s1,sp,16
    1aca:	0096                	slli	ra,ra,0x5
    1acc:	0000                	unimp
    1ace:	2e20                	fld	fs0,88(a2)
    1ad0:	0002                	c.slli64	zero
    1ad2:	0100                	addi	s0,sp,128
    1ad4:	045f 9608 0000      	0x9608045f
    1ada:	2000                	fld	fs0,0(s0)
    1adc:	0296                	slli	t0,t0,0x5
    1ade:	0000                	unimp
    1ae0:	5f01                	li	t5,-32
    1ae2:	0804                	addi	s1,sp,16
    1ae4:	0096                	slli	ra,ra,0x5
    1ae6:	0000                	unimp
    1ae8:	9120                	0x9120
    1aea:	0002                	c.slli64	zero
    1aec:	0100                	addi	s0,sp,128
    1aee:	045f 9608 0000      	0x9608045f
    1af4:	1e00                	addi	s0,sp,816
    1af6:	5f5f 006d 5f01      	0x5f01006d5f5f
    1afc:	0804                	addi	s1,sp,16
    1afe:	0096                	slli	ra,ra,0x5
    1b00:	0000                	unimp
    1b02:	1f00                	addi	s0,sp,944
    1b04:	07d9                	addi	a5,a5,22
    1b06:	0000                	unimp
    1b08:	3820                	fld	fs0,112(s0)
    1b0a:	0002                	c.slli64	zero
    1b0c:	0100                	addi	s0,sp,128
    1b0e:	0464                	addi	s1,sp,524
    1b10:	9604                	0x9604
    1b12:	0000                	unimp
    1b14:	2000                	fld	fs0,0(s0)
    1b16:	00b1                	addi	ra,ra,12
    1b18:	0000                	unimp
    1b1a:	6401                	0x6401
    1b1c:	0404                	addi	s1,sp,512
    1b1e:	0096                	slli	ra,ra,0x5
    1b20:	0000                	unimp
    1b22:	3320                	fld	fs0,96(a4)
    1b24:	0002                	c.slli64	zero
    1b26:	0100                	addi	s0,sp,128
    1b28:	0464                	addi	s1,sp,524
    1b2a:	9604                	0x9604
    1b2c:	0000                	unimp
    1b2e:	2000                	fld	fs0,0(s0)
    1b30:	022e                	slli	tp,tp,0xb
    1b32:	0000                	unimp
    1b34:	6401                	0x6401
    1b36:	0404                	addi	s1,sp,512
    1b38:	0096                	slli	ra,ra,0x5
    1b3a:	0000                	unimp
    1b3c:	9620                	0x9620
    1b3e:	0002                	c.slli64	zero
    1b40:	0100                	addi	s0,sp,128
    1b42:	0464                	addi	s1,sp,524
    1b44:	9604                	0x9604
    1b46:	0000                	unimp
    1b48:	2000                	fld	fs0,0(s0)
    1b4a:	0291                	addi	t0,t0,4
    1b4c:	0000                	unimp
    1b4e:	6401                	0x6401
    1b50:	0404                	addi	s1,sp,512
    1b52:	0096                	slli	ra,ra,0x5
    1b54:	0000                	unimp
    1b56:	5f1e                	lw	t5,228(sp)
    1b58:	6d5f 0100 0464      	0x46401006d5f
    1b5e:	9604                	0x9604
    1b60:	0000                	unimp
    1b62:	0000                	unimp
    1b64:	f91f 0007 2000      	0x20000007f91f
    1b6a:	028c                	addi	a1,sp,320
    1b6c:	0000                	unimp
    1b6e:	8701                	c.srai64	a4
    1b70:	0404                	addi	s1,sp,512
    1b72:	0096                	slli	ra,ra,0x5
    1b74:	0000                	unimp
    1b76:	5f1e                	lw	t5,228(sp)
    1b78:	615f 0100 0487      	0x4870100615f
    1b7e:	9604                	0x9604
    1b80:	0000                	unimp
    1b82:	0000                	unimp
    1b84:	0c1f 0008 1e00      	0x1e0000080c1f
    1b8a:	5f5f 0078 9501      	0x950100785f5f
    1b90:	0504                	addi	s1,sp,640
    1b92:	0096                	slli	ra,ra,0x5
    1b94:	0000                	unimp
    1b96:	2100                	fld	fs0,0(a0)
    1b98:	6d1e                	flw	fs10,196(sp)
    1b9a:	0031                	c.nop	12
    1b9c:	a501                	j	219c <__umoddi3+0xa0>
    1b9e:	0f04                	addi	s1,sp,912
    1ba0:	0096                	slli	ra,ra,0x5
    1ba2:	0000                	unimp
    1ba4:	6d1e                	flw	fs10,196(sp)
    1ba6:	0030                	addi	a2,sp,8
    1ba8:	a501                	j	21a8 <__umoddi3+0xac>
    1baa:	1304                	addi	s1,sp,416
    1bac:	0096                	slli	ra,ra,0x5
    1bae:	0000                	unimp
    1bb0:	861f 0008 2000      	0x20000008861f
    1bb6:	0238                	addi	a4,sp,264
    1bb8:	0000                	unimp
    1bba:	b001                	j	13ba <vprintfmt.constprop.0+0xf14>
    1bbc:	0804                	addi	s1,sp,16
    1bbe:	0096                	slli	ra,ra,0x5
    1bc0:	0000                	unimp
    1bc2:	b120                	fsd	fs0,96(a0)
    1bc4:	0000                	unimp
    1bc6:	0100                	addi	s0,sp,128
    1bc8:	04b0                	addi	a2,sp,584
    1bca:	9608                	0x9608
    1bcc:	0000                	unimp
    1bce:	2000                	fld	fs0,0(s0)
    1bd0:	00000233          	add	tp,zero,zero
    1bd4:	b001                	j	13d4 <vprintfmt.constprop.0+0xf2e>
    1bd6:	0804                	addi	s1,sp,16
    1bd8:	0096                	slli	ra,ra,0x5
    1bda:	0000                	unimp
    1bdc:	2e20                	fld	fs0,88(a2)
    1bde:	0002                	c.slli64	zero
    1be0:	0100                	addi	s0,sp,128
    1be2:	04b0                	addi	a2,sp,584
    1be4:	9608                	0x9608
    1be6:	0000                	unimp
    1be8:	2000                	fld	fs0,0(s0)
    1bea:	0296                	slli	t0,t0,0x5
    1bec:	0000                	unimp
    1bee:	b001                	j	13ee <vprintfmt.constprop.0+0xf48>
    1bf0:	0804                	addi	s1,sp,16
    1bf2:	0096                	slli	ra,ra,0x5
    1bf4:	0000                	unimp
    1bf6:	9120                	0x9120
    1bf8:	0002                	c.slli64	zero
    1bfa:	0100                	addi	s0,sp,128
    1bfc:	04b0                	addi	a2,sp,584
    1bfe:	9608                	0x9608
    1c00:	0000                	unimp
    1c02:	1e00                	addi	s0,sp,816
    1c04:	5f5f 006d b001      	0xb001006d5f5f
    1c0a:	0804                	addi	s1,sp,16
    1c0c:	0096                	slli	ra,ra,0x5
    1c0e:	0000                	unimp
    1c10:	1f00                	addi	s0,sp,944
    1c12:	0970                	addi	a2,sp,156
    1c14:	0000                	unimp
    1c16:	ed20                	fsw	fs0,88(a0)
    1c18:	0001                	nop
    1c1a:	0100                	addi	s0,sp,128
    1c1c:	04b1                	addi	s1,s1,12
    1c1e:	9608                	0x9608
    1c20:	0000                	unimp
    1c22:	2000                	fld	fs0,0(s0)
    1c24:	01f2                	slli	gp,gp,0x1c
    1c26:	0000                	unimp
    1c28:	b101                	j	1828 <__moddi3+0x24c>
    1c2a:	0804                	addi	s1,sp,16
    1c2c:	0096                	slli	ra,ra,0x5
    1c2e:	0000                	unimp
    1c30:	f720                	fsw	fs0,104(a4)
    1c32:	0001                	nop
    1c34:	0100                	addi	s0,sp,128
    1c36:	04b1                	addi	s1,s1,12
    1c38:	9608                	0x9608
    1c3a:	0000                	unimp
    1c3c:	2000                	fld	fs0,0(s0)
    1c3e:	01fc                	addi	a5,sp,204
    1c40:	0000                	unimp
    1c42:	b101                	j	1842 <__moddi3+0x266>
    1c44:	0804                	addi	s1,sp,16
    1c46:	0096                	slli	ra,ra,0x5
    1c48:	0000                	unimp
    1c4a:	a020                	fsd	fs0,64(s0)
    1c4c:	0002                	c.slli64	zero
    1c4e:	0100                	addi	s0,sp,128
    1c50:	04b1                	addi	s1,s1,12
    1c52:	9608                	0x9608
    1c54:	0000                	unimp
    1c56:	2000                	fld	fs0,0(s0)
    1c58:	025e                	slli	tp,tp,0x17
    1c5a:	0000                	unimp
    1c5c:	b101                	j	185c <__moddi3+0x280>
    1c5e:	0804                	addi	s1,sp,16
    1c60:	0096                	slli	ra,ra,0x5
    1c62:	0000                	unimp
    1c64:	9b20                	0x9b20
    1c66:	0002                	c.slli64	zero
    1c68:	0100                	addi	s0,sp,128
    1c6a:	04b1                	addi	s1,s1,12
    1c6c:	9608                	0x9608
    1c6e:	0000                	unimp
    1c70:	2000                	fld	fs0,0(s0)
    1c72:	00c0                	addi	s0,sp,68
    1c74:	0000                	unimp
    1c76:	b101                	j	1876 <__moddi3+0x29a>
    1c78:	0804                	addi	s1,sp,16
    1c7a:	0096                	slli	ra,ra,0x5
    1c7c:	0000                	unimp
    1c7e:	131f 0009 2000      	0x20000009131f
    1c84:	00c5                	addi	ra,ra,17
    1c86:	0000                	unimp
    1c88:	b101                	j	1888 <__moddi3+0x2ac>
    1c8a:	0804                	addi	s1,sp,16
    1c8c:	0096                	slli	ra,ra,0x5
    1c8e:	0000                	unimp
    1c90:	cb20                	sw	s0,80(a4)
    1c92:	0000                	unimp
    1c94:	0100                	addi	s0,sp,128
    1c96:	04b1                	addi	s1,s1,12
    1c98:	9608                	0x9608
    1c9a:	0000                	unimp
    1c9c:	0000                	unimp
    1c9e:	331f 0009 2000      	0x20000009331f
    1ca4:	00c5                	addi	ra,ra,17
    1ca6:	0000                	unimp
    1ca8:	b101                	j	18a8 <__moddi3+0x2cc>
    1caa:	0804                	addi	s1,sp,16
    1cac:	0096                	slli	ra,ra,0x5
    1cae:	0000                	unimp
    1cb0:	cb20                	sw	s0,80(a4)
    1cb2:	0000                	unimp
    1cb4:	0100                	addi	s0,sp,128
    1cb6:	04b1                	addi	s1,s1,12
    1cb8:	9608                	0x9608
    1cba:	0000                	unimp
    1cbc:	0000                	unimp
    1cbe:	531f 0009 2000      	0x20000009531f
    1cc4:	00c5                	addi	ra,ra,17
    1cc6:	0000                	unimp
    1cc8:	b101                	j	18c8 <__moddi3+0x2ec>
    1cca:	0804                	addi	s1,sp,16
    1ccc:	0096                	slli	ra,ra,0x5
    1cce:	0000                	unimp
    1cd0:	cb20                	sw	s0,80(a4)
    1cd2:	0000                	unimp
    1cd4:	0100                	addi	s0,sp,128
    1cd6:	04b1                	addi	s1,s1,12
    1cd8:	9608                	0x9608
    1cda:	0000                	unimp
    1cdc:	0000                	unimp
    1cde:	2021                	jal	1ce6 <__udivdi3+0x1c2>
    1ce0:	00c5                	addi	ra,ra,17
    1ce2:	0000                	unimp
    1ce4:	b101                	j	18e4 <__moddi3+0x308>
    1ce6:	0804                	addi	s1,sp,16
    1ce8:	0096                	slli	ra,ra,0x5
    1cea:	0000                	unimp
    1cec:	cb20                	sw	s0,80(a4)
    1cee:	0000                	unimp
    1cf0:	0100                	addi	s0,sp,128
    1cf2:	04b1                	addi	s1,s1,12
    1cf4:	9608                	0x9608
    1cf6:	0000                	unimp
    1cf8:	0000                	unimp
    1cfa:	1f00                	addi	s0,sp,944
    1cfc:	00000983          	lb	s3,0(zero) # 0 <buf.1>
    1d00:	5f1e                	lw	t5,228(sp)
    1d02:	785f 0100 04b6      	0x4b60100785f
    1d08:	9605                	srai	a2,a2,0x21
    1d0a:	0000                	unimp
    1d0c:	0000                	unimp
    1d0e:	1e21                	addi	t3,t3,-24
    1d10:	5f5f 0078 be01      	0xbe0100785f5f
    1d16:	0504                	addi	s1,sp,640
    1d18:	0096                	slli	ra,ra,0x5
    1d1a:	0000                	unimp
    1d1c:	0000                	unimp
    1d1e:	2200                	fld	fs0,0(a2)
    1d20:	ae04                	fsd	fs1,24(a2)
    1d22:	0000                	unimp
    1d24:	2300                	fld	fs0,0(a4)
    1d26:	023d                	addi	tp,tp,15
    1d28:	0000                	unimp
    1d2a:	023d                	addi	tp,tp,15
    1d2c:	0000                	unimp
    1d2e:	0000d123          	0xd123
    1d32:	d100                	sw	s0,32(a0)
    1d34:	0000                	unimp
    1d36:	2300                	fld	fs0,0(a4)
    1d38:	0016                	c.slli	zero,0x5
    1d3a:	0000                	unimp
    1d3c:	0016                	c.slli	zero,0x5
    1d3e:	0000                	unimp
    1d40:	2200                	fld	fs0,0(a2)
    1d42:	0000                	unimp
    1d44:	0200                	addi	s0,sp,256
    1d46:	6700                	flw	fs0,8(a4)
    1d48:	0005                	c.nop	1
    1d4a:	0400                	addi	s0,sp,512
    1d4c:	fc01                	bnez	s0,1c64 <__udivdi3+0x140>
    1d4e:	ec000017          	auipc	zero,0xec000
    1d52:	0025                	c.nop	9
    1d54:	1000                	addi	s0,sp,32
    1d56:	0026                	c.slli	zero,0x9
    1d58:	b900                	fsd	fs0,48(a0)
    1d5a:	0002                	c.slli64	zero
    1d5c:	4b00                	lw	s0,16(a4)
    1d5e:	0000                	unimp
    1d60:	f100                	fsw	fs0,32(a0)
    1d62:	0002                	c.slli64	zero
    1d64:	0100                	addi	s0,sp,128
    1d66:	2280                	fld	fs0,0(a3)
    1d68:	0000                	unimp
    1d6a:	0200                	addi	s0,sp,256
    1d6c:	7b00                	flw	fs0,48(a4)
    1d6e:	0005                	c.nop	1
    1d70:	0400                	addi	s0,sp,512
    1d72:	9401                	srai	s0,s0,0x20
    1d74:	0018                	0x18
    1d76:	1000                	addi	s0,sp,32
    1d78:	0026                	c.slli	zero,0x9
    1d7a:	c400                	sw	s0,8(s0)
    1d7c:	0026                	c.slli	zero,0x9
    1d7e:	ff00                	fsw	fs0,56(a4)
    1d80:	0002                	c.slli64	zero
    1d82:	4b00                	lw	s0,16(a4)
    1d84:	0000                	unimp
    1d86:	f100                	fsw	fs0,32(a0)
    1d88:	0002                	c.slli64	zero
    1d8a:	0100                	addi	s0,sp,128
    1d8c:	d380                	sw	s0,32(a5)
    1d8e:	0000                	unimp
    1d90:	0400                	addi	s0,sp,512
    1d92:	8f00                	0x8f00
    1d94:	0005                	c.nop	1
    1d96:	0400                	addi	s0,sp,512
    1d98:	3401                	jal	1798 <__moddi3+0x1bc>
    1d9a:	0c000003          	lb	zero,192(zero) # c0 <buflen.0+0x80>
    1d9e:	001f 0000 004b      	0x4b0000001f
    1da4:	0000                	unimp
    1da6:	1a02                	slli	s4,s4,0x20
    1da8:	0000                	unimp
    1daa:	0402                	c.slli64	s0
    1dac:	6905                	lui	s2,0x1
    1dae:	746e                	flw	fs0,248(sp)
    1db0:	0300                	addi	s0,sp,384
    1db2:	0704                	addi	s1,sp,896
    1db4:	000000f3          	0xf3
    1db8:	db050803          	lb	a6,-592(a0) # 83558 <__C_STACK_TOP__+0x73558>
    1dbc:	0000                	unimp
    1dbe:	0300                	addi	s0,sp,384
    1dc0:	0410                	addi	a2,sp,512
    1dc2:	0278                	addi	a4,sp,268
    1dc4:	0000                	unimp
    1dc6:	e1060103          	lb	sp,-496(a2)
    1dca:	0001                	nop
    1dcc:	0300                	addi	s0,sp,384
    1dce:	0801                	addi	a6,a6,0
    1dd0:	01df 0000 0203      	0x203000001df
    1dd6:	b605                	j	18f6 <__moddi3+0x31a>
    1dd8:	0000                	unimp
    1dda:	0300                	addi	s0,sp,384
    1ddc:	0702                	c.slli64	a4
    1dde:	0212                	slli	tp,tp,0x4
    1de0:	0000                	unimp
    1de2:	e0050403          	lb	s0,-512(a0)
    1de6:	0000                	unimp
    1de8:	0300                	addi	s0,sp,384
    1dea:	0704                	addi	s1,sp,896
    1dec:	00ee                	slli	ra,ra,0x1b
    1dee:	0000                	unimp
    1df0:	e9070803          	lb	a6,-368(a4)
    1df4:	0000                	unimp
    1df6:	0300                	addi	s0,sp,384
    1df8:	0801                	addi	a6,a6,0
    1dfa:	01e8                	addi	a0,sp,204
    1dfc:	0000                	unimp
    1dfe:	0104                	addi	s1,sp,128
    1e00:	0002                	c.slli64	zero
    1e02:	0100                	addi	s0,sp,128
    1e04:	0040167b          	0x40167b
    1e08:	0000                	unimp
    1e0a:	7105                	addi	sp,sp,-480
    1e0c:	0000                	unimp
    1e0e:	0300                	addi	s0,sp,384
    1e10:	0404                	addi	s1,sp,512
    1e12:	0010                	0x10
    1e14:	0000                	unimp
    1e16:	08030803          	lb	a6,128(t1) # 8ee2c <__C_STACK_TOP__+0x7ee2c>
    1e1a:	0000                	unimp
    1e1c:	0300                	addi	s0,sp,384
    1e1e:	0408                	addi	a0,sp,512
    1e20:	027d                	addi	tp,tp,31
    1e22:	0000                	unimp
    1e24:	4f031003          	lh	zero,1264(t1)
    1e28:	0002                	c.slli64	zero
    1e2a:	0300                	addi	s0,sp,384
    1e2c:	0320                	addi	s0,sp,392
    1e2e:	0270                	addi	a2,sp,268
    1e30:	0000                	unimp
    1e32:	7d06                	flw	fs10,96(sp)
    1e34:	0000                	unimp
    1e36:	b500                	fsd	fs0,40(a0)
    1e38:	0000                	unimp
    1e3a:	0700                	addi	s0,sp,896
    1e3c:	0024                	addi	s1,sp,8
    1e3e:	0000                	unimp
    1e40:	00ff                	0xff
    1e42:	a505                	j	2462 <__umoddi3+0x366>
    1e44:	0000                	unimp
    1e46:	0800                	addi	s0,sp,16
    1e48:	01d5                	addi	gp,gp,21
    1e4a:	0000                	unimp
    1e4c:	0201                	addi	tp,tp,0
    1e4e:	1602                	slli	a2,a2,0x20
    1e50:	00b5                	addi	ra,ra,13
    1e52:	0000                	unimp
    1e54:	ba09                	j	1766 <__moddi3+0x18a>
    1e56:	0000                	unimp
    1e58:	0200                	addi	s0,sp,256
    1e5a:	02b2                	slli	t0,t0,0xc
    1e5c:	8003050f          	0x8003050f
    1e60:	0028                	addi	a0,sp,8
	...

Disassembly of section .debug_abbrev:

00000000 <.debug_abbrev>:
   0:	1101                	addi	sp,sp,-32
   2:	2501                	jal	602 <vprintfmt.constprop.0+0x15c>
   4:	130e                	slli	t1,t1,0x23
   6:	1b0e030b          	0x1b0e030b
   a:	110e                	slli	sp,sp,0x23
   c:	1201                	addi	tp,tp,-32
   e:	1006                	c.slli	zero,0x21
  10:	02000017          	auipc	zero,0x2000
  14:	0024                	addi	s1,sp,8
  16:	0b3e0b0b          	0xb3e0b0b
  1a:	00000e03          	lb	t3,0(zero) # 0 <buf.1>
  1e:	0b002403          	lw	s0,176(zero) # b0 <buflen.0+0x70>
  22:	030b3e0b          	0x30b3e0b
  26:	0008                	0x8
  28:	0400                	addi	s0,sp,512
  2a:	0016                	c.slli	zero,0x5
  2c:	0b3a0e03          	lb	t3,179(s4)
  30:	0b390b3b          	0xb390b3b
  34:	1349                	addi	t1,t1,-14
  36:	0000                	unimp
  38:	2605                	jal	358 <trap_entry+0x7c>
  3a:	4900                	lw	s0,16(a0)
  3c:	06000013          	li	zero,96
  40:	0e030113          	addi	sp,t1,224
  44:	0b3a0b0b          	0xb3a0b0b
  48:	0b39053b          	0xb39053b
  4c:	1301                	addi	t1,t1,-32
  4e:	0000                	unimp
  50:	03000d07          	0x3000d07
  54:	3a08                	fld	fa0,48(a2)
  56:	39053b0b          	0x39053b0b
  5a:	3813490b          	0x3813490b
  5e:	0800000b          	0x800000b
  62:	000d                	c.nop	3
  64:	0b3a0e03          	lb	t3,179(s4)
  68:	0b39053b          	0xb39053b
  6c:	1349                	addi	t1,t1,-14
  6e:	0b38                	addi	a4,sp,408
  70:	0000                	unimp
  72:	1709                	addi	a4,a4,-30
  74:	0b01                	addi	s6,s6,0
  76:	3b0b3a0b          	0x3b0b3a0b
  7a:	3905                	jal	fffffcaa <__C_STACK_TOP__+0xfffefcaa>
  7c:	0013010b          	0x13010b
  80:	0a00                	addi	s0,sp,272
  82:	000d                	c.nop	3
  84:	0b3a0803          	lb	a6,179(s4)
  88:	0b39053b          	0xb39053b
  8c:	1349                	addi	t1,t1,-14
  8e:	0000                	unimp
  90:	0300160b          	0x300160b
  94:	3a0e                	fld	fs4,224(sp)
  96:	39053b0b          	0x39053b0b
  9a:	0013490b          	0x13490b
  9e:	0c00                	addi	s0,sp,528
  a0:	0101                	addi	sp,sp,0
  a2:	1349                	addi	t1,t1,-14
  a4:	1301                	addi	t1,t1,-32
  a6:	0000                	unimp
  a8:	210d                	jal	4ca <vprintfmt.constprop.0+0x24>
  aa:	4900                	lw	s0,16(a0)
  ac:	000b2f13          	slti	t5,s6,0
  b0:	0e00                	addi	s0,sp,784
  b2:	0034                	addi	a3,sp,8
  b4:	0b3a0e03          	lb	t3,179(s4)
  b8:	0b39053b          	0xb39053b
  bc:	1349                	addi	t1,t1,-14
  be:	193c193f 2e0f0000 	0x2e0f0000193c193f
  c6:	3f01                	jal	ffffffd6 <__C_STACK_TOP__+0xfffeffd6>
  c8:	0319                	addi	t1,t1,6
  ca:	3a0e                	fld	fs4,224(sp)
  cc:	39053b0b          	0x39053b0b
  d0:	4919270b          	0x4919270b
  d4:	12011113          	0x12011113
  d8:	4006                	0x4006
  da:	9718                	0x9718
  dc:	1942                	slli	s2,s2,0x30
  de:	1301                	addi	t1,t1,-32
  e0:	0000                	unimp
  e2:	0510                	addi	a2,sp,640
  e4:	0300                	addi	s0,sp,384
  e6:	3a08                	fld	fa0,48(a2)
  e8:	39053b0b          	0x39053b0b
  ec:	0213490b          	0x213490b
  f0:	11000017          	auipc	zero,0x11000
  f4:	0034                	addi	a3,sp,8
  f6:	0b3a0803          	lb	a6,179(s4)
  fa:	0b39053b          	0xb39053b
  fe:	1349                	addi	t1,t1,-14
 100:	1702                	slli	a4,a4,0x20
 102:	0000                	unimp
 104:	1d12                	slli	s10,s10,0x24
 106:	3101                	jal	fffffd06 <__C_STACK_TOP__+0xfffefd06>
 108:	55015213          	0x55015213
 10c:	590b5817          	auipc	a6,0x590b5
 110:	5705                	li	a4,-31
 112:	1300000b          	0x1300000b
 116:	0005                	c.nop	1
 118:	1331                	addi	t1,t1,-20
 11a:	1702                	slli	a4,a4,0x20
 11c:	0000                	unimp
 11e:	0514                	addi	a3,sp,640
 120:	3100                	fld	fs0,32(a0)
 122:	15000013          	li	zero,336
 126:	1755010b          	0x1755010b
 12a:	0000                	unimp
 12c:	3416                	fld	fs0,352(sp)
 12e:	3100                	fld	fs0,32(a0)
 130:	17000013          	li	zero,368
 134:	0034                	addi	a3,sp,8
 136:	1331                	addi	t1,t1,-20
 138:	1702                	slli	a4,a4,0x20
 13a:	0000                	unimp
 13c:	0b18                	addi	a4,sp,400
 13e:	3101                	jal	fffffd3e <__C_STACK_TOP__+0xfffefd3e>
 140:	01175513          	srli	a0,a4,0x11
 144:	19000013          	li	zero,400
 148:	1331010b          	0x1331010b
 14c:	0111                	addi	sp,sp,4
 14e:	0612                	slli	a2,a2,0x4
 150:	1301                	addi	t1,t1,-32
 152:	0000                	unimp
 154:	341a                	fld	fs0,416(sp)
 156:	3100                	fld	fs0,32(a0)
 158:	00180213          	addi	tp,a6,1 # 590b510d <__C_STACK_TOP__+0x590a510d>
 15c:	1b00                	addi	s0,sp,432
 15e:	8289                	srli	a3,a3,0x2
 160:	0001                	nop
 162:	0111                	addi	sp,sp,4
 164:	1331                	addi	t1,t1,-20
 166:	0000                	unimp
 168:	0b1c                	addi	a5,sp,400
 16a:	3101                	jal	fffffd6a <__C_STACK_TOP__+0xfffefd6a>
 16c:	12011113          	0x12011113
 170:	0006                	c.slli	zero,0x1
 172:	1d00                	addi	s0,sp,688
 174:	012e                	slli	sp,sp,0xb
 176:	0b3a0e03          	lb	t3,179(s4)
 17a:	0b39053b          	0xb39053b
 17e:	13491927          	0x13491927
 182:	0b20                	addi	s0,sp,408
 184:	1301                	addi	t1,t1,-32
 186:	0000                	unimp
 188:	051e                	slli	a0,a0,0x7
 18a:	0300                	addi	s0,sp,384
 18c:	3a08                	fld	fa0,48(a2)
 18e:	39053b0b          	0x39053b0b
 192:	0013490b          	0x13490b
 196:	1f00                	addi	s0,sp,944
 198:	0034                	addi	a3,sp,8
 19a:	0b3a0803          	lb	a6,179(s4)
 19e:	0b39053b          	0xb39053b
 1a2:	1349                	addi	t1,t1,-14
 1a4:	0000                	unimp
 1a6:	0b20                	addi	s0,sp,408
 1a8:	0101                	addi	sp,sp,0
 1aa:	21000013          	li	zero,528
 1ae:	0034                	addi	a3,sp,8
 1b0:	0b3a0e03          	lb	t3,179(s4)
 1b4:	0b39053b          	0xb39053b
 1b8:	1349                	addi	t1,t1,-14
 1ba:	0000                	unimp
 1bc:	0b22                	slli	s6,s6,0x8
 1be:	0001                	nop
 1c0:	2300                	fld	fs0,0(a4)
 1c2:	0b0b000f          	0xb0b000f
 1c6:	1349                	addi	t1,t1,-14
 1c8:	0000                	unimp
 1ca:	2e24                	fld	fs1,88(a2)
 1cc:	3f00                	fld	fs0,56(a4)
 1ce:	3c19                	jal	fffffbe4 <__C_STACK_TOP__+0xfffefbe4>
 1d0:	6e19                	lui	t3,0x6
 1d2:	030e                	slli	t1,t1,0x3
 1d4:	000e                	c.slli	zero,0x3
 1d6:	0000                	unimp
 1d8:	1101                	addi	sp,sp,-32
 1da:	2501                	jal	7da <vprintfmt.constprop.0+0x334>
 1dc:	130e                	slli	t1,t1,0x23
 1de:	1b0e030b          	0x1b0e030b
 1e2:	110e                	slli	sp,sp,0x23
 1e4:	1201                	addi	tp,tp,-32
 1e6:	1006                	c.slli	zero,0x21
 1e8:	02000017          	auipc	zero,0x2000
 1ec:	0024                	addi	s1,sp,8
 1ee:	0b3e0b0b          	0xb3e0b0b
 1f2:	00000e03          	lb	t3,0(zero) # 0 <buf.1>
 1f6:	0b002403          	lw	s0,176(zero) # b0 <buflen.0+0x70>
 1fa:	030b3e0b          	0x30b3e0b
 1fe:	0008                	0x8
 200:	0400                	addi	s0,sp,512
 202:	0016                	c.slli	zero,0x5
 204:	0b3a0e03          	lb	t3,179(s4)
 208:	0b390b3b          	0xb390b3b
 20c:	1349                	addi	t1,t1,-14
 20e:	0000                	unimp
 210:	2605                	jal	530 <vprintfmt.constprop.0+0x8a>
 212:	4900                	lw	s0,16(a0)
 214:	06000013          	li	zero,96
 218:	0e030113          	addi	sp,t1,224
 21c:	0b3a0b0b          	0xb3a0b0b
 220:	0b39053b          	0xb39053b
 224:	1301                	addi	t1,t1,-32
 226:	0000                	unimp
 228:	03000d07          	0x3000d07
 22c:	3a08                	fld	fa0,48(a2)
 22e:	39053b0b          	0x39053b0b
 232:	3813490b          	0x3813490b
 236:	0800000b          	0x800000b
 23a:	000d                	c.nop	3
 23c:	0b3a0e03          	lb	t3,179(s4)
 240:	0b39053b          	0xb39053b
 244:	1349                	addi	t1,t1,-14
 246:	0b38                	addi	a4,sp,408
 248:	0000                	unimp
 24a:	1709                	addi	a4,a4,-30
 24c:	0b01                	addi	s6,s6,0
 24e:	3b0b3a0b          	0x3b0b3a0b
 252:	3905                	jal	fffffe82 <__C_STACK_TOP__+0xfffefe82>
 254:	0013010b          	0x13010b
 258:	0a00                	addi	s0,sp,272
 25a:	000d                	c.nop	3
 25c:	0b3a0803          	lb	a6,179(s4)
 260:	0b39053b          	0xb39053b
 264:	1349                	addi	t1,t1,-14
 266:	0000                	unimp
 268:	0300160b          	0x300160b
 26c:	3a0e                	fld	fs4,224(sp)
 26e:	39053b0b          	0x39053b0b
 272:	0013490b          	0x13490b
 276:	0c00                	addi	s0,sp,528
 278:	0101                	addi	sp,sp,0
 27a:	1349                	addi	t1,t1,-14
 27c:	1301                	addi	t1,t1,-32
 27e:	0000                	unimp
 280:	210d                	jal	6a2 <vprintfmt.constprop.0+0x1fc>
 282:	4900                	lw	s0,16(a0)
 284:	000b2f13          	slti	t5,s6,0
 288:	0e00                	addi	s0,sp,784
 28a:	0034                	addi	a3,sp,8
 28c:	0b3a0e03          	lb	t3,179(s4)
 290:	0b39053b          	0xb39053b
 294:	1349                	addi	t1,t1,-14
 296:	193c193f 2e0f0000 	0x2e0f0000193c193f
 29e:	3f01                	jal	1ae <SIM_STOP+0xb6>
 2a0:	0319                	addi	t1,t1,6
 2a2:	3a0e                	fld	fs4,224(sp)
 2a4:	39053b0b          	0x39053b0b
 2a8:	4919270b          	0x4919270b
 2ac:	12011113          	0x12011113
 2b0:	4006                	0x4006
 2b2:	9718                	0x9718
 2b4:	1942                	slli	s2,s2,0x30
 2b6:	1301                	addi	t1,t1,-32
 2b8:	0000                	unimp
 2ba:	0510                	addi	a2,sp,640
 2bc:	0300                	addi	s0,sp,384
 2be:	3a08                	fld	fa0,48(a2)
 2c0:	39053b0b          	0x39053b0b
 2c4:	0213490b          	0x213490b
 2c8:	11000017          	auipc	zero,0x11000
 2cc:	011d                	addi	sp,sp,7
 2ce:	1331                	addi	t1,t1,-20
 2d0:	0152                	slli	sp,sp,0x14
 2d2:	1755                	addi	a4,a4,-11
 2d4:	0b58                	addi	a4,sp,404
 2d6:	0559                	addi	a0,a0,22
 2d8:	00000b57          	0xb57
 2dc:	0512                	slli	a0,a0,0x4
 2de:	3100                	fld	fs0,32(a0)
 2e0:	00170213          	addi	tp,a4,1
 2e4:	1300                	addi	s0,sp,416
 2e6:	1755010b          	0x1755010b
 2ea:	0000                	unimp
 2ec:	3414                	fld	fa3,40(s0)
 2ee:	3100                	fld	fs0,32(a0)
 2f0:	15000013          	li	zero,336
 2f4:	0034                	addi	a3,sp,8
 2f6:	1331                	addi	t1,t1,-20
 2f8:	1702                	slli	a4,a4,0x20
 2fa:	0000                	unimp
 2fc:	0b16                	slli	s6,s6,0x5
 2fe:	3101                	jal	fffffefe <__C_STACK_TOP__+0xfffefefe>
 300:	01175513          	srli	a0,a4,0x11
 304:	17000013          	li	zero,368
 308:	1331010b          	0x1331010b
 30c:	0111                	addi	sp,sp,4
 30e:	0612                	slli	a2,a2,0x4
 310:	1301                	addi	t1,t1,-32
 312:	0000                	unimp
 314:	8918                	0x8918
 316:	0182                	c.slli64	gp
 318:	1100                	addi	s0,sp,160
 31a:	3101                	jal	ffffff1a <__C_STACK_TOP__+0xfffeff1a>
 31c:	19000013          	li	zero,400
 320:	1331010b          	0x1331010b
 324:	1755                	addi	a4,a4,-11
 326:	0000                	unimp
 328:	341a                	fld	fs0,416(sp)
 32a:	3100                	fld	fs0,32(a0)
 32c:	00180213          	addi	tp,a6,1
 330:	1b00                	addi	s0,sp,432
 332:	012e                	slli	sp,sp,0xb
 334:	0b3a0e03          	lb	t3,179(s4)
 338:	0b39053b          	0xb39053b
 33c:	13491927          	0x13491927
 340:	0b20                	addi	s0,sp,408
 342:	1301                	addi	t1,t1,-32
 344:	0000                	unimp
 346:	051c                	addi	a5,sp,640
 348:	0300                	addi	s0,sp,384
 34a:	3a08                	fld	fa0,48(a2)
 34c:	39053b0b          	0x39053b0b
 350:	0013490b          	0x13490b
 354:	1d00                	addi	s0,sp,688
 356:	0034                	addi	a3,sp,8
 358:	0b3a0803          	lb	a6,179(s4)
 35c:	0b39053b          	0xb39053b
 360:	1349                	addi	t1,t1,-14
 362:	0000                	unimp
 364:	0b1e                	slli	s6,s6,0x7
 366:	0101                	addi	sp,sp,0
 368:	1f000013          	li	zero,496
 36c:	0034                	addi	a3,sp,8
 36e:	0b3a0e03          	lb	t3,179(s4)
 372:	0b39053b          	0xb39053b
 376:	1349                	addi	t1,t1,-14
 378:	0000                	unimp
 37a:	0b20                	addi	s0,sp,408
 37c:	0001                	nop
 37e:	2100                	fld	fs0,0(a0)
 380:	0b0b000f          	0xb0b000f
 384:	1349                	addi	t1,t1,-14
 386:	0000                	unimp
 388:	2e22                	fld	ft8,8(sp)
 38a:	3f00                	fld	fs0,56(a4)
 38c:	3c19                	jal	fffffda2 <__C_STACK_TOP__+0xfffefda2>
 38e:	6e19                	lui	t3,0x6
 390:	030e                	slli	t1,t1,0x3
 392:	000e                	c.slli	zero,0x3
 394:	0000                	unimp
 396:	1101                	addi	sp,sp,-32
 398:	2501                	jal	998 <vprintfmt.constprop.0+0x4f2>
 39a:	130e                	slli	t1,t1,0x23
 39c:	1b0e030b          	0x1b0e030b
 3a0:	110e                	slli	sp,sp,0x23
 3a2:	1201                	addi	tp,tp,-32
 3a4:	1006                	c.slli	zero,0x21
 3a6:	02000017          	auipc	zero,0x2000
 3aa:	0024                	addi	s1,sp,8
 3ac:	0b3e0b0b          	0xb3e0b0b
 3b0:	00000e03          	lb	t3,0(zero) # 0 <buf.1>
 3b4:	0b002403          	lw	s0,176(zero) # b0 <buflen.0+0x70>
 3b8:	030b3e0b          	0x30b3e0b
 3bc:	0008                	0x8
 3be:	0400                	addi	s0,sp,512
 3c0:	0016                	c.slli	zero,0x5
 3c2:	0b3a0e03          	lb	t3,179(s4)
 3c6:	0b390b3b          	0xb390b3b
 3ca:	1349                	addi	t1,t1,-14
 3cc:	0000                	unimp
 3ce:	2605                	jal	6ee <vprintfmt.constprop.0+0x248>
 3d0:	4900                	lw	s0,16(a0)
 3d2:	06000013          	li	zero,96
 3d6:	0e030113          	addi	sp,t1,224
 3da:	0b3a0b0b          	0xb3a0b0b
 3de:	0b39053b          	0xb39053b
 3e2:	1301                	addi	t1,t1,-32
 3e4:	0000                	unimp
 3e6:	03000d07          	0x3000d07
 3ea:	3a08                	fld	fa0,48(a2)
 3ec:	39053b0b          	0x39053b0b
 3f0:	3813490b          	0x3813490b
 3f4:	0800000b          	0x800000b
 3f8:	000d                	c.nop	3
 3fa:	0b3a0e03          	lb	t3,179(s4)
 3fe:	0b39053b          	0xb39053b
 402:	1349                	addi	t1,t1,-14
 404:	0b38                	addi	a4,sp,408
 406:	0000                	unimp
 408:	1709                	addi	a4,a4,-30
 40a:	0b01                	addi	s6,s6,0
 40c:	3b0b3a0b          	0x3b0b3a0b
 410:	3905                	jal	40 <buflen.0>
 412:	0013010b          	0x13010b
 416:	0a00                	addi	s0,sp,272
 418:	000d                	c.nop	3
 41a:	0b3a0803          	lb	a6,179(s4)
 41e:	0b39053b          	0xb39053b
 422:	1349                	addi	t1,t1,-14
 424:	0000                	unimp
 426:	0300160b          	0x300160b
 42a:	3a0e                	fld	fs4,224(sp)
 42c:	39053b0b          	0x39053b0b
 430:	0013490b          	0x13490b
 434:	0c00                	addi	s0,sp,528
 436:	0101                	addi	sp,sp,0
 438:	1349                	addi	t1,t1,-14
 43a:	1301                	addi	t1,t1,-32
 43c:	0000                	unimp
 43e:	210d                	jal	860 <vprintfmt.constprop.0+0x3ba>
 440:	4900                	lw	s0,16(a0)
 442:	000b2f13          	slti	t5,s6,0
 446:	0e00                	addi	s0,sp,784
 448:	0034                	addi	a3,sp,8
 44a:	0b3a0e03          	lb	t3,179(s4)
 44e:	0b39053b          	0xb39053b
 452:	1349                	addi	t1,t1,-14
 454:	193c193f 2e0f0000 	0x2e0f0000193c193f
 45c:	3f01                	jal	36c <trap_entry+0x90>
 45e:	0319                	addi	t1,t1,6
 460:	3a0e                	fld	fs4,224(sp)
 462:	39053b0b          	0x39053b0b
 466:	4919270b          	0x4919270b
 46a:	12011113          	0x12011113
 46e:	4006                	0x4006
 470:	9718                	0x9718
 472:	1942                	slli	s2,s2,0x30
 474:	1301                	addi	t1,t1,-32
 476:	0000                	unimp
 478:	0510                	addi	a2,sp,640
 47a:	0300                	addi	s0,sp,384
 47c:	3a08                	fld	fa0,48(a2)
 47e:	39053b0b          	0x39053b0b
 482:	0213490b          	0x213490b
 486:	11000017          	auipc	zero,0x11000
 48a:	0034                	addi	a3,sp,8
 48c:	0b3a0803          	lb	a6,179(s4)
 490:	0b39053b          	0xb39053b
 494:	1349                	addi	t1,t1,-14
 496:	1702                	slli	a4,a4,0x20
 498:	0000                	unimp
 49a:	1d12                	slli	s10,s10,0x24
 49c:	3101                	jal	9c <buflen.0+0x5c>
 49e:	55015213          	0x55015213
 4a2:	590b5817          	auipc	a6,0x590b5
 4a6:	5705                	li	a4,-31
 4a8:	1300000b          	0x1300000b
 4ac:	0005                	c.nop	1
 4ae:	1331                	addi	t1,t1,-20
 4b0:	1702                	slli	a4,a4,0x20
 4b2:	0000                	unimp
 4b4:	0b14                	addi	a3,sp,400
 4b6:	5501                	li	a0,-32
 4b8:	15000017          	auipc	zero,0x15000
 4bc:	0034                	addi	a3,sp,8
 4be:	1331                	addi	t1,t1,-20
 4c0:	0000                	unimp
 4c2:	3416                	fld	fs0,352(sp)
 4c4:	3100                	fld	fs0,32(a0)
 4c6:	00170213          	addi	tp,a4,1
 4ca:	1700                	addi	s0,sp,928
 4cc:	1331010b          	0x1331010b
 4d0:	1755                	addi	a4,a4,-11
 4d2:	1301                	addi	t1,t1,-32
 4d4:	0000                	unimp
 4d6:	0b18                	addi	a4,sp,400
 4d8:	3101                	jal	d8 <buflen.0+0x98>
 4da:	12011113          	0x12011113
 4de:	0106                	slli	sp,sp,0x1
 4e0:	19000013          	li	zero,400
 4e4:	0034                	addi	a3,sp,8
 4e6:	1331                	addi	t1,t1,-20
 4e8:	1802                	slli	a6,a6,0x20
 4ea:	0000                	unimp
 4ec:	891a                	mv	s2,t1
 4ee:	0182                	c.slli64	gp
 4f0:	1100                	addi	s0,sp,160
 4f2:	3101                	jal	f2 <buflen.0+0xb2>
 4f4:	1b000013          	li	zero,432
 4f8:	1331010b          	0x1331010b
 4fc:	0111                	addi	sp,sp,4
 4fe:	0612                	slli	a2,a2,0x4
 500:	0000                	unimp
 502:	2e1c                	fld	fa5,24(a2)
 504:	0301                	addi	t1,t1,0
 506:	3a0e                	fld	fs4,224(sp)
 508:	39053b0b          	0x39053b0b
 50c:	4919270b          	0x4919270b
 510:	010b2013          	slti	zero,s6,16
 514:	1d000013          	li	zero,464
 518:	0005                	c.nop	1
 51a:	0b3a0803          	lb	a6,179(s4)
 51e:	0b39053b          	0xb39053b
 522:	1349                	addi	t1,t1,-14
 524:	0000                	unimp
 526:	341e                	fld	fs0,480(sp)
 528:	0300                	addi	s0,sp,384
 52a:	3a08                	fld	fa0,48(a2)
 52c:	39053b0b          	0x39053b0b
 530:	0013490b          	0x13490b
 534:	1f00                	addi	s0,sp,944
 536:	1301010b          	0x1301010b
 53a:	0000                	unimp
 53c:	3420                	fld	fs0,104(s0)
 53e:	0300                	addi	s0,sp,384
 540:	3a0e                	fld	fs4,224(sp)
 542:	39053b0b          	0x39053b0b
 546:	0013490b          	0x13490b
 54a:	2100                	fld	fs0,0(a0)
 54c:	0000010b          	0x10b
 550:	0f22                	slli	t5,t5,0x8
 552:	0b00                	addi	s0,sp,400
 554:	0013490b          	0x13490b
 558:	2300                	fld	fs0,0(a4)
 55a:	002e                	c.slli	zero,0xb
 55c:	193c193f 0e030e6e 	0xe030e6e193c193f
 564:	0000                	unimp
 566:	0100                	addi	s0,sp,128
 568:	0011                	c.nop	4
 56a:	0610                	addi	a2,sp,768
 56c:	0111                	addi	sp,sp,4
 56e:	0112                	slli	sp,sp,0x4
 570:	0e1b0e03          	lb	t3,225(s6) # fffe50e1 <__C_STACK_TOP__+0xfffd50e1>
 574:	0e25                	addi	t3,t3,9
 576:	00000513          	li	a0,0
 57a:	0100                	addi	s0,sp,128
 57c:	0011                	c.nop	4
 57e:	0610                	addi	a2,sp,768
 580:	0111                	addi	sp,sp,4
 582:	0112                	slli	sp,sp,0x4
 584:	0e1b0e03          	lb	t3,225(s6)
 588:	0e25                	addi	t3,t3,9
 58a:	00000513          	li	a0,0
 58e:	0100                	addi	s0,sp,128
 590:	0111                	addi	sp,sp,4
 592:	0e25                	addi	t3,t3,9
 594:	0e030b13          	addi	s6,t1,224
 598:	17100e1b          	0x17100e1b
 59c:	0000                	unimp
 59e:	2402                	fld	fs0,0(sp)
 5a0:	0b00                	addi	s0,sp,400
 5a2:	030b3e0b          	0x30b3e0b
 5a6:	0008                	0x8
 5a8:	0300                	addi	s0,sp,384
 5aa:	0024                	addi	s1,sp,8
 5ac:	0b3e0b0b          	0xb3e0b0b
 5b0:	00000e03          	lb	t3,0(zero) # 0 <buf.1>
 5b4:	1604                	addi	s1,sp,800
 5b6:	0300                	addi	s0,sp,384
 5b8:	3a0e                	fld	fs4,224(sp)
 5ba:	390b3b0b          	0x390b3b0b
 5be:	0013490b          	0x13490b
 5c2:	0500                	addi	s0,sp,640
 5c4:	0026                	c.slli	zero,0x9
 5c6:	1349                	addi	t1,t1,-14
 5c8:	0000                	unimp
 5ca:	0106                	slli	sp,sp,0x1
 5cc:	4901                	li	s2,0
 5ce:	00130113          	addi	sp,t1,1
 5d2:	0700                	addi	s0,sp,896
 5d4:	0021                	c.nop	8
 5d6:	1349                	addi	t1,t1,-14
 5d8:	00000b2f          	0xb2f
 5dc:	3408                	fld	fa0,40(s0)
 5de:	0300                	addi	s0,sp,384
 5e0:	3a0e                	fld	fs4,224(sp)
 5e2:	39053b0b          	0x39053b0b
 5e6:	3f13490b          	0x3f13490b
 5ea:	3c19                	jal	0 <buf.1>
 5ec:	0019                	c.nop	6
 5ee:	0900                	addi	s0,sp,144
 5f0:	0034                	addi	a3,sp,8
 5f2:	0b3a1347          	fmsub.d	ft6,fs4,fs3,ft1,rtz
 5f6:	0b39053b          	0xb39053b
 5fa:	1802                	slli	a6,a6,0x20
 5fc:	0000                	unimp
	...

Disassembly of section .debug_loc:

00000000 <.debug_loc>:
       0:	0000                	unimp
       2:	0000                	unimp
       4:	00d4                	addi	a3,sp,68
       6:	0000                	unimp
       8:	0006                	c.slli	zero,0x1
       a:	935a                	add	t1,t1,s6
       c:	5b04                	lw	s1,48(a4)
       e:	00d40493          	addi	s1,s0,13
      12:	0000                	unimp
      14:	01d4                	addi	a3,sp,196
      16:	0000                	unimp
      18:	0006                	c.slli	zero,0x1
      1a:	0af503f3          	0xaf503f3
      1e:	9f25                	0x9f25
      20:	01d4                	addi	a3,sp,196
      22:	0000                	unimp
      24:	01f4                	addi	a3,sp,204
      26:	0000                	unimp
      28:	0006                	c.slli	zero,0x1
      2a:	935a                	add	t1,t1,s6
      2c:	5b04                	lw	s1,48(a4)
      2e:	01f40493          	addi	s1,s0,31
      32:	0000                	unimp
      34:	0308                	addi	a0,sp,384
      36:	0000                	unimp
      38:	0006                	c.slli	zero,0x1
      3a:	0af503f3          	0xaf503f3
      3e:	9f25                	0x9f25
      40:	0308                	addi	a0,sp,384
      42:	0000                	unimp
      44:	0310                	addi	a2,sp,384
      46:	0000                	unimp
      48:	0006                	c.slli	zero,0x1
      4a:	935a                	add	t1,t1,s6
      4c:	5b04                	lw	s1,48(a4)
      4e:	03100493          	li	s1,49
      52:	0000                	unimp
      54:	0318                	addi	a4,sp,384
      56:	0000                	unimp
      58:	0006                	c.slli	zero,0x1
      5a:	0af503f3          	0xaf503f3
      5e:	9f25                	0x9f25
      60:	0318                	addi	a4,sp,384
      62:	0000                	unimp
      64:	0328                	addi	a0,sp,392
      66:	0000                	unimp
      68:	0006                	c.slli	zero,0x1
      6a:	935a                	add	t1,t1,s6
      6c:	5b04                	lw	s1,48(a4)
      6e:	03280493          	addi	s1,a6,50 # 590b54d4 <__C_STACK_TOP__+0x590a54d4>
      72:	0000                	unimp
      74:	0374                	addi	a3,sp,396
      76:	0000                	unimp
      78:	0006                	c.slli	zero,0x1
      7a:	0af503f3          	0xaf503f3
      7e:	9f25                	0x9f25
      80:	0374                	addi	a3,sp,396
      82:	0000                	unimp
      84:	037c                	addi	a5,sp,396
      86:	0000                	unimp
      88:	0006                	c.slli	zero,0x1
      8a:	935a                	add	t1,t1,s6
      8c:	5b04                	lw	s1,48(a4)
      8e:	037c0493          	addi	s1,s8,55 # 8346d <__C_STACK_TOP__+0x7346d>
      92:	0000                	unimp
      94:	0548                	addi	a0,sp,644
      96:	0000                	unimp
      98:	0006                	c.slli	zero,0x1
      9a:	0af503f3          	0xaf503f3
      9e:	9f25                	0x9f25
	...
      ac:	0070                	addi	a2,sp,12
      ae:	0000                	unimp
      b0:	0006                	c.slli	zero,0x1
      b2:	935c                	0x935c
      b4:	5d04                	lw	s1,56(a0)
      b6:	00700493          	li	s1,7
      ba:	0000                	unimp
      bc:	0548                	addi	a0,sp,644
      be:	0000                	unimp
      c0:	0006                	c.slli	zero,0x1
      c2:	0cf503f3          	0xcf503f3
      c6:	9f25                	0x9f25
	...
      d0:	0040                	addi	s0,sp,4
      d2:	0000                	unimp
      d4:	0048                	addi	a0,sp,4
      d6:	0000                	unimp
      d8:	0002                	c.slli64	zero
      da:	9f30                	0x9f30
      dc:	0048                	addi	a0,sp,4
      de:	0000                	unimp
      e0:	005c                	addi	a5,sp,4
      e2:	0000                	unimp
      e4:	ff090003          	lb	zero,-16(s2) # ff0 <vprintfmt.constprop.0+0xb4a>
      e8:	5c9f 0000 a400      	0xa40000005c9f
      ee:	0001                	nop
      f0:	0100                	addi	s0,sp,128
      f2:	5900                	lw	s0,48(a0)
      f4:	01d4                	addi	a3,sp,196
      f6:	0000                	unimp
      f8:	0548                	addi	a0,sp,644
      fa:	0000                	unimp
      fc:	0001                	nop
      fe:	0059                	c.nop	22
     100:	0000                	unimp
     102:	0000                	unimp
     104:	0000                	unimp
     106:	4000                	lw	s0,0(s0)
     108:	0000                	unimp
     10a:	4800                	lw	s0,16(s0)
     10c:	0000                	unimp
     10e:	0600                	addi	s0,sp,768
     110:	5a00                	lw	s0,48(a2)
     112:	935b0493          	addi	s1,s6,-1739
     116:	0004                	0x4
     118:	0000                	unimp
     11a:	0000                	unimp
     11c:	0000                	unimp
     11e:	4000                	lw	s0,0(s0)
     120:	0000                	unimp
     122:	6000                	flw	fs0,0(s0)
     124:	0000                	unimp
     126:	0600                	addi	s0,sp,768
     128:	5c00                	lw	s0,56(s0)
     12a:	935d0493          	addi	s1,s10,-1739 # 2199 <__umoddi3+0x9d>
     12e:	7004                	flw	fs1,32(s0)
     130:	0000                	unimp
     132:	d400                	sw	s0,40(s0)
     134:	0000                	unimp
     136:	0600                	addi	s0,sp,768
     138:	5c00                	lw	s0,56(s0)
     13a:	935d0493          	addi	s1,s10,-1739
     13e:	d404                	sw	s1,40(s0)
     140:	0001                	nop
     142:	f700                	fsw	fs0,40(a4)
     144:	0001                	nop
     146:	0600                	addi	s0,sp,768
     148:	5c00                	lw	s0,56(s0)
     14a:	935d0493          	addi	s1,s10,-1739
     14e:	f704                	fsw	fs1,40(a4)
     150:	0001                	nop
     152:	fc00                	fsw	fs0,56(s0)
     154:	0001                	nop
     156:	0600                	addi	s0,sp,768
     158:	6500                	flw	fs0,8(a0)
     15a:	93630493          	addi	s1,t1,-1738
     15e:	0804                	addi	s1,sp,16
     160:	60000003          	lb	zero,1536(zero) # 600 <vprintfmt.constprop.0+0x15a>
     164:	06000003          	lb	zero,96(zero) # 60 <buflen.0+0x20>
     168:	5c00                	lw	s0,56(s0)
     16a:	935d0493          	addi	s1,s10,-1739
     16e:	6004                	flw	fs1,0(s0)
     170:	74000003          	lb	zero,1856(zero) # 740 <vprintfmt.constprop.0+0x29a>
     174:	06000003          	lb	zero,96(zero) # 60 <buflen.0+0x20>
     178:	5c00                	lw	s0,56(s0)
     17a:	93630493          	addi	s1,t1,-1738
     17e:	7404                	flw	fs1,40(s0)
     180:	90000003          	lb	zero,-1792(zero) # fffff900 <__C_STACK_TOP__+0xfffef900>
     184:	06000003          	lb	zero,96(zero) # 60 <buflen.0+0x20>
     188:	5c00                	lw	s0,56(s0)
     18a:	935d0493          	addi	s1,s10,-1739
     18e:	9004                	0x9004
     190:	98000003          	lb	zero,-1664(zero) # fffff980 <__C_STACK_TOP__+0xfffef980>
     194:	06000003          	lb	zero,96(zero) # 60 <buflen.0+0x20>
     198:	5c00                	lw	s0,56(s0)
     19a:	93630493          	addi	s1,t1,-1738
     19e:	0004                	0x4
     1a0:	0000                	unimp
     1a2:	0000                	unimp
     1a4:	0000                	unimp
     1a6:	8400                	0x8400
     1a8:	0001                	nop
     1aa:	9000                	0x9000
     1ac:	0001                	nop
     1ae:	0600                	addi	s0,sp,768
     1b0:	5a00                	lw	s0,48(a2)
     1b2:	935b0493          	addi	s1,s6,-1739
     1b6:	7004                	flw	fs1,32(s0)
     1b8:	74000003          	lb	zero,1856(zero) # 740 <vprintfmt.constprop.0+0x29a>
     1bc:	06000003          	lb	zero,96(zero) # 60 <buflen.0+0x20>
     1c0:	5800                	lw	s0,48(s0)
     1c2:	93620493          	addi	s1,tp,-1738 # fffe6936 <__C_STACK_TOP__+0xfffd6936>
     1c6:	4404                	lw	s1,8(s0)
     1c8:	0005                	c.nop	1
     1ca:	4800                	lw	s0,16(s0)
     1cc:	0005                	c.nop	1
     1ce:	0600                	addi	s0,sp,768
     1d0:	5a00                	lw	s0,48(a2)
     1d2:	935b0493          	addi	s1,s6,-1739
     1d6:	0004                	0x4
     1d8:	0000                	unimp
     1da:	0000                	unimp
     1dc:	0000                	unimp
     1de:	7000                	flw	fs0,32(s0)
     1e0:	0000                	unimp
     1e2:	8400                	0x8400
     1e4:	0001                	nop
     1e6:	0600                	addi	s0,sp,768
     1e8:	f200                	fsw	fs0,32(a2)
     1ea:	01c6                	slli	gp,gp,0x11
     1ec:	0000                	unimp
     1ee:	d400                	sw	s0,40(s0)
     1f0:	0001                	nop
     1f2:	4800                	lw	s0,16(s0)
     1f4:	0005                	c.nop	1
     1f6:	0600                	addi	s0,sp,768
     1f8:	f200                	fsw	fs0,32(a2)
     1fa:	01c6                	slli	gp,gp,0x11
	...
     204:	0000                	unimp
     206:	7000                	flw	fs0,32(s0)
     208:	0000                	unimp
     20a:	d400                	sw	s0,40(s0)
     20c:	0000                	unimp
     20e:	0600                	addi	s0,sp,768
     210:	5c00                	lw	s0,56(s0)
     212:	935d0493          	addi	s1,s10,-1739
     216:	d404                	sw	s1,40(s0)
     218:	0001                	nop
     21a:	f700                	fsw	fs0,40(a4)
     21c:	0001                	nop
     21e:	0600                	addi	s0,sp,768
     220:	5c00                	lw	s0,56(s0)
     222:	935d0493          	addi	s1,s10,-1739
     226:	f704                	fsw	fs1,40(a4)
     228:	0001                	nop
     22a:	fc00                	fsw	fs0,56(s0)
     22c:	0001                	nop
     22e:	0600                	addi	s0,sp,768
     230:	6500                	flw	fs0,8(a0)
     232:	93630493          	addi	s1,t1,-1738
     236:	0804                	addi	s1,sp,16
     238:	60000003          	lb	zero,1536(zero) # 600 <vprintfmt.constprop.0+0x15a>
     23c:	06000003          	lb	zero,96(zero) # 60 <buflen.0+0x20>
     240:	5c00                	lw	s0,56(s0)
     242:	935d0493          	addi	s1,s10,-1739
     246:	6004                	flw	fs1,0(s0)
     248:	74000003          	lb	zero,1856(zero) # 740 <vprintfmt.constprop.0+0x29a>
     24c:	06000003          	lb	zero,96(zero) # 60 <buflen.0+0x20>
     250:	5c00                	lw	s0,56(s0)
     252:	93630493          	addi	s1,t1,-1738
     256:	7404                	flw	fs1,40(s0)
     258:	90000003          	lb	zero,-1792(zero) # fffff900 <__C_STACK_TOP__+0xfffef900>
     25c:	06000003          	lb	zero,96(zero) # 60 <buflen.0+0x20>
     260:	5c00                	lw	s0,56(s0)
     262:	935d0493          	addi	s1,s10,-1739
     266:	9004                	0x9004
     268:	98000003          	lb	zero,-1664(zero) # fffff980 <__C_STACK_TOP__+0xfffef980>
     26c:	06000003          	lb	zero,96(zero) # 60 <buflen.0+0x20>
     270:	5c00                	lw	s0,56(s0)
     272:	93630493          	addi	s1,t1,-1738
     276:	0004                	0x4
     278:	0000                	unimp
     27a:	0000                	unimp
     27c:	0000                	unimp
     27e:	7400                	flw	fs0,40(s0)
     280:	0000                	unimp
     282:	cc00                	sw	s0,24(s0)
     284:	0000                	unimp
     286:	0100                	addi	s0,sp,128
     288:	5c00                	lw	s0,56(s0)
     28a:	00cc                	addi	a1,sp,68
     28c:	0000                	unimp
     28e:	0184                	addi	s1,sp,192
     290:	0000                	unimp
     292:	0001                	nop
     294:	d465                	beqz	s0,27c <_start+0x7c>
     296:	0001                	nop
     298:	f700                	fsw	fs0,40(a4)
     29a:	0001                	nop
     29c:	0100                	addi	s0,sp,128
     29e:	5c00                	lw	s0,56(s0)
     2a0:	000001f7          	0x1f7
     2a4:	0308                	addi	a0,sp,384
     2a6:	0000                	unimp
     2a8:	0001                	nop
     2aa:	0865                	addi	a6,a6,25
     2ac:	b4000003          	lb	zero,-1216(zero) # fffffb40 <__C_STACK_TOP__+0xfffefb40>
     2b0:	01000003          	lb	zero,16(zero) # 10 <buf.1+0x10>
     2b4:	5c00                	lw	s0,56(s0)
     2b6:	03b4                	addi	a3,sp,456
     2b8:	0000                	unimp
     2ba:	0548                	addi	a0,sp,644
     2bc:	0000                	unimp
     2be:	0001                	nop
     2c0:	006a                	c.slli	zero,0x1a
     2c2:	0000                	unimp
     2c4:	0000                	unimp
     2c6:	0000                	unimp
     2c8:	7800                	flw	fs0,48(s0)
     2ca:	0000                	unimp
     2cc:	d400                	sw	s0,40(s0)
     2ce:	0000                	unimp
     2d0:	0100                	addi	s0,sp,128
     2d2:	5d00                	lw	s0,56(a0)
     2d4:	01d4                	addi	a3,sp,196
     2d6:	0000                	unimp
     2d8:	000001f7          	0x1f7
     2dc:	0001                	nop
     2de:	f75d                	bnez	a4,28c <_start+0x8c>
     2e0:	0001                	nop
     2e2:	1000                	addi	s0,sp,32
     2e4:	0002                	c.slli64	zero
     2e6:	0100                	addi	s0,sp,128
     2e8:	6300                	flw	fs0,0(a4)
     2ea:	02f4                	addi	a3,sp,332
     2ec:	0000                	unimp
     2ee:	02fc                	addi	a5,sp,332
     2f0:	0000                	unimp
     2f2:	0001                	nop
     2f4:	00030863          	beqz	t1,304 <trap_entry+0x28>
     2f8:	6000                	flw	fs0,0(s0)
     2fa:	01000003          	lb	zero,16(zero) # 10 <buf.1+0x10>
     2fe:	5d00                	lw	s0,56(a0)
     300:	0360                	addi	s0,sp,396
     302:	0000                	unimp
     304:	0374                	addi	a3,sp,396
     306:	0000                	unimp
     308:	0001                	nop
     30a:	00037463          	bgeu	t1,zero,312 <trap_entry+0x36>
     30e:	9000                	0x9000
     310:	01000003          	lb	zero,16(zero) # 10 <buf.1+0x10>
     314:	5d00                	lw	s0,56(a0)
     316:	0390                	addi	a2,sp,448
     318:	0000                	unimp
     31a:	0394                	addi	a3,sp,448
     31c:	0000                	unimp
     31e:	0001                	nop
     320:	00039463          	bnez	t2,328 <trap_entry+0x4c>
     324:	4800                	lw	s0,16(s0)
     326:	0005                	c.nop	1
     328:	0100                	addi	s0,sp,128
     32a:	6900                	flw	fs0,16(a0)
	...
     334:	007c                	addi	a5,sp,12
     336:	0000                	unimp
     338:	0084                	addi	s1,sp,64
     33a:	0000                	unimp
     33c:	0001                	nop
     33e:	8468                	0x8468
     340:	0000                	unimp
     342:	4c00                	lw	s0,24(s0)
     344:	0001                	nop
     346:	0100                	addi	s0,sp,128
     348:	5800                	lw	s0,48(s0)
     34a:	017c                	addi	a5,sp,140
     34c:	0000                	unimp
     34e:	0184                	addi	s1,sp,192
     350:	0000                	unimp
     352:	0001                	nop
     354:	d458                	sw	a4,44(s0)
     356:	0001                	nop
     358:	5c00                	lw	s0,56(s0)
     35a:	01000003          	lb	zero,16(zero) # 10 <buf.1+0x10>
     35e:	5800                	lw	s0,48(s0)
     360:	035c                	addi	a5,sp,388
     362:	0000                	unimp
     364:	0368                	addi	a0,sp,396
     366:	0000                	unimp
     368:	0001                	nop
     36a:	6868                	flw	fa0,84(s0)
     36c:	2c000003          	lb	zero,704(zero) # 2c0 <_start+0xc0>
     370:	0005                	c.nop	1
     372:	0100                	addi	s0,sp,128
     374:	5800                	lw	s0,48(s0)
     376:	0534                	addi	a3,sp,648
     378:	0000                	unimp
     37a:	053c                	addi	a5,sp,648
     37c:	0000                	unimp
     37e:	0001                	nop
     380:	005f 0000 0000      	0x5f
     386:	0000                	unimp
     388:	d000                	sw	s0,32(s0)
     38a:	0000                	unimp
     38c:	2c00                	fld	fs0,24(s0)
     38e:	0001                	nop
     390:	0100                	addi	s0,sp,128
     392:	6200                	flw	fs0,0(a2)
     394:	0250                	addi	a2,sp,260
     396:	0000                	unimp
     398:	02f0                	addi	a2,sp,332
     39a:	0000                	unimp
     39c:	0001                	nop
     39e:	0002f067          	0x2f067
     3a2:	f400                	fsw	fs0,40(s0)
     3a4:	0002                	c.slli64	zero
     3a6:	0100                	addi	s0,sp,128
     3a8:	6200                	flw	fs0,0(a2)
     3aa:	0368                	addi	a0,sp,396
     3ac:	0000                	unimp
     3ae:	0374                	addi	a3,sp,396
     3b0:	0000                	unimp
     3b2:	0001                	nop
     3b4:	b462                	fsd	fs8,40(sp)
     3b6:	34000003          	lb	zero,832(zero) # 340 <trap_entry+0x64>
     3ba:	0005                	c.nop	1
     3bc:	0100                	addi	s0,sp,128
     3be:	6600                	flw	fs0,8(a2)
     3c0:	0534                	addi	a3,sp,648
     3c2:	0000                	unimp
     3c4:	0544                	addi	s1,sp,644
     3c6:	0000                	unimp
     3c8:	0001                	nop
     3ca:	0000005b          	0x5b
     3ce:	0000                	unimp
     3d0:	0000                	unimp
     3d2:	3800                	fld	fs0,48(s0)
     3d4:	0002                	c.slli64	zero
     3d6:	f400                	fsw	fs0,40(s0)
     3d8:	0002                	c.slli64	zero
     3da:	0100                	addi	s0,sp,128
     3dc:	6900                	flw	fs0,16(a0)
     3de:	03b4                	addi	a3,sp,456
     3e0:	0000                	unimp
     3e2:	000003b7          	lui	t2,0x0
     3e6:	0001                	nop
     3e8:	b75a                	fsd	fs6,424(sp)
     3ea:	d8000003          	lb	zero,-640(zero) # fffffd80 <__C_STACK_TOP__+0xfffefd80>
     3ee:	01000003          	lb	zero,16(zero) # 10 <buf.1+0x10>
     3f2:	6300                	flw	fs0,0(a4)
	...
     3fc:	030c                	addi	a1,sp,384
     3fe:	0000                	unimp
     400:	0318                	addi	a4,sp,384
     402:	0000                	unimp
     404:	0002                	c.slli64	zero
     406:	9f30                	0x9f30
     408:	0358                	addi	a4,sp,388
     40a:	0000                	unimp
     40c:	0368                	addi	a0,sp,396
     40e:	0000                	unimp
     410:	0002                	c.slli64	zero
     412:	9f31                	0x9f31
	...
     41c:	030c                	addi	a1,sp,384
     41e:	0000                	unimp
     420:	0318                	addi	a4,sp,384
     422:	0000                	unimp
     424:	0002                	c.slli64	zero
     426:	9f30                	0x9f30
     428:	0368                	addi	a0,sp,396
     42a:	0000                	unimp
     42c:	0374                	addi	a3,sp,396
     42e:	0000                	unimp
     430:	0002                	c.slli64	zero
     432:	9f30                	0x9f30
     434:	0524                	addi	s1,sp,648
     436:	0000                	unimp
     438:	0548                	addi	a0,sp,644
     43a:	0000                	unimp
     43c:	0002                	c.slli64	zero
     43e:	9f30                	0x9f30
	...
     448:	0230                	addi	a2,sp,264
     44a:	0000                	unimp
     44c:	0240                	addi	s0,sp,260
     44e:	0000                	unimp
     450:	0001                	nop
     452:	885f 0003 4800      	0x48000003885f
     458:	0005                	c.nop	1
     45a:	0100                	addi	s0,sp,128
     45c:	6500                	flw	fs0,8(a0)
	...
     466:	00bc                	addi	a5,sp,72
     468:	0000                	unimp
     46a:	0184                	addi	s1,sp,192
     46c:	0000                	unimp
     46e:	0001                	nop
     470:	00022c63          	0x22c63
     474:	f400                	fsw	fs0,40(s0)
     476:	0002                	c.slli64	zero
     478:	0100                	addi	s0,sp,128
     47a:	6300                	flw	fs0,0(a4)
     47c:	034c                	addi	a1,sp,388
     47e:	0000                	unimp
     480:	0374                	addi	a3,sp,396
     482:	0000                	unimp
     484:	0001                	nop
     486:	8864                	0x8864
     488:	48000003          	lb	zero,1152(zero) # 480 <STACK_SIZE+0x80>
     48c:	0005                	c.nop	1
     48e:	0100                	addi	s0,sp,128
     490:	6400                	flw	fs0,8(s0)
	...
     49a:	0090                	addi	a2,sp,64
     49c:	0000                	unimp
     49e:	00d4                	addi	a3,sp,68
     4a0:	0000                	unimp
     4a2:	0001                	nop
     4a4:	d45c                	sw	a5,44(s0)
     4a6:	0001                	nop
     4a8:	e800                	fsw	fs0,16(s0)
     4aa:	0001                	nop
     4ac:	0100                	addi	s0,sp,128
     4ae:	5c00                	lw	s0,56(s0)
	...
     4b8:	00a4                	addi	s1,sp,72
     4ba:	0000                	unimp
     4bc:	00bc                	addi	a5,sp,72
     4be:	0000                	unimp
     4c0:	0001                	nop
     4c2:	00000063          	beqz	zero,4c2 <vprintfmt.constprop.0+0x1c>
     4c6:	0000                	unimp
     4c8:	0000                	unimp
     4ca:	d800                	sw	s0,48(s0)
     4cc:	0000                	unimp
     4ce:	8400                	0x8400
     4d0:	0001                	nop
     4d2:	0100                	addi	s0,sp,128
     4d4:	6600                	flw	fs0,8(a2)
	...
     4de:	00fc                	addi	a5,sp,76
     4e0:	0000                	unimp
     4e2:	0184                	addi	s1,sp,192
     4e4:	0000                	unimp
     4e6:	0001                	nop
     4e8:	00000067          	jr	zero # 0 <buf.1>
     4ec:	0000                	unimp
     4ee:	0000                	unimp
     4f0:	0000                	unimp
     4f2:	0001                	nop
     4f4:	0400                	addi	s0,sp,512
     4f6:	0001                	nop
     4f8:	0100                	addi	s0,sp,128
     4fa:	5a00                	lw	s0,48(a2)
     4fc:	0104                	addi	s1,sp,128
     4fe:	0000                	unimp
     500:	00000107          	0x107
     504:	0001                	nop
     506:	0000005b          	0x5b
     50a:	0000                	unimp
     50c:	0000                	unimp
     50e:	5000                	lw	s0,32(s0)
     510:	0001                	nop
     512:	5800                	lw	s0,48(s0)
     514:	0001                	nop
     516:	0100                	addi	s0,sp,128
     518:	5a00                	lw	s0,48(a2)
     51a:	0158                	addi	a4,sp,132
     51c:	0000                	unimp
     51e:	015f 0000 0001      	0x10000015f
     524:	0000005b          	0x5b
     528:	0000                	unimp
     52a:	0000                	unimp
     52c:	fc00                	fsw	fs0,56(s0)
     52e:	0000                	unimp
     530:	0c00                	addi	s0,sp,528
     532:	0001                	nop
     534:	0100                	addi	s0,sp,128
     536:	6400                	flw	fs0,8(s0)
     538:	0114                	addi	a3,sp,128
     53a:	0000                	unimp
     53c:	012c                	addi	a1,sp,136
     53e:	0000                	unimp
     540:	0001                	nop
     542:	2c5f 0001 8400      	0x840000012c5f
     548:	0001                	nop
     54a:	0100                	addi	s0,sp,128
     54c:	6200                	flw	fs0,0(a2)
	...
     556:	013c                	addi	a5,sp,136
     558:	0000                	unimp
     55a:	0144                	addi	s1,sp,132
     55c:	0000                	unimp
     55e:	0001                	nop
     560:	445a                	lw	s0,148(sp)
     562:	0001                	nop
     564:	5400                	lw	s0,40(s0)
     566:	0001                	nop
     568:	0100                	addi	s0,sp,128
     56a:	6400                	flw	fs0,8(s0)
     56c:	0164                	addi	s1,sp,140
     56e:	0000                	unimp
     570:	0184                	addi	s1,sp,192
     572:	0000                	unimp
     574:	0001                	nop
     576:	0058                	addi	a4,sp,4
     578:	0000                	unimp
     57a:	0000                	unimp
     57c:	0000                	unimp
     57e:	0800                	addi	s0,sp,16
     580:	0001                	nop
     582:	3400                	fld	fs0,40(s0)
     584:	0001                	nop
     586:	0100                	addi	s0,sp,128
     588:	5a00                	lw	s0,48(a2)
     58a:	0160                	addi	s0,sp,140
     58c:	0000                	unimp
     58e:	0180                	addi	s0,sp,192
     590:	0000                	unimp
     592:	0001                	nop
     594:	005a                	c.slli	zero,0x16
     596:	0000                	unimp
     598:	0000                	unimp
     59a:	0000                	unimp
     59c:	fc00                	fsw	fs0,56(s0)
     59e:	0001                	nop
     5a0:	3400                	fld	fs0,40(s0)
     5a2:	0002                	c.slli64	zero
     5a4:	0100                	addi	s0,sp,128
     5a6:	6500                	flw	fs0,8(a0)
     5a8:	02f4                	addi	a3,sp,332
     5aa:	0000                	unimp
     5ac:	0308                	addi	a0,sp,384
     5ae:	0000                	unimp
     5b0:	0001                	nop
     5b2:	0065                	c.nop	25
     5b4:	0000                	unimp
     5b6:	0000                	unimp
     5b8:	0000                	unimp
     5ba:	1000                	addi	s0,sp,32
     5bc:	0002                	c.slli64	zero
     5be:	2c00                	fld	fs0,24(s0)
     5c0:	0002                	c.slli64	zero
     5c2:	0100                	addi	s0,sp,128
     5c4:	6300                	flw	fs0,0(a4)
	...
     5ce:	0260                	addi	s0,sp,268
     5d0:	0000                	unimp
     5d2:	0000026b          	0x26b
     5d6:	0001                	nop
     5d8:	00026b5b          	0x26b5b
     5dc:	f000                	fsw	fs0,32(s0)
     5de:	0002                	c.slli64	zero
     5e0:	0100                	addi	s0,sp,128
     5e2:	6200                	flw	fs0,0(a2)
     5e4:	02f0                	addi	a2,sp,332
     5e6:	0000                	unimp
     5e8:	02f4                	addi	a3,sp,332
     5ea:	0000                	unimp
     5ec:	0005                	c.nop	1
     5ee:	0085                	addi	ra,ra,1
     5f0:	2540                	fld	fs0,136(a0)
     5f2:	009f 0000 0000      	0x9f
     5f8:	0000                	unimp
     5fa:	7000                	flw	fs0,32(s0)
     5fc:	0002                	c.slli64	zero
     5fe:	f400                	fsw	fs0,40(s0)
     600:	0002                	c.slli64	zero
     602:	0100                	addi	s0,sp,128
     604:	6800                	flw	fs0,16(s0)
	...
     60e:	0274                	addi	a3,sp,268
     610:	0000                	unimp
     612:	0278                	addi	a4,sp,268
     614:	0000                	unimp
     616:	0001                	nop
     618:	785a                	flw	fa6,180(sp)
     61a:	0002                	c.slli64	zero
     61c:	7b00                	flw	fs0,48(a4)
     61e:	0002                	c.slli64	zero
     620:	0100                	addi	s0,sp,128
     622:	5b00                	lw	s0,48(a4)
	...
     62c:	02c0                	addi	s0,sp,324
     62e:	0000                	unimp
     630:	02c4                	addi	s1,sp,324
     632:	0000                	unimp
     634:	0001                	nop
     636:	c45a                	sw	s6,8(sp)
     638:	0002                	c.slli64	zero
     63a:	c700                	sw	s0,8(a4)
     63c:	0002                	c.slli64	zero
     63e:	0100                	addi	s0,sp,128
     640:	5b00                	lw	s0,48(a4)
	...
     64a:	0270                	addi	a2,sp,268
     64c:	0000                	unimp
     64e:	0280                	addi	s0,sp,320
     650:	0000                	unimp
     652:	0001                	nop
     654:	8864                	0x8864
     656:	0002                	c.slli64	zero
     658:	a000                	fsd	fs0,0(s0)
     65a:	0002                	c.slli64	zero
     65c:	0100                	addi	s0,sp,128
     65e:	5f00                	lw	s0,56(a4)
     660:	02a0                	addi	s0,sp,328
     662:	0000                	unimp
     664:	02f4                	addi	a3,sp,332
     666:	0000                	unimp
     668:	0001                	nop
     66a:	0066                	c.slli	zero,0x19
     66c:	0000                	unimp
     66e:	0000                	unimp
     670:	0000                	unimp
     672:	b000                	fsd	fs0,32(s0)
     674:	0002                	c.slli64	zero
     676:	b800                	fsd	fs0,48(s0)
     678:	0002                	c.slli64	zero
     67a:	0100                	addi	s0,sp,128
     67c:	5a00                	lw	s0,48(a2)
     67e:	02b8                	addi	a4,sp,328
     680:	0000                	unimp
     682:	02d0                	addi	a2,sp,324
     684:	0000                	unimp
     686:	0001                	nop
     688:	d864                	sw	s1,116(s0)
     68a:	0002                	c.slli64	zero
     68c:	f000                	fsw	fs0,32(s0)
     68e:	0002                	c.slli64	zero
     690:	0100                	addi	s0,sp,128
     692:	5d00                	lw	s0,56(a0)
     694:	02f0                	addi	a2,sp,332
     696:	0000                	unimp
     698:	02f4                	addi	a3,sp,332
     69a:	0000                	unimp
     69c:	0001                	nop
     69e:	0062                	c.slli	zero,0x18
     6a0:	0000                	unimp
     6a2:	0000                	unimp
     6a4:	0000                	unimp
     6a6:	7c00                	flw	fs0,56(s0)
     6a8:	0002                	c.slli64	zero
     6aa:	a800                	fsd	fs0,16(s0)
     6ac:	0002                	c.slli64	zero
     6ae:	0100                	addi	s0,sp,128
     6b0:	5a00                	lw	s0,48(a2)
     6b2:	02c8                	addi	a0,sp,324
     6b4:	0000                	unimp
     6b6:	02f4                	addi	a3,sp,332
     6b8:	0000                	unimp
     6ba:	0001                	nop
     6bc:	005a                	c.slli	zero,0x16
     6be:	0000                	unimp
     6c0:	0000                	unimp
     6c2:	0000                	unimp
     6c4:	1800                	addi	s0,sp,48
     6c6:	60000003          	lb	zero,1536(zero) # 600 <vprintfmt.constprop.0+0x15a>
     6ca:	01000003          	lb	zero,16(zero) # 10 <buf.1+0x10>
     6ce:	5d00                	lw	s0,56(a0)
     6d0:	0360                	addi	s0,sp,396
     6d2:	0000                	unimp
     6d4:	0374                	addi	a3,sp,396
     6d6:	0000                	unimp
     6d8:	0001                	nop
     6da:	00037463          	bgeu	t1,zero,6e2 <vprintfmt.constprop.0+0x23c>
     6de:	9000                	0x9000
     6e0:	01000003          	lb	zero,16(zero) # 10 <buf.1+0x10>
     6e4:	5d00                	lw	s0,56(a0)
     6e6:	0390                	addi	a2,sp,448
     6e8:	0000                	unimp
     6ea:	0398                	addi	a4,sp,448
     6ec:	0000                	unimp
     6ee:	0001                	nop
     6f0:	00000063          	beqz	zero,6f0 <vprintfmt.constprop.0+0x24a>
     6f4:	0000                	unimp
     6f6:	0000                	unimp
     6f8:	2c00                	fld	fs0,24(s0)
     6fa:	6c000003          	lb	zero,1728(zero) # 6c0 <vprintfmt.constprop.0+0x21a>
     6fe:	01000003          	lb	zero,16(zero) # 10 <buf.1+0x10>
     702:	5a00                	lw	s0,48(a2)
     704:	0388                	addi	a0,sp,448
     706:	0000                	unimp
     708:	03ac                	addi	a1,sp,456
     70a:	0000                	unimp
     70c:	0001                	nop
     70e:	005a                	c.slli	zero,0x16
     710:	0000                	unimp
     712:	0000                	unimp
     714:	0000                	unimp
     716:	5c00                	lw	s0,56(s0)
     718:	68000003          	lb	zero,1664(zero) # 680 <vprintfmt.constprop.0+0x1da>
     71c:	01000003          	lb	zero,16(zero) # 10 <buf.1+0x10>
     720:	5800                	lw	s0,48(s0)
	...
     72a:	04ec                	addi	a1,sp,588
     72c:	0000                	unimp
     72e:	0530                	addi	a2,sp,648
     730:	0000                	unimp
     732:	0001                	nop
     734:	0000005b          	0x5b
     738:	0000                	unimp
     73a:	0000                	unimp
     73c:	0400                	addi	s0,sp,512
     73e:	0005                	c.nop	1
     740:	1800                	addi	s0,sp,48
     742:	0005                	c.nop	1
     744:	0100                	addi	s0,sp,128
     746:	5f00                	lw	s0,56(a4)
     748:	0520                	addi	s0,sp,648
     74a:	0000                	unimp
     74c:	0524                	addi	s1,sp,648
     74e:	0000                	unimp
     750:	0001                	nop
     752:	245c                	fld	fa5,136(s0)
     754:	0005                	c.nop	1
     756:	2800                	fld	fs0,16(s0)
     758:	0005                	c.nop	1
     75a:	0100                	addi	s0,sp,128
     75c:	5f00                	lw	s0,56(a4)
	...
     766:	03c8                	addi	a0,sp,452
     768:	0000                	unimp
     76a:	000003cf          	fnmadd.s	ft7,ft0,ft0,ft0,rne
     76e:	0001                	nop
     770:	0003cf5b          	0x3cf5b
     774:	4800                	lw	s0,16(s0)
     776:	0005                	c.nop	1
     778:	0100                	addi	s0,sp,128
     77a:	6700                	flw	fs0,8(a4)
	...
     784:	03d8                	addi	a4,sp,452
     786:	0000                	unimp
     788:	03e0                	addi	s0,sp,460
     78a:	0000                	unimp
     78c:	0001                	nop
     78e:	e05a                	fsw	fs6,0(sp)
     790:	e3000003          	lb	zero,-464(zero) # fffffe30 <__C_STACK_TOP__+0xfffefe30>
     794:	01000003          	lb	zero,16(zero) # 10 <buf.1+0x10>
     798:	5b00                	lw	s0,48(a4)
     79a:	000003e3          	beqz	zero,fa0 <vprintfmt.constprop.0+0xafa>
     79e:	0400                	addi	s0,sp,512
     7a0:	0000                	unimp
     7a2:	0001                	nop
     7a4:	00040063          	beqz	s0,7a4 <vprintfmt.constprop.0+0x2fe>
     7a8:	7800                	flw	fs0,48(s0)
     7aa:	0004                	0x4
     7ac:	0100                	addi	s0,sp,128
     7ae:	6b00                	flw	fs0,16(a4)
	...
     7b8:	0434                	addi	a3,sp,520
     7ba:	0000                	unimp
     7bc:	043c                	addi	a5,sp,520
     7be:	0000                	unimp
     7c0:	0001                	nop
     7c2:	3c5a                	fld	fs8,432(sp)
     7c4:	0004                	0x4
     7c6:	3f00                	fld	fs0,56(a4)
     7c8:	0004                	0x4
     7ca:	0100                	addi	s0,sp,128
     7cc:	5b00                	lw	s0,48(a4)
     7ce:	0000043f 00000460 	0x4600000043f
     7d6:	0001                	nop
     7d8:	00046063          	bltu	s0,zero,7d8 <vprintfmt.constprop.0+0x332>
     7dc:	a400                	fsd	fs0,8(s0)
     7de:	0004                	0x4
     7e0:	0100                	addi	s0,sp,128
     7e2:	5f00                	lw	s0,56(a4)
	...
     7ec:	03d4                	addi	a3,sp,452
     7ee:	0000                	unimp
     7f0:	03e8                	addi	a0,sp,460
     7f2:	0000                	unimp
     7f4:	0001                	nop
     7f6:	f062                	fsw	fs8,32(sp)
     7f8:	fc000003          	lb	zero,-64(zero) # ffffffc0 <__C_STACK_TOP__+0xfffeffc0>
     7fc:	01000003          	lb	zero,16(zero) # 10 <buf.1+0x10>
     800:	5e00                	lw	s0,56(a2)
     802:	03fc                	addi	a5,sp,460
     804:	0000                	unimp
     806:	0400                	addi	s0,sp,512
     808:	0000                	unimp
     80a:	0008                	0x8
     80c:	0086                	slli	ra,ra,0x1
     80e:	2540                	fld	fs0,136(a0)
     810:	0082                	c.slli64	ra
     812:	9f21                	0x9f21
     814:	0400                	addi	s0,sp,512
     816:	0000                	unimp
     818:	0414                	addi	a3,sp,512
     81a:	0000                	unimp
     81c:	0001                	nop
     81e:	145e                	slli	s0,s0,0x37
     820:	0004                	0x4
     822:	3400                	fld	fs0,40(s0)
     824:	0004                	0x4
     826:	0100                	addi	s0,sp,128
     828:	6300                	flw	fs0,0(a4)
	...
     832:	0424                	addi	s1,sp,520
     834:	0000                	unimp
     836:	042c                	addi	a1,sp,520
     838:	0000                	unimp
     83a:	0001                	nop
     83c:	2c5a                	fld	fs8,400(sp)
     83e:	0004                	0x4
     840:	4800                	lw	s0,16(s0)
     842:	0004                	0x4
     844:	0100                	addi	s0,sp,128
     846:	6200                	flw	fs0,0(a2)
     848:	0450                	addi	a2,sp,516
     84a:	0000                	unimp
     84c:	045c                	addi	a5,sp,516
     84e:	0000                	unimp
     850:	0001                	nop
     852:	5c5d                	li	s8,-9
     854:	0004                	0x4
     856:	6000                	flw	fs0,0(s0)
     858:	0004                	0x4
     85a:	0a00                	addi	s0,sp,272
     85c:	8600                	0x8600
     85e:	4000                	lw	s0,0(s0)
     860:	4024                	lw	s1,64(s0)
     862:	8225                	srli	a2,a2,0x9
     864:	2100                	fld	fs0,0(a0)
     866:	609f 0004 8c00      	0x8c000004609f
     86c:	0004                	0x4
     86e:	0100                	addi	s0,sp,128
     870:	5d00                	lw	s0,56(a0)
     872:	048c                	addi	a1,sp,576
     874:	0000                	unimp
     876:	0548                	addi	a0,sp,644
     878:	0000                	unimp
     87a:	0001                	nop
     87c:	0066                	c.slli	zero,0x19
     87e:	0000                	unimp
     880:	0000                	unimp
     882:	0000                	unimp
     884:	e400                	fsw	fs0,8(s0)
     886:	1c000003          	lb	zero,448(zero) # 1c0 <machine_trap_entry>
     88a:	0004                	0x4
     88c:	0100                	addi	s0,sp,128
     88e:	5a00                	lw	s0,48(a2)
     890:	0440                	addi	s0,sp,516
     892:	0000                	unimp
     894:	0498                	addi	a4,sp,576
     896:	0000                	unimp
     898:	0001                	nop
     89a:	005a                	c.slli	zero,0x16
     89c:	0000                	unimp
     89e:	0000                	unimp
     8a0:	0000                	unimp
     8a2:	a400                	fsd	fs0,8(s0)
     8a4:	0004                	0x4
     8a6:	ac00                	fsd	fs0,24(s0)
     8a8:	0004                	0x4
     8aa:	0100                	addi	s0,sp,128
     8ac:	5a00                	lw	s0,48(a2)
     8ae:	04ac                	addi	a1,sp,584
     8b0:	0000                	unimp
     8b2:	0500                	addi	s0,sp,640
     8b4:	0000                	unimp
     8b6:	0001                	nop
     8b8:	005f 0000 0000      	0x5f
     8be:	0000                	unimp
     8c0:	b400                	fsd	fs0,40(s0)
     8c2:	0004                	0x4
     8c4:	bc00                	fsd	fs0,56(s0)
     8c6:	0004                	0x4
     8c8:	0100                	addi	s0,sp,128
     8ca:	5a00                	lw	s0,48(a2)
     8cc:	04bc                	addi	a5,sp,584
     8ce:	0000                	unimp
     8d0:	04d0                	addi	a2,sp,580
     8d2:	0000                	unimp
     8d4:	0001                	nop
     8d6:	d05e                	sw	s7,32(sp)
     8d8:	0004                	0x4
     8da:	d400                	sw	s0,40(s0)
     8dc:	0004                	0x4
     8de:	0800                	addi	s0,sp,16
     8e0:	7f00                	flw	fs0,56(a4)
     8e2:	4000                	lw	s0,0(s0)
     8e4:	7e25                	lui	t3,0xfffe9
     8e6:	2200                	fld	fs0,0(a2)
     8e8:	dc9f 0004 f800      	0xf8000004dc9f
     8ee:	0004                	0x4
     8f0:	0100                	addi	s0,sp,128
     8f2:	5e00                	lw	s0,56(a2)
	...
     8fc:	04c4                	addi	s1,sp,580
     8fe:	0000                	unimp
     900:	04cc                	addi	a1,sp,580
     902:	0000                	unimp
     904:	0001                	nop
     906:	cc5a                	sw	s6,24(sp)
     908:	0004                	0x4
     90a:	4800                	lw	s0,16(s0)
     90c:	0005                	c.nop	1
     90e:	0100                	addi	s0,sp,128
     910:	6000                	flw	fs0,0(s0)
	...
     91a:	04d0                	addi	a2,sp,580
     91c:	0000                	unimp
     91e:	04f0                	addi	a2,sp,588
     920:	0000                	unimp
     922:	0001                	nop
     924:	005a                	c.slli	zero,0x16
     926:	0000                	unimp
     928:	0000                	unimp
     92a:	0000                	unimp
     92c:	8c00                	0x8c00
     92e:	0004                	0x4
     930:	b400                	fsd	fs0,40(s0)
     932:	0004                	0x4
     934:	0100                	addi	s0,sp,128
     936:	5e00                	lw	s0,56(a2)
	...
     940:	0490                	addi	a2,sp,576
     942:	0000                	unimp
     944:	04c4                	addi	s1,sp,580
     946:	0000                	unimp
     948:	0001                	nop
     94a:	c460                	sw	s0,76(s0)
     94c:	0004                	0x4
     94e:	f400                	fsw	fs0,40(s0)
     950:	0004                	0x4
     952:	0600                	addi	s0,sp,768
     954:	7600                	flw	fs0,40(a2)
     956:	8a7f                	0x8a7f
     958:	1a00                	addi	s0,sp,304
     95a:	f49f 0004 4000      	0x40000004f49f
     960:	0005                	c.nop	1
     962:	0600                	addi	s0,sp,768
     964:	8a00                	0x8a00
     966:	7a00                	flw	fs0,48(a2)
     968:	1a00                	addi	s0,sp,304
     96a:	409f 0005 4800      	0x48000005409f
     970:	0005                	c.nop	1
     972:	0600                	addi	s0,sp,768
     974:	7600                	flw	fs0,40(a2)
     976:	8a7f                	0x8a7f
     978:	1a00                	addi	s0,sp,304
     97a:	009f 0000 0000      	0x9f
     980:	0000                	unimp
     982:	1400                	addi	s0,sp,544
     984:	0005                	c.nop	1
     986:	2400                	fld	fs0,8(s0)
     988:	0005                	c.nop	1
     98a:	0100                	addi	s0,sp,128
     98c:	5c00                	lw	s0,56(s0)
	...
     996:	0528                	addi	a0,sp,648
     998:	0000                	unimp
     99a:	053c                	addi	a5,sp,648
     99c:	0000                	unimp
     99e:	0001                	nop
     9a0:	005f 0000 0000      	0x5f
     9a6:	0000                	unimp
     9a8:	0000                	unimp
     9aa:	0000                	unimp
     9ac:	a400                	fsd	fs0,8(s0)
     9ae:	0000                	unimp
     9b0:	0600                	addi	s0,sp,768
     9b2:	5a00                	lw	s0,48(a2)
     9b4:	935b0493          	addi	s1,s6,-1739
     9b8:	a404                	fsd	fs1,8(s0)
     9ba:	0000                	unimp
     9bc:	6800                	flw	fs0,16(s0)
     9be:	0001                	nop
     9c0:	0600                	addi	s0,sp,768
     9c2:	f300                	fsw	fs0,32(a4)
     9c4:	250af503          	0x250af503
     9c8:	689f 0001 8c00      	0x8c000001689f
     9ce:	0001                	nop
     9d0:	0600                	addi	s0,sp,768
     9d2:	5a00                	lw	s0,48(a2)
     9d4:	935b0493          	addi	s1,s6,-1739
     9d8:	8c04                	0x8c04
     9da:	0001                	nop
     9dc:	d000                	sw	s0,32(s0)
     9de:	06000003          	lb	zero,96(zero) # 60 <buflen.0+0x20>
     9e2:	f300                	fsw	fs0,32(a4)
     9e4:	250af503          	0x250af503
     9e8:	d09f 0003 5c00      	0x5c000003d09f
     9ee:	0004                	0x4
     9f0:	0600                	addi	s0,sp,768
     9f2:	5a00                	lw	s0,48(a2)
     9f4:	935b0493          	addi	s1,s6,-1739
     9f8:	5c04                	lw	s1,56(s0)
     9fa:	0004                	0x4
     9fc:	cc00                	sw	s0,24(s0)
     9fe:	0005                	c.nop	1
     a00:	0600                	addi	s0,sp,768
     a02:	f300                	fsw	fs0,32(a4)
     a04:	250af503          	0x250af503
     a08:	cc9f 0005 d800      	0xd8000005cc9f
     a0e:	0005                	c.nop	1
     a10:	0600                	addi	s0,sp,768
     a12:	5a00                	lw	s0,48(a2)
     a14:	935b0493          	addi	s1,s6,-1739
     a18:	0004                	0x4
	...
     a22:	0000                	unimp
     a24:	a700                	fsd	fs0,8(a4)
     a26:	0000                	unimp
     a28:	0600                	addi	s0,sp,768
     a2a:	5c00                	lw	s0,56(s0)
     a2c:	935d0493          	addi	s1,s10,-1739
     a30:	a704                	fsd	fs1,8(a4)
     a32:	0000                	unimp
     a34:	6800                	flw	fs0,16(s0)
     a36:	0001                	nop
     a38:	0600                	addi	s0,sp,768
     a3a:	f300                	fsw	fs0,32(a4)
     a3c:	250cf503          	0x250cf503
     a40:	689f 0001 8f00      	0x8f000001689f
     a46:	0001                	nop
     a48:	0600                	addi	s0,sp,768
     a4a:	5c00                	lw	s0,56(s0)
     a4c:	935d0493          	addi	s1,s10,-1739
     a50:	8f04                	0x8f04
     a52:	0001                	nop
     a54:	d000                	sw	s0,32(s0)
     a56:	06000003          	lb	zero,96(zero) # 60 <buflen.0+0x20>
     a5a:	f300                	fsw	fs0,32(a4)
     a5c:	250cf503          	0x250cf503
     a60:	d09f 0003 1800      	0x18000003d09f
     a66:	0004                	0x4
     a68:	0600                	addi	s0,sp,768
     a6a:	5c00                	lw	s0,56(s0)
     a6c:	935d0493          	addi	s1,s10,-1739
     a70:	1804                	addi	s1,sp,48
     a72:	0004                	0x4
     a74:	2000                	fld	fs0,0(s0)
     a76:	0004                	0x4
     a78:	0600                	addi	s0,sp,768
     a7a:	f300                	fsw	fs0,32(a4)
     a7c:	250cf503          	0x250cf503
     a80:	209f 0004 6300      	0x63000004209f
     a86:	0004                	0x4
     a88:	0600                	addi	s0,sp,768
     a8a:	5c00                	lw	s0,56(s0)
     a8c:	935d0493          	addi	s1,s10,-1739
     a90:	6304                	flw	fs1,0(a4)
     a92:	0004                	0x4
     a94:	cc00                	sw	s0,24(s0)
     a96:	0005                	c.nop	1
     a98:	0600                	addi	s0,sp,768
     a9a:	f300                	fsw	fs0,32(a4)
     a9c:	250cf503          	0x250cf503
     aa0:	cc9f 0005 d800      	0xd8000005cc9f
     aa6:	0005                	c.nop	1
     aa8:	0600                	addi	s0,sp,768
     aaa:	5c00                	lw	s0,56(s0)
     aac:	935d0493          	addi	s1,s10,-1739
     ab0:	0004                	0x4
	...
     aba:	0000                	unimp
     abc:	9400                	0x9400
     abe:	0002                	c.slli64	zero
     ac0:	0200                	addi	s0,sp,256
     ac2:	3000                	fld	fs0,32(s0)
     ac4:	d09f 0002 d800      	0xd8000002d09f
     aca:	0005                	c.nop	1
     acc:	0200                	addi	s0,sp,256
     ace:	3000                	fld	fs0,32(s0)
     ad0:	009f 0000 0000      	0x9f
     ad6:	0000                	unimp
     ad8:	0000                	unimp
     ada:	0000                	unimp
     adc:	7800                	flw	fs0,48(s0)
     ade:	0000                	unimp
     ae0:	0600                	addi	s0,sp,768
     ae2:	5c00                	lw	s0,56(s0)
     ae4:	935d0493          	addi	s1,s10,-1739
     ae8:	6804                	flw	fs1,16(s0)
     aea:	0001                	nop
     aec:	8f00                	0x8f00
     aee:	0001                	nop
     af0:	0600                	addi	s0,sp,768
     af2:	5c00                	lw	s0,56(s0)
     af4:	935d0493          	addi	s1,s10,-1739
     af8:	8f04                	0x8f04
     afa:	0001                	nop
     afc:	9400                	0x9400
     afe:	0001                	nop
     b00:	0600                	addi	s0,sp,768
     b02:	6200                	flw	fs0,0(a2)
     b04:	93630493          	addi	s1,t1,-1738
     b08:	d004                	sw	s1,32(s0)
     b0a:	18000003          	lb	zero,384(zero) # 180 <SIM_STOP+0x88>
     b0e:	0004                	0x4
     b10:	0600                	addi	s0,sp,768
     b12:	5c00                	lw	s0,56(s0)
     b14:	935d0493          	addi	s1,s10,-1739
     b18:	2004                	fld	fs1,0(s0)
     b1a:	0004                	0x4
     b1c:	3c00                	fld	fs0,56(s0)
     b1e:	0004                	0x4
     b20:	0600                	addi	s0,sp,768
     b22:	5c00                	lw	s0,56(s0)
     b24:	935d0493          	addi	s1,s10,-1739
     b28:	cc04                	sw	s1,24(s0)
     b2a:	0005                	c.nop	1
     b2c:	d800                	sw	s0,48(s0)
     b2e:	0005                	c.nop	1
     b30:	0600                	addi	s0,sp,768
     b32:	5c00                	lw	s0,56(s0)
     b34:	935d0493          	addi	s1,s10,-1739
     b38:	0004                	0x4
	...
     b42:	0000                	unimp
     b44:	a000                	fsd	fs0,0(s0)
     b46:	0000                	unimp
     b48:	0600                	addi	s0,sp,768
     b4a:	5a00                	lw	s0,48(a2)
     b4c:	935b0493          	addi	s1,s6,-1739
     b50:	6804                	flw	fs1,16(s0)
     b52:	0001                	nop
     b54:	8c00                	0x8c00
     b56:	0001                	nop
     b58:	0600                	addi	s0,sp,768
     b5a:	5a00                	lw	s0,48(a2)
     b5c:	93580493          	addi	s1,a6,-1739
     b60:	8c04                	0x8c04
     b62:	0001                	nop
     b64:	c800                	sw	s0,16(s0)
     b66:	0001                	nop
     b68:	0600                	addi	s0,sp,768
     b6a:	6400                	flw	fs0,8(s0)
     b6c:	93580493          	addi	s1,a6,-1739
     b70:	d004                	sw	s1,32(s0)
     b72:	0002                	c.slli64	zero
     b74:	f400                	fsw	fs0,40(s0)
     b76:	0002                	c.slli64	zero
     b78:	0600                	addi	s0,sp,768
     b7a:	6400                	flw	fs0,8(s0)
     b7c:	93580493          	addi	s1,a6,-1739
     b80:	d004                	sw	s1,32(s0)
     b82:	48000003          	lb	zero,1152(zero) # 480 <STACK_SIZE+0x80>
     b86:	0004                	0x4
     b88:	0600                	addi	s0,sp,768
     b8a:	5a00                	lw	s0,48(a2)
     b8c:	93580493          	addi	s1,a6,-1739
     b90:	cc04                	sw	s1,24(s0)
     b92:	0005                	c.nop	1
     b94:	d800                	sw	s0,48(s0)
     b96:	0005                	c.nop	1
     b98:	0600                	addi	s0,sp,768
     b9a:	5a00                	lw	s0,48(a2)
     b9c:	93580493          	addi	s1,a6,-1739
     ba0:	0004                	0x4
	...
     baa:	0000                	unimp
     bac:	8400                	0x8400
     bae:	0000                	unimp
     bb0:	0100                	addi	s0,sp,128
     bb2:	5c00                	lw	s0,56(s0)
     bb4:	0084                	addi	s1,sp,64
     bb6:	0000                	unimp
     bb8:	0090                	addi	a2,sp,64
     bba:	0000                	unimp
     bbc:	0009                	c.nop	2
     bbe:	007c                	addi	a5,sp,12
     bc0:	007e                	c.slli	zero,0x1f
     bc2:	ff08                	fsw	fa0,56(a4)
     bc4:	241a                	fld	fs0,384(sp)
     bc6:	909f 0000 6000      	0x60000000909f
     bcc:	0001                	nop
     bce:	0100                	addi	s0,sp,128
     bd0:	6200                	flw	fs0,0(a2)
     bd2:	0168                	addi	a0,sp,140
     bd4:	0000                	unimp
     bd6:	0000018f          	0x18f
     bda:	0001                	nop
     bdc:	8f5c                	0x8f5c
     bde:	0001                	nop
     be0:	9400                	0x9400
     be2:	0001                	nop
     be4:	0100                	addi	s0,sp,128
     be6:	6200                	flw	fs0,0(a2)
     be8:	02e4                	addi	s1,sp,332
     bea:	0000                	unimp
     bec:	02e8                	addi	a0,sp,332
     bee:	0000                	unimp
     bf0:	0009                	c.nop	2
     bf2:	0082                	c.slli64	ra
     bf4:	007e                	c.slli	zero,0x1f
     bf6:	ff08                	fsw	fa0,56(a4)
     bf8:	241a                	fld	fs0,384(sp)
     bfa:	e89f 0002 d000      	0xd0000002e89f
     c00:	01000003          	lb	zero,16(zero) # 10 <buf.1+0x10>
     c04:	6200                	flw	fs0,0(a2)
     c06:	03d0                	addi	a2,sp,452
     c08:	0000                	unimp
     c0a:	0418                	addi	a4,sp,512
     c0c:	0000                	unimp
     c0e:	0001                	nop
     c10:	205c                	fld	fa5,128(s0)
     c12:	0004                	0x4
     c14:	6000                	flw	fs0,0(s0)
     c16:	0004                	0x4
     c18:	0100                	addi	s0,sp,128
     c1a:	5c00                	lw	s0,56(s0)
     c1c:	0460                	addi	s0,sp,524
     c1e:	0000                	unimp
     c20:	053c                	addi	a5,sp,648
     c22:	0000                	unimp
     c24:	0001                	nop
     c26:	cc59                	beqz	s0,cc4 <vprintfmt.constprop.0+0x81e>
     c28:	0005                	c.nop	1
     c2a:	d800                	sw	s0,48(s0)
     c2c:	0005                	c.nop	1
     c2e:	0100                	addi	s0,sp,128
     c30:	5c00                	lw	s0,56(s0)
	...
     c3e:	0078                	addi	a4,sp,12
     c40:	0000                	unimp
     c42:	0001                	nop
     c44:	685d                	lui	a6,0x17
     c46:	0001                	nop
     c48:	8f00                	0x8f00
     c4a:	0001                	nop
     c4c:	0100                	addi	s0,sp,128
     c4e:	5d00                	lw	s0,56(a0)
     c50:	0000018f          	0x18f
     c54:	01a8                	addi	a0,sp,200
     c56:	0000                	unimp
     c58:	0001                	nop
     c5a:	0002d063          	bgez	t0,c5a <vprintfmt.constprop.0+0x7b4>
     c5e:	d800                	sw	s0,48(s0)
     c60:	0002                	c.slli64	zero
     c62:	0100                	addi	s0,sp,128
     c64:	6300                	flw	fs0,0(a4)
     c66:	03d0                	addi	a2,sp,452
     c68:	0000                	unimp
     c6a:	043c                	addi	a5,sp,520
     c6c:	0000                	unimp
     c6e:	0001                	nop
     c70:	405d                	c.li	zero,23
     c72:	0004                	0x4
     c74:	cc00                	sw	s0,24(s0)
     c76:	0005                	c.nop	1
     c78:	0100                	addi	s0,sp,128
     c7a:	6900                	flw	fs0,16(a0)
     c7c:	05cc                	addi	a1,sp,708
     c7e:	0000                	unimp
     c80:	05d8                	addi	a4,sp,708
     c82:	0000                	unimp
     c84:	0001                	nop
     c86:	005d                	c.nop	23
	...
     c90:	0000                	unimp
     c92:	9800                	0x9800
     c94:	0000                	unimp
     c96:	0100                	addi	s0,sp,128
     c98:	5a00                	lw	s0,48(a2)
     c9a:	0098                	addi	a4,sp,64
     c9c:	0000                	unimp
     c9e:	0120                	addi	s0,sp,136
     ca0:	0000                	unimp
     ca2:	0001                	nop
     ca4:	6864                	flw	fs1,84(s0)
     ca6:	0001                	nop
     ca8:	8c00                	0x8c00
     caa:	0001                	nop
     cac:	0100                	addi	s0,sp,128
     cae:	5a00                	lw	s0,48(a2)
     cb0:	018c                	addi	a1,sp,192
     cb2:	0000                	unimp
     cb4:	0254                	addi	a3,sp,260
     cb6:	0000                	unimp
     cb8:	0001                	nop
     cba:	d064                	sw	s1,100(s0)
     cbc:	0002                	c.slli64	zero
     cbe:	d000                	sw	s0,32(s0)
     cc0:	01000003          	lb	zero,16(zero) # 10 <buf.1+0x10>
     cc4:	6400                	flw	fs0,8(s0)
     cc6:	03d0                	addi	a2,sp,452
     cc8:	0000                	unimp
     cca:	045c                	addi	a5,sp,516
     ccc:	0000                	unimp
     cce:	0001                	nop
     cd0:	5c5a                	lw	s8,180(sp)
     cd2:	0004                	0x4
     cd4:	6000                	flw	fs0,0(s0)
     cd6:	0004                	0x4
     cd8:	0100                	addi	s0,sp,128
     cda:	6700                	flw	fs0,8(a4)
     cdc:	0460                	addi	s0,sp,524
     cde:	0000                	unimp
     ce0:	05b8                	addi	a4,sp,712
     ce2:	0000                	unimp
     ce4:	0006                	c.slli	zero,0x1
     ce6:	00830087          	0x830087
     cea:	9f24                	0x9f24
     cec:	05cc                	addi	a1,sp,708
     cee:	0000                	unimp
     cf0:	05d8                	addi	a4,sp,708
     cf2:	0000                	unimp
     cf4:	0001                	nop
     cf6:	005a                	c.slli	zero,0x16
	...
     d00:	0000                	unimp
     d02:	9400                	0x9400
     d04:	0000                	unimp
     d06:	0100                	addi	s0,sp,128
     d08:	5b00                	lw	s0,48(a4)
     d0a:	0094                	addi	a3,sp,64
     d0c:	0000                	unimp
     d0e:	0160                	addi	s0,sp,140
     d10:	0000                	unimp
     d12:	0001                	nop
     d14:	6868                	flw	fa0,84(s0)
     d16:	0001                	nop
     d18:	f800                	fsw	fs0,48(s0)
     d1a:	0001                	nop
     d1c:	0100                	addi	s0,sp,128
     d1e:	5800                	lw	s0,48(s0)
     d20:	02d0                	addi	a2,sp,324
     d22:	0000                	unimp
     d24:	02f4                	addi	a3,sp,332
     d26:	0000                	unimp
     d28:	0001                	nop
     d2a:	f858                	fsw	fa4,52(s0)
     d2c:	0002                	c.slli64	zero
     d2e:	cc00                	sw	s0,24(s0)
     d30:	01000003          	lb	zero,16(zero) # 10 <buf.1+0x10>
     d34:	6600                	flw	fs0,8(a2)
     d36:	03cc                	addi	a1,sp,452
     d38:	0000                	unimp
     d3a:	0448                	addi	a0,sp,516
     d3c:	0000                	unimp
     d3e:	0001                	nop
     d40:	6058                	flw	fa4,4(s0)
     d42:	0004                	0x4
     d44:	3400                	fld	fs0,40(s0)
     d46:	0005                	c.nop	1
     d48:	0100                	addi	s0,sp,128
     d4a:	6500                	flw	fs0,8(a0)
     d4c:	0534                	addi	a3,sp,648
     d4e:	0000                	unimp
     d50:	05d8                	addi	a4,sp,708
     d52:	0000                	unimp
     d54:	0001                	nop
     d56:	0058                	addi	a4,sp,4
     d58:	0000                	unimp
     d5a:	0000                	unimp
     d5c:	0000                	unimp
     d5e:	ec00                	fsw	fs0,24(s0)
     d60:	0002                	c.slli64	zero
     d62:	4400                	lw	s0,8(s0)
     d64:	01000003          	lb	zero,16(zero) # 10 <buf.1+0x10>
     d68:	6300                	flw	fs0,0(a4)
     d6a:	0460                	addi	s0,sp,524
     d6c:	0000                	unimp
     d6e:	00000463          	beqz	zero,d76 <vprintfmt.constprop.0+0x8d0>
     d72:	0001                	nop
     d74:	635a                	flw	ft6,148(sp)
     d76:	0004                	0x4
     d78:	8000                	0x8000
     d7a:	0004                	0x4
     d7c:	0100                	addi	s0,sp,128
     d7e:	6200                	flw	fs0,0(a2)
	...
     d88:	0160                	addi	s0,sp,140
     d8a:	0000                	unimp
     d8c:	0168                	addi	a0,sp,140
     d8e:	0000                	unimp
     d90:	0001                	nop
     d92:	345f 0005 cc00      	0xcc000005345f
     d98:	0005                	c.nop	1
     d9a:	0100                	addi	s0,sp,128
     d9c:	5f00                	lw	s0,56(a4)
	...
     da6:	01c8                	addi	a0,sp,196
     da8:	0000                	unimp
     daa:	01cc                	addi	a1,sp,196
     dac:	0000                	unimp
     dae:	0002                	c.slli64	zero
     db0:	9f31                	0x9f31
     db2:	01cc                	addi	a1,sp,196
     db4:	0000                	unimp
     db6:	0294                	addi	a3,sp,320
     db8:	0000                	unimp
     dba:	0001                	nop
     dbc:	0003cc63          	bltz	t2,dd4 <vprintfmt.constprop.0+0x92e>
     dc0:	d000                	sw	s0,32(s0)
     dc2:	01000003          	lb	zero,16(zero) # 10 <buf.1+0x10>
     dc6:	6300                	flw	fs0,0(a4)
	...
     dd0:	02e4                	addi	s1,sp,332
     dd2:	0000                	unimp
     dd4:	02f0                	addi	a2,sp,332
     dd6:	0000                	unimp
     dd8:	0001                	nop
     dda:	345f 0004 4c00      	0x4c000004345f
     de0:	0004                	0x4
     de2:	0100                	addi	s0,sp,128
     de4:	6500                	flw	fs0,8(a0)
	...
     dee:	0080                	addi	s0,sp,64
     df0:	0000                	unimp
     df2:	000000a7          	0xa7
     df6:	0001                	nop
     df8:	c05e                	sw	s7,0(sp)
     dfa:	0001                	nop
     dfc:	cc00                	sw	s0,24(s0)
     dfe:	0001                	nop
     e00:	0100                	addi	s0,sp,128
     e02:	5e00                	lw	s0,56(a2)
     e04:	02e4                	addi	s1,sp,332
     e06:	0000                	unimp
     e08:	0000030b          	0x30b
     e0c:	0001                	nop
     e0e:	085e                	slli	a6,a6,0x17
     e10:	0004                	0x4
     e12:	2000                	fld	fs0,0(s0)
     e14:	0004                	0x4
     e16:	0100                	addi	s0,sp,128
     e18:	6300                	flw	fs0,0(a4)
     e1a:	0434                	addi	a3,sp,520
     e1c:	0000                	unimp
     e1e:	05c0                	addi	s0,sp,708
     e20:	0000                	unimp
     e22:	0001                	nop
     e24:	00000063          	beqz	zero,e24 <vprintfmt.constprop.0+0x97e>
     e28:	0000                	unimp
     e2a:	0000                	unimp
     e2c:	5800                	lw	s0,48(s0)
     e2e:	0000                	unimp
     e30:	8400                	0x8400
     e32:	0000                	unimp
     e34:	0100                	addi	s0,sp,128
     e36:	5c00                	lw	s0,56(s0)
     e38:	0084                	addi	s1,sp,64
     e3a:	0000                	unimp
     e3c:	0090                	addi	a2,sp,64
     e3e:	0000                	unimp
     e40:	0009                	c.nop	2
     e42:	007c                	addi	a5,sp,12
     e44:	007e                	c.slli	zero,0x1f
     e46:	ff08                	fsw	fa0,56(a4)
     e48:	241a                	fld	fs0,384(sp)
     e4a:	909f 0000 6000      	0x60000000909f
     e50:	0001                	nop
     e52:	0100                	addi	s0,sp,128
     e54:	6200                	flw	fs0,0(a2)
     e56:	0168                	addi	a0,sp,140
     e58:	0000                	unimp
     e5a:	017c                	addi	a5,sp,140
     e5c:	0000                	unimp
     e5e:	0001                	nop
     e60:	005c                	addi	a5,sp,4
     e62:	0000                	unimp
     e64:	0000                	unimp
     e66:	0000                	unimp
     e68:	6800                	flw	fs0,16(s0)
     e6a:	0000                	unimp
     e6c:	7c00                	flw	fs0,56(s0)
     e6e:	0000                	unimp
     e70:	0100                	addi	s0,sp,128
     e72:	5f00                	lw	s0,56(a4)
	...
     e7c:	009c                	addi	a5,sp,64
     e7e:	0000                	unimp
     e80:	0160                	addi	s0,sp,140
     e82:	0000                	unimp
     e84:	0001                	nop
     e86:	0066                	c.slli	zero,0x19
     e88:	0000                	unimp
     e8a:	0000                	unimp
     e8c:	0000                	unimp
     e8e:	c000                	sw	s0,0(s0)
     e90:	0000                	unimp
     e92:	6000                	flw	fs0,0(s0)
     e94:	0001                	nop
     e96:	0100                	addi	s0,sp,128
     e98:	6500                	flw	fs0,8(a0)
	...
     ea2:	00c4                	addi	s1,sp,68
     ea4:	0000                	unimp
     ea6:	00ec                	addi	a1,sp,76
     ea8:	0000                	unimp
     eaa:	0001                	nop
     eac:	ec58                	fsw	fa4,28(s0)
     eae:	0000                	unimp
     eb0:	6000                	flw	fs0,0(s0)
     eb2:	0001                	nop
     eb4:	0100                	addi	s0,sp,128
     eb6:	6300                	flw	fs0,0(a4)
	...
     ec0:	0124                	addi	s1,sp,136
     ec2:	0000                	unimp
     ec4:	014c                	addi	a1,sp,132
     ec6:	0000                	unimp
     ec8:	0001                	nop
     eca:	4c58                	lw	a4,28(s0)
     ecc:	0001                	nop
     ece:	6000                	flw	fs0,0(s0)
     ed0:	0001                	nop
     ed2:	0100                	addi	s0,sp,128
     ed4:	5c00                	lw	s0,56(s0)
	...
     ede:	00c0                	addi	s0,sp,68
     ee0:	0000                	unimp
     ee2:	00d4                	addi	a3,sp,68
     ee4:	0000                	unimp
     ee6:	0001                	nop
     ee8:	dc59                	beqz	s0,e86 <vprintfmt.constprop.0+0x9e0>
     eea:	0000                	unimp
     eec:	e800                	fsw	fs0,16(s0)
     eee:	0000                	unimp
     ef0:	0100                	addi	s0,sp,128
     ef2:	5e00                	lw	s0,56(a2)
     ef4:	00e8                	addi	a0,sp,76
     ef6:	0000                	unimp
     ef8:	00ec                	addi	a1,sp,76
     efa:	0000                	unimp
     efc:	0008                	0x8
     efe:	0084                	addi	s1,sp,64
     f00:	2540                	fld	fs0,136(a0)
     f02:	0079                	c.nop	30
     f04:	9f21                	0x9f21
     f06:	00ec                	addi	a1,sp,76
     f08:	0000                	unimp
     f0a:	0100                	addi	s0,sp,128
     f0c:	0000                	unimp
     f0e:	0001                	nop
     f10:	005e                	c.slli	zero,0x17
     f12:	0001                	nop
     f14:	2400                	fld	fs0,8(s0)
     f16:	0001                	nop
     f18:	0100                	addi	s0,sp,128
     f1a:	5800                	lw	s0,48(s0)
	...
     f24:	0110                	addi	a2,sp,128
     f26:	0000                	unimp
     f28:	012c                	addi	a1,sp,136
     f2a:	0000                	unimp
     f2c:	0001                	nop
     f2e:	3c59                	jal	9c4 <vprintfmt.constprop.0+0x51e>
     f30:	0001                	nop
     f32:	4800                	lw	s0,16(s0)
     f34:	0001                	nop
     f36:	0100                	addi	s0,sp,128
     f38:	6400                	flw	fs0,8(s0)
	...
     f42:	00d0                	addi	a2,sp,68
     f44:	0000                	unimp
     f46:	0108                	addi	a0,sp,128
     f48:	0000                	unimp
     f4a:	0001                	nop
     f4c:	385a                	fld	fa6,432(sp)
     f4e:	0001                	nop
     f50:	6000                	flw	fs0,0(s0)
     f52:	0001                	nop
     f54:	0100                	addi	s0,sp,128
     f56:	5a00                	lw	s0,48(a2)
	...
     f60:	0598                	addi	a4,sp,704
     f62:	0000                	unimp
     f64:	05c8                	addi	a0,sp,708
     f66:	0000                	unimp
     f68:	0001                	nop
     f6a:	005d                	c.nop	23
     f6c:	0000                	unimp
     f6e:	0000                	unimp
     f70:	0000                	unimp
     f72:	9800                	0x9800
     f74:	0005                	c.nop	1
     f76:	ac00                	fsd	fs0,24(s0)
     f78:	0005                	c.nop	1
     f7a:	1000                	addi	s0,sp,32
     f7c:	8000                	0x8000
     f7e:	0a00                	addi	s0,sp,272
     f80:	ffff                	0xffff
     f82:	7e1a                	flw	ft8,164(sp)
     f84:	0a00                	addi	s0,sp,272
     f86:	ffff                	0xffff
     f88:	401a                	0x401a
     f8a:	2224                	fld	fs1,64(a2)
     f8c:	ac9f 0005 b400      	0xb4000005ac9f
     f92:	0005                	c.nop	1
     f94:	1500                	addi	s0,sp,672
     f96:	8000                	0x8000
     f98:	0a00                	addi	s0,sp,272
     f9a:	ffff                	0xffff
     f9c:	801a                	c.mv	zero,t1
     f9e:	4000                	lw	s0,0(s0)
     fa0:	8125                	srli	a0,a0,0x9
     fa2:	2200                	fld	fs0,0(a2)
     fa4:	ff0a                	fsw	ft2,188(sp)
     fa6:	1aff                	0x1aff
     fa8:	2440                	fld	fs0,136(s0)
     faa:	9f22                	add	t5,t5,s0
	...
     fb4:	0460                	addi	s0,sp,524
     fb6:	0000                	unimp
     fb8:	04dc                	addi	a5,sp,580
     fba:	0000                	unimp
     fbc:	0001                	nop
     fbe:	dc58                	sw	a4,60(s0)
     fc0:	0004                	0x4
     fc2:	cc00                	sw	s0,24(s0)
     fc4:	0005                	c.nop	1
     fc6:	0500                	addi	s0,sp,640
     fc8:	8900                	0x8900
     fca:	4000                	lw	s0,0(s0)
     fcc:	9f25                	0x9f25
	...
     fd6:	047c                	addi	a5,sp,524
     fd8:	0000                	unimp
     fda:	05cc                	addi	a1,sp,708
     fdc:	0000                	unimp
     fde:	0001                	nop
     fe0:	0066                	c.slli	zero,0x19
     fe2:	0000                	unimp
     fe4:	0000                	unimp
     fe6:	0000                	unimp
     fe8:	8000                	0x8000
     fea:	0004                	0x4
     fec:	8800                	0x8800
     fee:	0004                	0x4
     ff0:	0100                	addi	s0,sp,128
     ff2:	5a00                	lw	s0,48(a2)
     ff4:	0488                	addi	a0,sp,576
     ff6:	0000                	unimp
     ff8:	0000048b          	0x48b
     ffc:	0001                	nop
     ffe:	00048b5b          	0x48b5b
    1002:	a800                	fsd	fs0,16(s0)
    1004:	0004                	0x4
    1006:	0100                	addi	s0,sp,128
    1008:	6200                	flw	fs0,0(a2)
    100a:	04a8                	addi	a0,sp,584
    100c:	0000                	unimp
    100e:	05cc                	addi	a1,sp,708
    1010:	0000                	unimp
    1012:	0001                	nop
    1014:	0068                	addi	a0,sp,12
    1016:	0000                	unimp
    1018:	0000                	unimp
    101a:	0000                	unimp
    101c:	e000                	fsw	fs0,0(s0)
    101e:	0004                	0x4
    1020:	ec00                	fsw	fs0,24(s0)
    1022:	0004                	0x4
    1024:	0100                	addi	s0,sp,128
    1026:	5a00                	lw	s0,48(a2)
    1028:	04ec                	addi	a1,sp,588
    102a:	0000                	unimp
    102c:	000004f3          	0x4f3
    1030:	0001                	nop
    1032:	0004f35b          	0x4f35b
    1036:	0800                	addi	s0,sp,16
    1038:	0005                	c.nop	1
    103a:	0100                	addi	s0,sp,128
    103c:	6200                	flw	fs0,0(a2)
    103e:	0508                	addi	a0,sp,640
    1040:	0000                	unimp
    1042:	0548                	addi	a0,sp,644
    1044:	0000                	unimp
    1046:	0001                	nop
    1048:	005c                	addi	a5,sp,4
    104a:	0000                	unimp
    104c:	0000                	unimp
    104e:	0000                	unimp
    1050:	7c00                	flw	fs0,56(s0)
    1052:	0004                	0x4
    1054:	9000                	0x9000
    1056:	0004                	0x4
    1058:	0100                	addi	s0,sp,128
    105a:	6400                	flw	fs0,8(s0)
    105c:	0498                	addi	a4,sp,576
    105e:	0000                	unimp
    1060:	04a4                	addi	s1,sp,584
    1062:	0000                	unimp
    1064:	0001                	nop
    1066:	a45e                	fsd	fs7,8(sp)
    1068:	0004                	0x4
    106a:	a800                	fsd	fs0,16(s0)
    106c:	0004                	0x4
    106e:	0800                	addi	s0,sp,16
    1070:	8500                	0x8500
    1072:	4000                	lw	s0,0(s0)
    1074:	8425                	srai	s0,s0,0x9
    1076:	2100                	fld	fs0,0(a0)
    1078:	a89f 0004 bc00      	0xbc000004a89f
    107e:	0004                	0x4
    1080:	0100                	addi	s0,sp,128
    1082:	5e00                	lw	s0,56(a2)
    1084:	04bc                	addi	a5,sp,584
    1086:	0000                	unimp
    1088:	04e0                	addi	s0,sp,588
    108a:	0000                	unimp
    108c:	0001                	nop
    108e:	0062                	c.slli	zero,0x18
    1090:	0000                	unimp
    1092:	0000                	unimp
    1094:	0000                	unimp
    1096:	d000                	sw	s0,32(s0)
    1098:	0004                	0x4
    109a:	d400                	sw	s0,40(s0)
    109c:	0004                	0x4
    109e:	0100                	addi	s0,sp,128
    10a0:	5a00                	lw	s0,48(a2)
    10a2:	04d4                	addi	a3,sp,580
    10a4:	0000                	unimp
    10a6:	04e8                	addi	a0,sp,588
    10a8:	0000                	unimp
    10aa:	0001                	nop
    10ac:	f864                	fsw	fs1,116(s0)
    10ae:	0004                	0x4
    10b0:	0400                	addi	s0,sp,512
    10b2:	0005                	c.nop	1
    10b4:	0100                	addi	s0,sp,128
    10b6:	5800                	lw	s0,48(s0)
    10b8:	0504                	addi	s1,sp,640
    10ba:	0000                	unimp
    10bc:	0508                	addi	a0,sp,640
    10be:	0000                	unimp
    10c0:	000a                	c.slli	zero,0x2
    10c2:	0085                	addi	ra,ra,1
    10c4:	2440                	fld	fs0,136(s0)
    10c6:	2540                	fld	fs0,136(a0)
    10c8:	0084                	addi	s1,sp,64
    10ca:	9f21                	0x9f21
    10cc:	0508                	addi	a0,sp,640
    10ce:	0000                	unimp
    10d0:	05cc                	addi	a1,sp,708
    10d2:	0000                	unimp
    10d4:	0001                	nop
    10d6:	0058                	addi	a4,sp,4
    10d8:	0000                	unimp
    10da:	0000                	unimp
    10dc:	0000                	unimp
    10de:	8c00                	0x8c00
    10e0:	0004                	0x4
    10e2:	c400                	sw	s0,8(s0)
    10e4:	0004                	0x4
    10e6:	0100                	addi	s0,sp,128
    10e8:	5a00                	lw	s0,48(a2)
    10ea:	04f4                	addi	a3,sp,588
    10ec:	0000                	unimp
    10ee:	0540                	addi	s0,sp,644
    10f0:	0000                	unimp
    10f2:	0001                	nop
    10f4:	005a                	c.slli	zero,0x16
    10f6:	0000                	unimp
    10f8:	0000                	unimp
    10fa:	0000                	unimp
    10fc:	4c00                	lw	s0,24(s0)
    10fe:	0005                	c.nop	1
    1100:	5400                	lw	s0,40(s0)
    1102:	0005                	c.nop	1
    1104:	0100                	addi	s0,sp,128
    1106:	5a00                	lw	s0,48(a2)
    1108:	0554                	addi	a3,sp,644
    110a:	0000                	unimp
    110c:	05b4                	addi	a3,sp,712
    110e:	0000                	unimp
    1110:	0001                	nop
    1112:	0060                	addi	s0,sp,12
    1114:	0000                	unimp
    1116:	0000                	unimp
    1118:	0000                	unimp
    111a:	5c00                	lw	s0,56(s0)
    111c:	0005                	c.nop	1
    111e:	6400                	flw	fs0,8(s0)
    1120:	0005                	c.nop	1
    1122:	0100                	addi	s0,sp,128
    1124:	5a00                	lw	s0,48(a2)
    1126:	0564                	addi	s1,sp,652
    1128:	0000                	unimp
    112a:	0580                	addi	s0,sp,704
    112c:	0000                	unimp
    112e:	0001                	nop
    1130:	8861                	andi	s0,s0,24
    1132:	0005                	c.nop	1
    1134:	ac00                	fsd	fs0,24(s0)
    1136:	0005                	c.nop	1
    1138:	0100                	addi	s0,sp,128
    113a:	5e00                	lw	s0,56(a2)
    113c:	05ac                	addi	a1,sp,712
    113e:	0000                	unimp
    1140:	05b4                	addi	a3,sp,712
    1142:	0000                	unimp
    1144:	0008                	0x8
    1146:	0080                	addi	s0,sp,64
    1148:	2540                	fld	fs0,136(a0)
    114a:	0081                	addi	ra,ra,0
    114c:	9f22                	add	t5,t5,s0
	...
    1156:	056c                	addi	a1,sp,652
    1158:	0000                	unimp
    115a:	05cc                	addi	a1,sp,708
    115c:	0000                	unimp
    115e:	0001                	nop
    1160:	0056                	c.slli	zero,0x15
    1162:	0000                	unimp
    1164:	0000                	unimp
    1166:	0000                	unimp
    1168:	8800                	0x8800
    116a:	0005                	c.nop	1
    116c:	9000                	0x9000
    116e:	0005                	c.nop	1
    1170:	0100                	addi	s0,sp,128
    1172:	5a00                	lw	s0,48(a2)
    1174:	0590                	addi	a2,sp,704
    1176:	0000                	unimp
    1178:	0598                	addi	a4,sp,704
    117a:	0000                	unimp
    117c:	0001                	nop
    117e:	005d                	c.nop	23
    1180:	0000                	unimp
    1182:	0000                	unimp
    1184:	0000                	unimp
    1186:	3400                	fld	fs0,40(s0)
    1188:	0005                	c.nop	1
    118a:	5c00                	lw	s0,56(s0)
    118c:	0005                	c.nop	1
    118e:	0100                	addi	s0,sp,128
    1190:	6100                	flw	fs0,0(a0)
    1192:	055c                	addi	a5,sp,644
    1194:	0000                	unimp
    1196:	05a8                	addi	a0,sp,712
    1198:	0000                	unimp
    119a:	0006                	c.slli	zero,0x1
    119c:	7f8c                	flw	fa1,56(a5)
    119e:	007f                	0x7f
    11a0:	9f1a                	add	t5,t5,t1
    11a2:	05a8                	addi	a0,sp,712
    11a4:	0000                	unimp
    11a6:	05c4                	addi	s1,sp,708
    11a8:	0000                	unimp
    11aa:	0006                	c.slli	zero,0x1
    11ac:	007f                	0x7f
    11ae:	007a                	c.slli	zero,0x1e
    11b0:	9f1a                	add	t5,t5,t1
    11b2:	05c4                	addi	s1,sp,708
    11b4:	0000                	unimp
    11b6:	05c8                	addi	a0,sp,708
    11b8:	0000                	unimp
    11ba:	0006                	c.slli	zero,0x1
    11bc:	7f8c                	flw	fa1,56(a5)
    11be:	007f                	0x7f
    11c0:	9f1a                	add	t5,t5,t1
    11c2:	05c8                	addi	a0,sp,708
    11c4:	0000                	unimp
    11c6:	05cc                	addi	a1,sp,708
    11c8:	0000                	unimp
    11ca:	0006                	c.slli	zero,0x1
    11cc:	017f                	0x17f
    11ce:	7f8c                	flw	fa1,56(a5)
    11d0:	9f1a                	add	t5,t5,t1
	...
    11da:	0538                	addi	a4,sp,648
    11dc:	0000                	unimp
    11de:	056c                	addi	a1,sp,652
    11e0:	0000                	unimp
    11e2:	0001                	nop
    11e4:	0056                	c.slli	zero,0x15
    11e6:	0000                	unimp
    11e8:	0000                	unimp
    11ea:	0000                	unimp
    11ec:	3800                	fld	fs0,48(s0)
    11ee:	0005                	c.nop	1
    11f0:	cc00                	sw	s0,24(s0)
    11f2:	0005                	c.nop	1
    11f4:	0100                	addi	s0,sp,128
    11f6:	6d00                	flw	fs0,24(a0)
	...
    1200:	053c                	addi	a5,sp,648
    1202:	0000                	unimp
    1204:	05cc                	addi	a1,sp,708
    1206:	0000                	unimp
    1208:	0001                	nop
    120a:	0059                	c.nop	22
    120c:	0000                	unimp
    120e:	0000                	unimp
    1210:	0000                	unimp
    1212:	e400                	fsw	fs0,8(s0)
    1214:	0002                	c.slli64	zero
    1216:	e800                	fsw	fs0,16(s0)
    1218:	0002                	c.slli64	zero
    121a:	0900                	addi	s0,sp,144
    121c:	8200                	0x8200
    121e:	7e00                	flw	fs0,56(a2)
    1220:	0800                	addi	s0,sp,16
    1222:	1aff                	0x1aff
    1224:	9f24                	0x9f24
    1226:	02e8                	addi	a0,sp,332
    1228:	0000                	unimp
    122a:	03d0                	addi	a2,sp,452
    122c:	0000                	unimp
    122e:	0001                	nop
    1230:	0062                	c.slli	zero,0x18
    1232:	0000                	unimp
    1234:	0000                	unimp
    1236:	0000                	unimp
    1238:	a800                	fsd	fs0,16(s0)
    123a:	0001                	nop
    123c:	cc00                	sw	s0,24(s0)
    123e:	0001                	nop
    1240:	0100                	addi	s0,sp,128
    1242:	6300                	flw	fs0,0(a4)
    1244:	02e4                	addi	s1,sp,332
    1246:	0000                	unimp
    1248:	02ec                	addi	a1,sp,332
    124a:	0000                	unimp
    124c:	0001                	nop
    124e:	00000063          	beqz	zero,124e <vprintfmt.constprop.0+0xda8>
    1252:	0000                	unimp
    1254:	0000                	unimp
    1256:	d000                	sw	s0,32(s0)
    1258:	0001                	nop
    125a:	9400                	0x9400
    125c:	0002                	c.slli64	zero
    125e:	0100                	addi	s0,sp,128
    1260:	6500                	flw	fs0,8(a0)
	...
    126a:	01f4                	addi	a3,sp,204
    126c:	0000                	unimp
    126e:	0294                	addi	a3,sp,320
    1270:	0000                	unimp
    1272:	0001                	nop
    1274:	0066                	c.slli	zero,0x19
    1276:	0000                	unimp
    1278:	0000                	unimp
    127a:	0000                	unimp
    127c:	f800                	fsw	fs0,48(s0)
    127e:	0001                	nop
    1280:	2000                	fld	fs0,0(s0)
    1282:	0002                	c.slli64	zero
    1284:	0100                	addi	s0,sp,128
    1286:	5800                	lw	s0,48(s0)
    1288:	0220                	addi	s0,sp,264
    128a:	0000                	unimp
    128c:	0294                	addi	a3,sp,320
    128e:	0000                	unimp
    1290:	0001                	nop
    1292:	00000067          	jr	zero # 0 <buf.1>
    1296:	0000                	unimp
    1298:	0000                	unimp
    129a:	5800                	lw	s0,48(s0)
    129c:	0002                	c.slli64	zero
    129e:	8000                	0x8000
    12a0:	0002                	c.slli64	zero
    12a2:	0100                	addi	s0,sp,128
    12a4:	5800                	lw	s0,48(s0)
    12a6:	0280                	addi	s0,sp,320
    12a8:	0000                	unimp
    12aa:	0294                	addi	a3,sp,320
    12ac:	0000                	unimp
    12ae:	0001                	nop
    12b0:	005c                	addi	a5,sp,4
    12b2:	0000                	unimp
    12b4:	0000                	unimp
    12b6:	0000                	unimp
    12b8:	f400                	fsw	fs0,40(s0)
    12ba:	0001                	nop
    12bc:	0800                	addi	s0,sp,16
    12be:	0002                	c.slli64	zero
    12c0:	0100                	addi	s0,sp,128
    12c2:	5900                	lw	s0,48(a0)
    12c4:	0210                	addi	a2,sp,256
    12c6:	0000                	unimp
    12c8:	021c                	addi	a5,sp,256
    12ca:	0000                	unimp
    12cc:	0001                	nop
    12ce:	1c5e                	slli	s8,s8,0x37
    12d0:	0002                	c.slli64	zero
    12d2:	2000                	fld	fs0,0(s0)
    12d4:	0002                	c.slli64	zero
    12d6:	0800                	addi	s0,sp,16
    12d8:	8400                	0x8400
    12da:	4000                	lw	s0,0(s0)
    12dc:	7925                	lui	s2,0xfffe9
    12de:	2100                	fld	fs0,0(a0)
    12e0:	209f 0002 3400      	0x34000002209f
    12e6:	0002                	c.slli64	zero
    12e8:	0100                	addi	s0,sp,128
    12ea:	5e00                	lw	s0,56(a2)
    12ec:	0234                	addi	a3,sp,264
    12ee:	0000                	unimp
    12f0:	0258                	addi	a4,sp,260
    12f2:	0000                	unimp
    12f4:	0001                	nop
    12f6:	0058                	addi	a4,sp,4
    12f8:	0000                	unimp
    12fa:	0000                	unimp
    12fc:	0000                	unimp
    12fe:	4400                	lw	s0,8(s0)
    1300:	0002                	c.slli64	zero
    1302:	6000                	flw	fs0,0(s0)
    1304:	0002                	c.slli64	zero
    1306:	0100                	addi	s0,sp,128
    1308:	5900                	lw	s0,48(a0)
    130a:	0270                	addi	a2,sp,268
    130c:	0000                	unimp
    130e:	027c                	addi	a5,sp,268
    1310:	0000                	unimp
    1312:	0001                	nop
    1314:	0064                	addi	s1,sp,12
    1316:	0000                	unimp
    1318:	0000                	unimp
    131a:	0000                	unimp
    131c:	0400                	addi	s0,sp,512
    131e:	0002                	c.slli64	zero
    1320:	3c00                	fld	fs0,56(s0)
    1322:	0002                	c.slli64	zero
    1324:	0100                	addi	s0,sp,128
    1326:	5a00                	lw	s0,48(a2)
    1328:	026c                	addi	a1,sp,268
    132a:	0000                	unimp
    132c:	0294                	addi	a3,sp,320
    132e:	0000                	unimp
    1330:	0001                	nop
    1332:	005a                	c.slli	zero,0x16
    1334:	0000                	unimp
    1336:	0000                	unimp
    1338:	0000                	unimp
    133a:	0800                	addi	s0,sp,16
    133c:	84000003          	lb	zero,-1984(zero) # fffff840 <__C_STACK_TOP__+0xfffef840>
    1340:	01000003          	lb	zero,16(zero) # 10 <buf.1+0x10>
    1344:	5800                	lw	s0,48(s0)
    1346:	0384                	addi	s1,sp,448
    1348:	0000                	unimp
    134a:	03d0                	addi	a2,sp,452
    134c:	0000                	unimp
    134e:	0005                	c.nop	1
    1350:	0082                	c.slli64	ra
    1352:	2540                	fld	fs0,136(a0)
    1354:	009f 0000 0000      	0x9f
    135a:	0000                	unimp
    135c:	2400                	fld	fs0,8(s0)
    135e:	d0000003          	lb	zero,-768(zero) # fffffd00 <__C_STACK_TOP__+0xfffefd00>
    1362:	01000003          	lb	zero,16(zero) # 10 <buf.1+0x10>
    1366:	6700                	flw	fs0,8(a4)
	...
    1370:	0328                	addi	a0,sp,392
    1372:	0000                	unimp
    1374:	0330                	addi	a2,sp,392
    1376:	0000                	unimp
    1378:	0001                	nop
    137a:	305a                	fld	ft0,432(sp)
    137c:	33000003          	lb	zero,816(zero) # 330 <trap_entry+0x54>
    1380:	01000003          	lb	zero,16(zero) # 10 <buf.1+0x10>
    1384:	5b00                	lw	s0,48(a4)
    1386:	00000333          	add	t1,zero,zero
    138a:	0350                	addi	a2,sp,388
    138c:	0000                	unimp
    138e:	0001                	nop
    1390:	5065                	c.li	zero,-7
    1392:	c4000003          	lb	zero,-960(zero) # fffffc40 <__C_STACK_TOP__+0xfffefc40>
    1396:	01000003          	lb	zero,16(zero) # 10 <buf.1+0x10>
    139a:	6300                	flw	fs0,0(a4)
	...
    13a4:	0388                	addi	a0,sp,448
    13a6:	0000                	unimp
    13a8:	0394                	addi	a3,sp,448
    13aa:	0000                	unimp
    13ac:	0001                	nop
    13ae:	945a                	add	s0,s0,s6
    13b0:	9b000003          	lb	zero,-1616(zero) # fffff9b0 <__C_STACK_TOP__+0xfffef9b0>
    13b4:	01000003          	lb	zero,16(zero) # 10 <buf.1+0x10>
    13b8:	5b00                	lw	s0,48(a4)
    13ba:	0000039b          	0x39b
    13be:	03b0                	addi	a2,sp,456
    13c0:	0000                	unimp
    13c2:	0001                	nop
    13c4:	b065                	j	c6c <vprintfmt.constprop.0+0x7c6>
    13c6:	d0000003          	lb	zero,-768(zero) # fffffd00 <__C_STACK_TOP__+0xfffefd00>
    13ca:	01000003          	lb	zero,16(zero) # 10 <buf.1+0x10>
    13ce:	5f00                	lw	s0,56(a4)
	...
    13d8:	0324                	addi	s1,sp,392
    13da:	0000                	unimp
    13dc:	0338                	addi	a4,sp,392
    13de:	0000                	unimp
    13e0:	0001                	nop
    13e2:	4059                	c.li	zero,22
    13e4:	4c000003          	lb	zero,1216(zero) # 4c0 <vprintfmt.constprop.0+0x1a>
    13e8:	01000003          	lb	zero,16(zero) # 10 <buf.1+0x10>
    13ec:	5f00                	lw	s0,56(a4)
    13ee:	034c                	addi	a1,sp,388
    13f0:	0000                	unimp
    13f2:	0350                	addi	a2,sp,388
    13f4:	0000                	unimp
    13f6:	0008                	0x8
    13f8:	0086                	slli	ra,ra,0x1
    13fa:	2540                	fld	fs0,136(a0)
    13fc:	0079                	c.nop	30
    13fe:	9f21                	0x9f21
    1400:	0350                	addi	a2,sp,388
    1402:	0000                	unimp
    1404:	0364                	addi	s1,sp,396
    1406:	0000                	unimp
    1408:	0001                	nop
    140a:	645f 0003 8800      	0x88000003645f
    1410:	01000003          	lb	zero,16(zero) # 10 <buf.1+0x10>
    1414:	6500                	flw	fs0,8(a0)
	...
    141e:	0378                	addi	a4,sp,396
    1420:	0000                	unimp
    1422:	0390                	addi	a2,sp,448
    1424:	0000                	unimp
    1426:	0001                	nop
    1428:	a059                	j	14ae <putchar+0x64>
    142a:	ac000003          	lb	zero,-1344(zero) # fffffac0 <__C_STACK_TOP__+0xfffefac0>
    142e:	01000003          	lb	zero,16(zero) # 10 <buf.1+0x10>
    1432:	5800                	lw	s0,48(s0)
    1434:	03ac                	addi	a1,sp,456
    1436:	0000                	unimp
    1438:	03b0                	addi	a2,sp,456
    143a:	0000                	unimp
    143c:	000a                	c.slli	zero,0x2
    143e:	0086                	slli	ra,ra,0x1
    1440:	2440                	fld	fs0,136(s0)
    1442:	2540                	fld	fs0,136(a0)
    1444:	0079                	c.nop	30
    1446:	9f21                	0x9f21
    1448:	03b0                	addi	a2,sp,456
    144a:	0000                	unimp
    144c:	03d0                	addi	a2,sp,452
    144e:	0000                	unimp
    1450:	0001                	nop
    1452:	0058                	addi	a4,sp,4
    1454:	0000                	unimp
    1456:	0000                	unimp
    1458:	0000                	unimp
    145a:	3400                	fld	fs0,40(s0)
    145c:	6c000003          	lb	zero,1728(zero) # 6c0 <vprintfmt.constprop.0+0x21a>
    1460:	01000003          	lb	zero,16(zero) # 10 <buf.1+0x10>
    1464:	5a00                	lw	s0,48(a2)
    1466:	039c                	addi	a5,sp,448
    1468:	0000                	unimp
    146a:	03d0                	addi	a2,sp,452
    146c:	0000                	unimp
    146e:	0001                	nop
    1470:	005a                	c.slli	zero,0x16
    1472:	0000                	unimp
    1474:	0000                	unimp
    1476:	0000                	unimp
    1478:	d400                	sw	s0,40(s0)
    147a:	3c000003          	lb	zero,960(zero) # 3c0 <printf_putch+0x40>
    147e:	0004                	0x4
    1480:	0100                	addi	s0,sp,128
    1482:	5d00                	lw	s0,56(a0)
	...
    148c:	03e8                	addi	a0,sp,460
    148e:	0000                	unimp
    1490:	0404                	addi	s1,sp,512
    1492:	0000                	unimp
    1494:	0001                	nop
    1496:	005f 0000 0000      	0x5f
    149c:	0000                	unimp
    149e:	0000                	unimp
    14a0:	0000                	unimp
    14a2:	a000                	fsd	fs0,0(s0)
    14a4:	0000                	unimp
    14a6:	0600                	addi	s0,sp,768
    14a8:	5a00                	lw	s0,48(a2)
    14aa:	935b0493          	addi	s1,s6,-1739
    14ae:	a004                	fsd	fs1,0(s0)
    14b0:	0000                	unimp
    14b2:	8800                	0x8800
    14b4:	0001                	nop
    14b6:	0600                	addi	s0,sp,768
    14b8:	f300                	fsw	fs0,32(a4)
    14ba:	250af503          	0x250af503
    14be:	889f 0001 a800      	0xa8000001889f
    14c4:	0001                	nop
    14c6:	0600                	addi	s0,sp,768
    14c8:	5a00                	lw	s0,48(a2)
    14ca:	935b0493          	addi	s1,s6,-1739
    14ce:	a804                	fsd	fs1,16(s0)
    14d0:	0001                	nop
    14d2:	bc00                	fsd	fs0,56(s0)
    14d4:	0002                	c.slli64	zero
    14d6:	0600                	addi	s0,sp,768
    14d8:	f300                	fsw	fs0,32(a4)
    14da:	250af503          	0x250af503
    14de:	bc9f 0002 d000      	0xd0000002bc9f
    14e4:	0002                	c.slli64	zero
    14e6:	0600                	addi	s0,sp,768
    14e8:	5a00                	lw	s0,48(a2)
    14ea:	935b0493          	addi	s1,s6,-1739
    14ee:	d004                	sw	s1,32(s0)
    14f0:	0002                	c.slli64	zero
    14f2:	1c00                	addi	s0,sp,560
    14f4:	06000003          	lb	zero,96(zero) # 60 <buflen.0+0x20>
    14f8:	f300                	fsw	fs0,32(a4)
    14fa:	250af503          	0x250af503
    14fe:	1c9f 0003 2400      	0x240000031c9f
    1504:	06000003          	lb	zero,96(zero) # 60 <buflen.0+0x20>
    1508:	5a00                	lw	s0,48(a2)
    150a:	935b0493          	addi	s1,s6,-1739
    150e:	2404                	fld	fs1,8(s0)
    1510:	f0000003          	lb	zero,-256(zero) # ffffff00 <__C_STACK_TOP__+0xfffeff00>
    1514:	0004                	0x4
    1516:	0600                	addi	s0,sp,768
    1518:	f300                	fsw	fs0,32(a4)
    151a:	250af503          	0x250af503
    151e:	009f 0000 0000      	0x9f
    1524:	0000                	unimp
    1526:	0000                	unimp
    1528:	0000                	unimp
    152a:	a000                	fsd	fs0,0(s0)
    152c:	0000                	unimp
    152e:	0600                	addi	s0,sp,768
    1530:	5c00                	lw	s0,56(s0)
    1532:	935d0493          	addi	s1,s10,-1739
    1536:	a004                	fsd	fs1,0(s0)
    1538:	0000                	unimp
    153a:	8800                	0x8800
    153c:	0001                	nop
    153e:	0600                	addi	s0,sp,768
    1540:	f300                	fsw	fs0,32(a4)
    1542:	250cf503          	0x250cf503
    1546:	889f 0001 ab00      	0xab000001889f
    154c:	0001                	nop
    154e:	0600                	addi	s0,sp,768
    1550:	5c00                	lw	s0,56(s0)
    1552:	935d0493          	addi	s1,s10,-1739
    1556:	ab04                	fsd	fs1,16(a4)
    1558:	0001                	nop
    155a:	bc00                	fsd	fs0,56(s0)
    155c:	0002                	c.slli64	zero
    155e:	0600                	addi	s0,sp,768
    1560:	f300                	fsw	fs0,32(a4)
    1562:	250cf503          	0x250cf503
    1566:	bc9f 0002 5f00      	0x5f000002bc9f
    156c:	06000003          	lb	zero,96(zero) # 60 <buflen.0+0x20>
    1570:	5c00                	lw	s0,56(s0)
    1572:	935d0493          	addi	s1,s10,-1739
    1576:	5f04                	lw	s1,56(a4)
    1578:	f0000003          	lb	zero,-256(zero) # ffffff00 <__C_STACK_TOP__+0xfffeff00>
    157c:	0004                	0x4
    157e:	0600                	addi	s0,sp,768
    1580:	f300                	fsw	fs0,32(a4)
    1582:	250cf503          	0x250cf503
    1586:	009f 0000 0000      	0x9f
    158c:	0000                	unimp
    158e:	1800                	addi	s0,sp,48
    1590:	1c000003          	lb	zero,448(zero) # 1c0 <machine_trap_entry>
    1594:	06000003          	lb	zero,96(zero) # 60 <buflen.0+0x20>
    1598:	5800                	lw	s0,48(s0)
    159a:	93590493          	addi	s1,s2,-1739 # fffe8935 <__C_STACK_TOP__+0xfffd8935>
    159e:	ec04                	fsw	fs1,24(s0)
    15a0:	0004                	0x4
    15a2:	f000                	fsw	fs0,32(s0)
    15a4:	0004                	0x4
    15a6:	0600                	addi	s0,sp,768
    15a8:	5a00                	lw	s0,48(a2)
    15aa:	935b0493          	addi	s1,s6,-1739
    15ae:	0004                	0x4
    15b0:	0000                	unimp
    15b2:	0000                	unimp
    15b4:	0000                	unimp
    15b6:	3800                	fld	fs0,48(s0)
    15b8:	0000                	unimp
    15ba:	5000                	lw	s0,32(s0)
    15bc:	0001                	nop
    15be:	0600                	addi	s0,sp,768
    15c0:	f200                	fsw	fs0,32(a2)
    15c2:	1522                	slli	a0,a0,0x28
    15c4:	0000                	unimp
    15c6:	8800                	0x8800
    15c8:	0001                	nop
    15ca:	f000                	fsw	fs0,32(s0)
    15cc:	0004                	0x4
    15ce:	0600                	addi	s0,sp,768
    15d0:	f200                	fsw	fs0,32(a2)
    15d2:	1522                	slli	a0,a0,0x28
	...
    15dc:	0000                	unimp
    15de:	3800                	fld	fs0,48(s0)
    15e0:	0000                	unimp
    15e2:	a000                	fsd	fs0,0(s0)
    15e4:	0000                	unimp
    15e6:	0600                	addi	s0,sp,768
    15e8:	5c00                	lw	s0,56(s0)
    15ea:	935d0493          	addi	s1,s10,-1739
    15ee:	8804                	0x8804
    15f0:	0001                	nop
    15f2:	ab00                	fsd	fs0,16(a4)
    15f4:	0001                	nop
    15f6:	0600                	addi	s0,sp,768
    15f8:	5c00                	lw	s0,56(s0)
    15fa:	935d0493          	addi	s1,s10,-1739
    15fe:	ab04                	fsd	fs1,16(a4)
    1600:	0001                	nop
    1602:	b000                	fsd	fs0,32(s0)
    1604:	0001                	nop
    1606:	0600                	addi	s0,sp,768
    1608:	6400                	flw	fs0,8(s0)
    160a:	93630493          	addi	s1,t1,-1738
    160e:	bc04                	fsd	fs1,56(s0)
    1610:	0002                	c.slli64	zero
    1612:	3400                	fld	fs0,40(s0)
    1614:	06000003          	lb	zero,96(zero) # 60 <buflen.0+0x20>
    1618:	5c00                	lw	s0,56(s0)
    161a:	935d0493          	addi	s1,s10,-1739
    161e:	0004                	0x4
    1620:	0000                	unimp
    1622:	0000                	unimp
    1624:	0000                	unimp
    1626:	3800                	fld	fs0,48(s0)
    1628:	0000                	unimp
    162a:	9000                	0x9000
    162c:	0000                	unimp
    162e:	0600                	addi	s0,sp,768
    1630:	5a00                	lw	s0,48(a2)
    1632:	935b0493          	addi	s1,s6,-1739
    1636:	9004                	0x9004
    1638:	0000                	unimp
    163a:	9c00                	0x9c00
    163c:	0000                	unimp
    163e:	0600                	addi	s0,sp,768
    1640:	5a00                	lw	s0,48(a2)
    1642:	93590493          	addi	s1,s2,-1739
    1646:	9c04                	0x9c04
    1648:	0000                	unimp
    164a:	a000                	fsd	fs0,0(s0)
    164c:	0000                	unimp
    164e:	0600                	addi	s0,sp,768
    1650:	5a00                	lw	s0,48(a2)
    1652:	93660493          	addi	s1,a2,-1738
    1656:	8804                	0x8804
    1658:	0001                	nop
    165a:	d800                	sw	s0,48(s0)
    165c:	0001                	nop
    165e:	0600                	addi	s0,sp,768
    1660:	5800                	lw	s0,48(s0)
    1662:	93590493          	addi	s1,s2,-1739
    1666:	d804                	sw	s1,48(s0)
    1668:	0001                	nop
    166a:	fc00                	fsw	fs0,56(s0)
    166c:	0001                	nop
    166e:	0600                	addi	s0,sp,768
    1670:	5800                	lw	s0,48(s0)
    1672:	93660493          	addi	s1,a2,-1738
    1676:	a804                	fsd	fs1,16(s0)
    1678:	0002                	c.slli64	zero
    167a:	0400                	addi	s0,sp,512
    167c:	06000003          	lb	zero,96(zero) # 60 <buflen.0+0x20>
    1680:	5800                	lw	s0,48(s0)
    1682:	93590493          	addi	s1,s2,-1739
    1686:	0404                	addi	s1,sp,512
    1688:	10000003          	lb	zero,256(zero) # 100 <SIM_STOP+0x8>
    168c:	06000003          	lb	zero,96(zero) # 60 <buflen.0+0x20>
    1690:	6200                	flw	fs0,0(a2)
    1692:	93590493          	addi	s1,s2,-1739
    1696:	1004                	addi	s1,sp,32
    1698:	1c000003          	lb	zero,448(zero) # 1c0 <machine_trap_entry>
    169c:	06000003          	lb	zero,96(zero) # 60 <buflen.0+0x20>
    16a0:	6200                	flw	fs0,0(a2)
    16a2:	93660493          	addi	s1,a2,-1738
    16a6:	1c04                	addi	s1,sp,560
    16a8:	48000003          	lb	zero,1152(zero) # 480 <STACK_SIZE+0x80>
    16ac:	06000003          	lb	zero,96(zero) # 60 <buflen.0+0x20>
    16b0:	5800                	lw	s0,48(s0)
    16b2:	93590493          	addi	s1,s2,-1739
    16b6:	4804                	lw	s1,16(s0)
    16b8:	4c000003          	lb	zero,1216(zero) # 4c0 <vprintfmt.constprop.0+0x1a>
    16bc:	06000003          	lb	zero,96(zero) # 60 <buflen.0+0x20>
    16c0:	5800                	lw	s0,48(s0)
    16c2:	93660493          	addi	s1,a2,-1738
    16c6:	0004                	0x4
    16c8:	0000                	unimp
    16ca:	0000                	unimp
    16cc:	0000                	unimp
    16ce:	3800                	fld	fs0,48(s0)
    16d0:	0000                	unimp
    16d2:	9800                	0x9800
    16d4:	0000                	unimp
    16d6:	0100                	addi	s0,sp,128
    16d8:	5c00                	lw	s0,56(s0)
    16da:	0098                	addi	a4,sp,64
    16dc:	0000                	unimp
    16de:	0150                	addi	a2,sp,132
    16e0:	0000                	unimp
    16e2:	0001                	nop
    16e4:	8864                	0x8864
    16e6:	0001                	nop
    16e8:	ab00                	fsd	fs0,16(a4)
    16ea:	0001                	nop
    16ec:	0100                	addi	s0,sp,128
    16ee:	5c00                	lw	s0,56(s0)
    16f0:	000001ab          	0x1ab
    16f4:	02bc                	addi	a5,sp,328
    16f6:	0000                	unimp
    16f8:	0001                	nop
    16fa:	bc64                	fsd	fs1,248(s0)
    16fc:	0002                	c.slli64	zero
    16fe:	5c00                	lw	s0,56(s0)
    1700:	01000003          	lb	zero,16(zero) # 10 <buf.1+0x10>
    1704:	5c00                	lw	s0,56(s0)
    1706:	035c                	addi	a5,sp,388
    1708:	0000                	unimp
    170a:	04f0                	addi	a2,sp,588
    170c:	0000                	unimp
    170e:	0001                	nop
    1710:	0069                	c.nop	26
    1712:	0000                	unimp
    1714:	0000                	unimp
    1716:	0000                	unimp
    1718:	3800                	fld	fs0,48(s0)
    171a:	0000                	unimp
    171c:	a000                	fsd	fs0,0(s0)
    171e:	0000                	unimp
    1720:	0100                	addi	s0,sp,128
    1722:	5d00                	lw	s0,56(a0)
    1724:	0188                	addi	a0,sp,192
    1726:	0000                	unimp
    1728:	000001ab          	0x1ab
    172c:	0001                	nop
    172e:	ab5d                	j	1ce4 <__udivdi3+0x1c0>
    1730:	0001                	nop
    1732:	c400                	sw	s0,8(s0)
    1734:	0001                	nop
    1736:	0100                	addi	s0,sp,128
    1738:	6300                	flw	fs0,0(a4)
    173a:	02a8                	addi	a0,sp,328
    173c:	0000                	unimp
    173e:	02b0                	addi	a2,sp,328
    1740:	0000                	unimp
    1742:	0001                	nop
    1744:	0002bc63          	0x2bc63
    1748:	3400                	fld	fs0,40(s0)
    174a:	01000003          	lb	zero,16(zero) # 10 <buf.1+0x10>
    174e:	5d00                	lw	s0,56(a0)
    1750:	033c                	addi	a5,sp,392
    1752:	0000                	unimp
    1754:	04f0                	addi	a2,sp,588
    1756:	0000                	unimp
    1758:	0001                	nop
    175a:	0068                	addi	a0,sp,12
    175c:	0000                	unimp
    175e:	0000                	unimp
    1760:	0000                	unimp
    1762:	4000                	lw	s0,0(s0)
    1764:	0000                	unimp
    1766:	a000                	fsd	fs0,0(s0)
    1768:	0000                	unimp
    176a:	0100                	addi	s0,sp,128
    176c:	5a00                	lw	s0,48(a2)
    176e:	00a0                	addi	s0,sp,72
    1770:	0000                	unimp
    1772:	0118                	addi	a4,sp,128
    1774:	0000                	unimp
    1776:	0001                	nop
    1778:	4858                	lw	a4,20(s0)
    177a:	0001                	nop
    177c:	5000                	lw	s0,32(s0)
    177e:	0001                	nop
    1780:	0100                	addi	s0,sp,128
    1782:	5800                	lw	s0,48(s0)
    1784:	0188                	addi	a0,sp,192
    1786:	0000                	unimp
    1788:	0304                	addi	s1,sp,384
    178a:	0000                	unimp
    178c:	0001                	nop
    178e:	0458                	addi	a4,sp,516
    1790:	10000003          	lb	zero,256(zero) # 100 <SIM_STOP+0x8>
    1794:	01000003          	lb	zero,16(zero) # 10 <buf.1+0x10>
    1798:	6200                	flw	fs0,0(a2)
    179a:	0310                	addi	a2,sp,384
    179c:	0000                	unimp
    179e:	04d4                	addi	a3,sp,580
    17a0:	0000                	unimp
    17a2:	0001                	nop
    17a4:	dc58                	sw	a4,60(s0)
    17a6:	0004                	0x4
    17a8:	e400                	fsw	fs0,8(s0)
    17aa:	0004                	0x4
    17ac:	0100                	addi	s0,sp,128
    17ae:	5a00                	lw	s0,48(a2)
	...
    17b8:	0044                	addi	s1,sp,4
    17ba:	0000                	unimp
    17bc:	0090                	addi	a2,sp,64
    17be:	0000                	unimp
    17c0:	0001                	nop
    17c2:	0000905b          	0x905b
    17c6:	f800                	fsw	fs0,48(s0)
    17c8:	0000                	unimp
    17ca:	0100                	addi	s0,sp,128
    17cc:	5900                	lw	s0,48(a0)
    17ce:	0188                	addi	a0,sp,192
    17d0:	0000                	unimp
    17d2:	01d8                	addi	a4,sp,196
    17d4:	0000                	unimp
    17d6:	0001                	nop
    17d8:	d859                	beqz	s0,176e <__moddi3+0x192>
    17da:	0001                	nop
    17dc:	a400                	fsd	fs0,8(s0)
    17de:	0002                	c.slli64	zero
    17e0:	0100                	addi	s0,sp,128
    17e2:	6600                	flw	fs0,8(a2)
    17e4:	02a4                	addi	s1,sp,328
    17e6:	0000                	unimp
    17e8:	0348                	addi	a0,sp,388
    17ea:	0000                	unimp
    17ec:	0001                	nop
    17ee:	4859                	li	a6,22
    17f0:	4c000003          	lb	zero,1216(zero) # 4c0 <vprintfmt.constprop.0+0x1a>
    17f4:	01000003          	lb	zero,16(zero) # 10 <buf.1+0x10>
    17f8:	6600                	flw	fs0,8(a2)
    17fa:	035c                	addi	a5,sp,388
    17fc:	0000                	unimp
    17fe:	0434                	addi	a3,sp,520
    1800:	0000                	unimp
    1802:	0001                	nop
    1804:	3459                	jal	128a <vprintfmt.constprop.0+0xde4>
    1806:	0004                	0x4
    1808:	dc00                	sw	s0,56(s0)
    180a:	0004                	0x4
    180c:	0100                	addi	s0,sp,128
    180e:	5e00                	lw	s0,56(a2)
    1810:	04dc                	addi	a5,sp,580
    1812:	0000                	unimp
    1814:	04ec                	addi	a1,sp,588
    1816:	0000                	unimp
    1818:	0001                	nop
    181a:	0000005b          	0x5b
    181e:	0000                	unimp
    1820:	0000                	unimp
    1822:	ec00                	fsw	fs0,24(s0)
    1824:	0001                	nop
    1826:	5400                	lw	s0,40(s0)
    1828:	0002                	c.slli64	zero
    182a:	0100                	addi	s0,sp,128
    182c:	6500                	flw	fs0,8(a0)
    182e:	035c                	addi	a5,sp,388
    1830:	0000                	unimp
    1832:	035f 0000 0001      	0x10000035f
    1838:	5f5a                	lw	t5,180(sp)
    183a:	9c000003          	lb	zero,-1600(zero) # fffff9c0 <__C_STACK_TOP__+0xfffef9c0>
    183e:	01000003          	lb	zero,16(zero) # 10 <buf.1+0x10>
    1842:	6a00                	flw	fs0,16(a2)
	...
    184c:	0300                	addi	s0,sp,384
    184e:	0000                	unimp
    1850:	0310                	addi	a2,sp,384
    1852:	0000                	unimp
    1854:	0002                	c.slli64	zero
    1856:	9f31                	0x9f31
	...
    1860:	0310                	addi	a2,sp,384
    1862:	0000                	unimp
    1864:	031c                	addi	a5,sp,384
    1866:	0000                	unimp
    1868:	0002                	c.slli64	zero
    186a:	9f30                	0x9f30
    186c:	04cc                	addi	a1,sp,580
    186e:	0000                	unimp
    1870:	04f0                	addi	a2,sp,588
    1872:	0000                	unimp
    1874:	0002                	c.slli64	zero
    1876:	9f30                	0x9f30
	...
    1880:	01e4                	addi	s1,sp,204
    1882:	0000                	unimp
    1884:	01f4                	addi	a3,sp,204
    1886:	0000                	unimp
    1888:	0001                	nop
    188a:	305f 0003 f000      	0xf0000003305f
    1890:	0004                	0x4
    1892:	0100                	addi	s0,sp,128
    1894:	6500                	flw	fs0,8(a0)
	...
    189e:	0088                	addi	a0,sp,64
    18a0:	0000                	unimp
    18a2:	0150                	addi	a2,sp,132
    18a4:	0000                	unimp
    18a6:	0001                	nop
    18a8:	0001e063          	bltu	gp,zero,18a8 <__moddi3+0x2cc>
    18ac:	a800                	fsd	fs0,16(s0)
    18ae:	0002                	c.slli64	zero
    18b0:	0100                	addi	s0,sp,128
    18b2:	6300                	flw	fs0,0(a4)
    18b4:	02f4                	addi	a3,sp,332
    18b6:	0000                	unimp
    18b8:	031c                	addi	a5,sp,384
    18ba:	0000                	unimp
    18bc:	0001                	nop
    18be:	3064                	fld	fs1,224(s0)
    18c0:	f0000003          	lb	zero,-256(zero) # ffffff00 <__C_STACK_TOP__+0xfffeff00>
    18c4:	0004                	0x4
    18c6:	0100                	addi	s0,sp,128
    18c8:	6400                	flw	fs0,8(s0)
	...
    18d2:	005c                	addi	a5,sp,4
    18d4:	0000                	unimp
    18d6:	00a0                	addi	s0,sp,72
    18d8:	0000                	unimp
    18da:	0001                	nop
    18dc:	885c                	0x885c
    18de:	0001                	nop
    18e0:	9c00                	0x9c00
    18e2:	0001                	nop
    18e4:	0100                	addi	s0,sp,128
    18e6:	5c00                	lw	s0,56(s0)
	...
    18f0:	0070                	addi	a2,sp,12
    18f2:	0000                	unimp
    18f4:	0088                	addi	a0,sp,64
    18f6:	0000                	unimp
    18f8:	0001                	nop
    18fa:	00000063          	beqz	zero,18fa <__moddi3+0x31e>
    18fe:	0000                	unimp
    1900:	0000                	unimp
    1902:	a400                	fsd	fs0,8(s0)
    1904:	0000                	unimp
    1906:	5000                	lw	s0,32(s0)
    1908:	0001                	nop
    190a:	0100                	addi	s0,sp,128
    190c:	6500                	flw	fs0,8(a0)
	...
    1916:	00c8                	addi	a0,sp,68
    1918:	0000                	unimp
    191a:	0150                	addi	a2,sp,132
    191c:	0000                	unimp
    191e:	0001                	nop
    1920:	0066                	c.slli	zero,0x19
    1922:	0000                	unimp
    1924:	0000                	unimp
    1926:	0000                	unimp
    1928:	cc00                	sw	s0,24(s0)
    192a:	0000                	unimp
    192c:	d000                	sw	s0,32(s0)
    192e:	0000                	unimp
    1930:	0100                	addi	s0,sp,128
    1932:	5a00                	lw	s0,48(a2)
    1934:	00d0                	addi	a2,sp,68
    1936:	0000                	unimp
    1938:	000000d3          	fadd.s	ft1,ft0,ft0,rne
    193c:	0001                	nop
    193e:	0000005b          	0x5b
    1942:	0000                	unimp
    1944:	0000                	unimp
    1946:	1c00                	addi	s0,sp,560
    1948:	0001                	nop
    194a:	2400                	fld	fs0,8(s0)
    194c:	0001                	nop
    194e:	0100                	addi	s0,sp,128
    1950:	5a00                	lw	s0,48(a2)
    1952:	0124                	addi	s1,sp,136
    1954:	0000                	unimp
    1956:	0000012b          	0x12b
    195a:	0001                	nop
    195c:	0000005b          	0x5b
    1960:	0000                	unimp
    1962:	0000                	unimp
    1964:	c800                	sw	s0,16(s0)
    1966:	0000                	unimp
    1968:	d800                	sw	s0,48(s0)
    196a:	0000                	unimp
    196c:	0100                	addi	s0,sp,128
    196e:	6200                	flw	fs0,0(a2)
    1970:	00e0                	addi	s0,sp,76
    1972:	0000                	unimp
    1974:	00f8                	addi	a4,sp,76
    1976:	0000                	unimp
    1978:	0001                	nop
    197a:	f85f 0000 5000      	0x50000000f85f
    1980:	0001                	nop
    1982:	0100                	addi	s0,sp,128
    1984:	5900                	lw	s0,48(a0)
	...
    198e:	0108                	addi	a0,sp,128
    1990:	0000                	unimp
    1992:	0110                	addi	a2,sp,128
    1994:	0000                	unimp
    1996:	0001                	nop
    1998:	105a                	c.slli	zero,0x36
    199a:	0001                	nop
    199c:	2000                	fld	fs0,0(s0)
    199e:	0001                	nop
    19a0:	0100                	addi	s0,sp,128
    19a2:	6200                	flw	fs0,0(a2)
    19a4:	0130                	addi	a2,sp,136
    19a6:	0000                	unimp
    19a8:	0150                	addi	a2,sp,132
    19aa:	0000                	unimp
    19ac:	0001                	nop
    19ae:	0058                	addi	a4,sp,4
    19b0:	0000                	unimp
    19b2:	0000                	unimp
    19b4:	0000                	unimp
    19b6:	d400                	sw	s0,40(s0)
    19b8:	0000                	unimp
    19ba:	0000                	unimp
    19bc:	0001                	nop
    19be:	0100                	addi	s0,sp,128
    19c0:	5a00                	lw	s0,48(a2)
    19c2:	012c                	addi	a1,sp,136
    19c4:	0000                	unimp
    19c6:	014c                	addi	a1,sp,132
    19c8:	0000                	unimp
    19ca:	0001                	nop
    19cc:	005a                	c.slli	zero,0x16
    19ce:	0000                	unimp
    19d0:	0000                	unimp
    19d2:	0000                	unimp
    19d4:	b000                	fsd	fs0,32(s0)
    19d6:	0001                	nop
    19d8:	e800                	fsw	fs0,16(s0)
    19da:	0001                	nop
    19dc:	0100                	addi	s0,sp,128
    19de:	6400                	flw	fs0,8(s0)
    19e0:	02a8                	addi	a0,sp,328
    19e2:	0000                	unimp
    19e4:	02bc                	addi	a5,sp,328
    19e6:	0000                	unimp
    19e8:	0001                	nop
    19ea:	0064                	addi	s1,sp,12
    19ec:	0000                	unimp
    19ee:	0000                	unimp
    19f0:	0000                	unimp
    19f2:	c400                	sw	s0,8(s0)
    19f4:	0001                	nop
    19f6:	e000                	fsw	fs0,0(s0)
    19f8:	0001                	nop
    19fa:	0100                	addi	s0,sp,128
    19fc:	6300                	flw	fs0,0(a4)
	...
    1a06:	0210                	addi	a2,sp,256
    1a08:	0000                	unimp
    1a0a:	02a4                	addi	s1,sp,328
    1a0c:	0000                	unimp
    1a0e:	0001                	nop
    1a10:	a459                	j	1c96 <__udivdi3+0x172>
    1a12:	0002                	c.slli64	zero
    1a14:	a800                	fsd	fs0,16(s0)
    1a16:	0002                	c.slli64	zero
    1a18:	0500                	addi	s0,sp,640
    1a1a:	8400                	0x8400
    1a1c:	4000                	lw	s0,0(s0)
    1a1e:	9f25                	0x9f25
	...
    1a28:	0224                	addi	s1,sp,264
    1a2a:	0000                	unimp
    1a2c:	02a8                	addi	a0,sp,328
    1a2e:	0000                	unimp
    1a30:	0001                	nop
    1a32:	00000067          	jr	zero # 0 <buf.1>
    1a36:	0000                	unimp
    1a38:	0000                	unimp
    1a3a:	2800                	fld	fs0,16(s0)
    1a3c:	0002                	c.slli64	zero
    1a3e:	2c00                	fld	fs0,24(s0)
    1a40:	0002                	c.slli64	zero
    1a42:	0100                	addi	s0,sp,128
    1a44:	5a00                	lw	s0,48(a2)
    1a46:	022c                	addi	a1,sp,264
    1a48:	0000                	unimp
    1a4a:	0000022f          	0x22f
    1a4e:	0001                	nop
    1a50:	0000005b          	0x5b
    1a54:	0000                	unimp
    1a56:	0000                	unimp
    1a58:	7400                	flw	fs0,40(s0)
    1a5a:	0002                	c.slli64	zero
    1a5c:	7800                	flw	fs0,48(s0)
    1a5e:	0002                	c.slli64	zero
    1a60:	0100                	addi	s0,sp,128
    1a62:	5a00                	lw	s0,48(a2)
    1a64:	0278                	addi	a4,sp,268
    1a66:	0000                	unimp
    1a68:	0000027b          	0x27b
    1a6c:	0001                	nop
    1a6e:	0000005b          	0x5b
    1a72:	0000                	unimp
    1a74:	0000                	unimp
    1a76:	2400                	fld	fs0,8(s0)
    1a78:	0002                	c.slli64	zero
    1a7a:	3400                	fld	fs0,40(s0)
    1a7c:	0002                	c.slli64	zero
    1a7e:	0100                	addi	s0,sp,128
    1a80:	6200                	flw	fs0,0(a2)
    1a82:	023c                	addi	a5,sp,264
    1a84:	0000                	unimp
    1a86:	0254                	addi	a3,sp,260
    1a88:	0000                	unimp
    1a8a:	0001                	nop
    1a8c:	545f 0002 a800      	0xa8000002545f
    1a92:	0002                	c.slli64	zero
    1a94:	0100                	addi	s0,sp,128
    1a96:	6500                	flw	fs0,8(a0)
	...
    1aa0:	0264                	addi	s1,sp,268
    1aa2:	0000                	unimp
    1aa4:	026c                	addi	a1,sp,268
    1aa6:	0000                	unimp
    1aa8:	0001                	nop
    1aaa:	6c5a                	flw	fs8,148(sp)
    1aac:	0002                	c.slli64	zero
    1aae:	8400                	0x8400
    1ab0:	0002                	c.slli64	zero
    1ab2:	0100                	addi	s0,sp,128
    1ab4:	6200                	flw	fs0,0(a2)
    1ab6:	028c                	addi	a1,sp,320
    1ab8:	0000                	unimp
    1aba:	02a4                	addi	s1,sp,328
    1abc:	0000                	unimp
    1abe:	0001                	nop
    1ac0:	0002a45b          	0x2a45b
    1ac4:	a800                	fsd	fs0,16(s0)
    1ac6:	0002                	c.slli64	zero
    1ac8:	0100                	addi	s0,sp,128
    1aca:	5900                	lw	s0,48(a0)
	...
    1ad4:	0230                	addi	a2,sp,264
    1ad6:	0000                	unimp
    1ad8:	025c                	addi	a5,sp,260
    1ada:	0000                	unimp
    1adc:	0001                	nop
    1ade:	7c5a                	flw	fs8,180(sp)
    1ae0:	0002                	c.slli64	zero
    1ae2:	a800                	fsd	fs0,16(s0)
    1ae4:	0002                	c.slli64	zero
    1ae6:	0100                	addi	s0,sp,128
    1ae8:	5a00                	lw	s0,48(a2)
	...
    1af2:	02c0                	addi	s0,sp,324
    1af4:	0000                	unimp
    1af6:	0334                	addi	a3,sp,392
    1af8:	0000                	unimp
    1afa:	0001                	nop
    1afc:	005d                	c.nop	23
    1afe:	0000                	unimp
    1b00:	0000                	unimp
    1b02:	0000                	unimp
    1b04:	d400                	sw	s0,40(s0)
    1b06:	0002                	c.slli64	zero
    1b08:	0c00                	addi	s0,sp,528
    1b0a:	01000003          	lb	zero,16(zero) # 10 <buf.1+0x10>
    1b0e:	5a00                	lw	s0,48(a2)
    1b10:	0330                	addi	a2,sp,392
    1b12:	0000                	unimp
    1b14:	0354                	addi	a3,sp,388
    1b16:	0000                	unimp
    1b18:	0001                	nop
    1b1a:	005a                	c.slli	zero,0x16
    1b1c:	0000                	unimp
    1b1e:	0000                	unimp
    1b20:	0000                	unimp
    1b22:	0400                	addi	s0,sp,512
    1b24:	10000003          	lb	zero,256(zero) # 100 <SIM_STOP+0x8>
    1b28:	01000003          	lb	zero,16(zero) # 10 <buf.1+0x10>
    1b2c:	5800                	lw	s0,48(s0)
	...
    1b36:	0494                	addi	a3,sp,576
    1b38:	0000                	unimp
    1b3a:	04d8                	addi	a4,sp,580
    1b3c:	0000                	unimp
    1b3e:	0001                	nop
    1b40:	0000005b          	0x5b
    1b44:	0000                	unimp
    1b46:	0000                	unimp
    1b48:	ac00                	fsd	fs0,24(s0)
    1b4a:	0004                	0x4
    1b4c:	c800                	sw	s0,16(s0)
    1b4e:	0004                	0x4
    1b50:	0100                	addi	s0,sp,128
    1b52:	5a00                	lw	s0,48(a2)
    1b54:	04c8                	addi	a0,sp,580
    1b56:	0000                	unimp
    1b58:	04cc                	addi	a1,sp,580
    1b5a:	0000                	unimp
    1b5c:	0001                	nop
    1b5e:	cc5c                	sw	a5,28(s0)
    1b60:	0004                	0x4
    1b62:	d000                	sw	s0,32(s0)
    1b64:	0004                	0x4
    1b66:	0100                	addi	s0,sp,128
    1b68:	5a00                	lw	s0,48(a2)
	...
    1b72:	0384                	addi	s1,sp,448
    1b74:	0000                	unimp
    1b76:	0388                	addi	a0,sp,448
    1b78:	0000                	unimp
    1b7a:	0001                	nop
    1b7c:	885a                	mv	a6,s6
    1b7e:	8b000003          	lb	zero,-1872(zero) # fffff8b0 <__C_STACK_TOP__+0xfffef8b0>
    1b82:	01000003          	lb	zero,16(zero) # 10 <buf.1+0x10>
    1b86:	5b00                	lw	s0,48(a4)
    1b88:	0000038b          	0x38b
    1b8c:	03a8                	addi	a0,sp,456
    1b8e:	0000                	unimp
    1b90:	0001                	nop
    1b92:	a862                	fsd	fs8,16(sp)
    1b94:	20000003          	lb	zero,512(zero) # 200 <_start>
    1b98:	0004                	0x4
    1b9a:	0100                	addi	s0,sp,128
    1b9c:	6a00                	flw	fs0,16(a2)
	...
    1ba6:	03dc                	addi	a5,sp,452
    1ba8:	0000                	unimp
    1baa:	03e4                	addi	s1,sp,460
    1bac:	0000                	unimp
    1bae:	0001                	nop
    1bb0:	e45a                	fsw	fs6,8(sp)
    1bb2:	e7000003          	lb	zero,-400(zero) # fffffe70 <__C_STACK_TOP__+0xfffefe70>
    1bb6:	01000003          	lb	zero,16(zero) # 10 <buf.1+0x10>
    1bba:	5b00                	lw	s0,48(a4)
    1bbc:	000003e7          	jalr	t2,zero # 0 <buf.1>
    1bc0:	0408                	addi	a0,sp,512
    1bc2:	0000                	unimp
    1bc4:	0001                	nop
    1bc6:	0862                	slli	a6,a6,0x18
    1bc8:	0004                	0x4
    1bca:	2800                	fld	fs0,16(s0)
    1bcc:	0004                	0x4
    1bce:	0100                	addi	s0,sp,128
    1bd0:	5f00                	lw	s0,56(a4)
	...
    1bda:	0380                	addi	s0,sp,448
    1bdc:	0000                	unimp
    1bde:	0390                	addi	a2,sp,448
    1be0:	0000                	unimp
    1be2:	0001                	nop
    1be4:	00039863          	bnez	t2,1bf4 <__udivdi3+0xd0>
    1be8:	a400                	fsd	fs0,8(s0)
    1bea:	01000003          	lb	zero,16(zero) # 10 <buf.1+0x10>
    1bee:	5e00                	lw	s0,56(a2)
    1bf0:	03a4                	addi	s1,sp,456
    1bf2:	0000                	unimp
    1bf4:	03a8                	addi	a0,sp,456
    1bf6:	0000                	unimp
    1bf8:	0008                	0x8
    1bfa:	0079                	c.nop	30
    1bfc:	2540                	fld	fs0,136(a0)
    1bfe:	9f210083          	lb	ra,-1550(sp)
    1c02:	03a8                	addi	a0,sp,456
    1c04:	0000                	unimp
    1c06:	03bc                	addi	a5,sp,456
    1c08:	0000                	unimp
    1c0a:	0001                	nop
    1c0c:	bc5e                	fsd	fs7,56(sp)
    1c0e:	dc000003          	lb	zero,-576(zero) # fffffdc0 <__C_STACK_TOP__+0xfffefdc0>
    1c12:	01000003          	lb	zero,16(zero) # 10 <buf.1+0x10>
    1c16:	6200                	flw	fs0,0(a2)
	...
    1c20:	03cc                	addi	a1,sp,452
    1c22:	0000                	unimp
    1c24:	03d4                	addi	a3,sp,452
    1c26:	0000                	unimp
    1c28:	0001                	nop
    1c2a:	d45a                	sw	s6,40(sp)
    1c2c:	f0000003          	lb	zero,-256(zero) # ffffff00 <__C_STACK_TOP__+0xfffeff00>
    1c30:	01000003          	lb	zero,16(zero) # 10 <buf.1+0x10>
    1c34:	6300                	flw	fs0,0(a4)
    1c36:	03f8                	addi	a4,sp,460
    1c38:	0000                	unimp
    1c3a:	0404                	addi	s1,sp,512
    1c3c:	0000                	unimp
    1c3e:	0001                	nop
    1c40:	045e                	slli	s0,s0,0x17
    1c42:	0004                	0x4
    1c44:	0800                	addi	s0,sp,16
    1c46:	0004                	0x4
    1c48:	0a00                	addi	s0,sp,272
    1c4a:	7900                	flw	fs0,48(a0)
    1c4c:	4000                	lw	s0,0(s0)
    1c4e:	4024                	lw	s1,64(s0)
    1c50:	8325                	srli	a4,a4,0x9
    1c52:	2100                	fld	fs0,0(a0)
    1c54:	089f 0004 f000      	0xf0000004089f
    1c5a:	0004                	0x4
    1c5c:	0100                	addi	s0,sp,128
    1c5e:	5e00                	lw	s0,56(a2)
	...
    1c68:	038c                	addi	a1,sp,448
    1c6a:	0000                	unimp
    1c6c:	03c4                	addi	s1,sp,452
    1c6e:	0000                	unimp
    1c70:	0001                	nop
    1c72:	e85a                	fsw	fs6,16(sp)
    1c74:	40000003          	lb	zero,1024(zero) # 400 <STACK_SIZE>
    1c78:	0004                	0x4
    1c7a:	0100                	addi	s0,sp,128
    1c7c:	5a00                	lw	s0,48(a2)
	...
    1c86:	044c                	addi	a1,sp,516
    1c88:	0000                	unimp
    1c8a:	0454                	addi	a3,sp,516
    1c8c:	0000                	unimp
    1c8e:	0001                	nop
    1c90:	545a                	lw	s0,180(sp)
    1c92:	0004                	0x4
    1c94:	f000                	fsw	fs0,32(s0)
    1c96:	0004                	0x4
    1c98:	0100                	addi	s0,sp,128
    1c9a:	6000                	flw	fs0,0(s0)
	...
    1ca4:	045c                	addi	a5,sp,516
    1ca6:	0000                	unimp
    1ca8:	0464                	addi	s1,sp,524
    1caa:	0000                	unimp
    1cac:	0001                	nop
    1cae:	645a                	flw	fs0,148(sp)
    1cb0:	0004                	0x4
    1cb2:	7800                	flw	fs0,48(s0)
    1cb4:	0004                	0x4
    1cb6:	0100                	addi	s0,sp,128
    1cb8:	6100                	flw	fs0,0(a0)
    1cba:	0478                	addi	a4,sp,524
    1cbc:	0000                	unimp
    1cbe:	0480                	addi	s0,sp,576
    1cc0:	0000                	unimp
    1cc2:	0008                	0x8
    1cc4:	0080                	addi	s0,sp,64
    1cc6:	2540                	fld	fs0,136(a0)
    1cc8:	0081                	addi	ra,ra,0
    1cca:	9f22                	add	t5,t5,s0
    1ccc:	0484                	addi	s1,sp,576
    1cce:	0000                	unimp
    1cd0:	04a0                	addi	s0,sp,584
    1cd2:	0000                	unimp
    1cd4:	0001                	nop
    1cd6:	a05f 0004 f000      	0xf0000004a05f
    1cdc:	0004                	0x4
    1cde:	0800                	addi	s0,sp,16
    1ce0:	8000                	0x8000
    1ce2:	4000                	lw	s0,0(s0)
    1ce4:	8125                	srli	a0,a0,0x9
    1ce6:	2200                	fld	fs0,0(a2)
    1ce8:	009f 0000 0000      	0x9f
    1cee:	0000                	unimp
    1cf0:	7800                	flw	fs0,48(s0)
    1cf2:	0004                	0x4
    1cf4:	9800                	0x9800
    1cf6:	0004                	0x4
    1cf8:	0100                	addi	s0,sp,128
    1cfa:	5a00                	lw	s0,48(a2)
	...
    1d04:	0434                	addi	a3,sp,520
    1d06:	0000                	unimp
    1d08:	045c                	addi	a5,sp,516
    1d0a:	0000                	unimp
    1d0c:	0001                	nop
    1d0e:	0061                	c.nop	24
    1d10:	0000                	unimp
    1d12:	0000                	unimp
    1d14:	0000                	unimp
    1d16:	3800                	fld	fs0,48(s0)
    1d18:	0004                	0x4
    1d1a:	7c00                	flw	fs0,56(s0)
    1d1c:	0004                	0x4
    1d1e:	0100                	addi	s0,sp,128
    1d20:	5f00                	lw	s0,56(a4)
    1d22:	047c                	addi	a5,sp,524
    1d24:	0000                	unimp
    1d26:	049c                	addi	a5,sp,576
    1d28:	0000                	unimp
    1d2a:	0006                	c.slli	zero,0x1
    1d2c:	7f8d                	lui	t6,0xfffe3
    1d2e:	0089                	addi	ra,ra,2
    1d30:	9f1a                	add	t5,t5,t1
    1d32:	049c                	addi	a5,sp,576
    1d34:	0000                	unimp
    1d36:	04a8                	addi	a0,sp,584
    1d38:	0000                	unimp
    1d3a:	0006                	c.slli	zero,0x1
    1d3c:	0089                	addi	ra,ra,2
    1d3e:	007a                	c.slli	zero,0x1e
    1d40:	9f1a                	add	t5,t5,t1
    1d42:	04a8                	addi	a0,sp,584
    1d44:	0000                	unimp
    1d46:	04f0                	addi	a2,sp,588
    1d48:	0000                	unimp
    1d4a:	0006                	c.slli	zero,0x1
    1d4c:	7f8d                	lui	t6,0xfffe3
    1d4e:	0089                	addi	ra,ra,2
    1d50:	9f1a                	add	t5,t5,t1
	...
    1d5a:	04bc                	addi	a5,sp,584
    1d5c:	0000                	unimp
    1d5e:	04cc                	addi	a1,sp,580
    1d60:	0000                	unimp
    1d62:	0001                	nop
    1d64:	005c                	addi	a5,sp,4
    1d66:	0000                	unimp
    1d68:	0000                	unimp
    1d6a:	0000                	unimp
    1d6c:	d000                	sw	s0,32(s0)
    1d6e:	0004                	0x4
    1d70:	e400                	fsw	fs0,8(s0)
    1d72:	0004                	0x4
    1d74:	0100                	addi	s0,sp,128
    1d76:	5a00                	lw	s0,48(a2)
	...

Disassembly of section .debug_aranges:

00000000 <.debug_aranges>:
   0:	001c                	0x1c
   2:	0000                	unimp
   4:	0002                	c.slli64	zero
   6:	0000                	unimp
   8:	0000                	unimp
   a:	0004                	0x4
   c:	0000                	unimp
   e:	0000                	unimp
  10:	15dc                	addi	a5,sp,740
  12:	0000                	unimp
  14:	0548                	addi	a0,sp,644
	...
  1e:	0000                	unimp
  20:	001c                	0x1c
  22:	0000                	unimp
  24:	0002                	c.slli64	zero
  26:	09e5                	addi	s3,s3,25
  28:	0000                	unimp
  2a:	0004                	0x4
  2c:	0000                	unimp
  2e:	0000                	unimp
  30:	1b24                	addi	s1,sp,440
  32:	0000                	unimp
  34:	05d8                	addi	a4,sp,708
	...
  3e:	0000                	unimp
  40:	001c                	0x1c
  42:	0000                	unimp
  44:	0002                	c.slli64	zero
  46:	0000138b          	0x138b
  4a:	0004                	0x4
  4c:	0000                	unimp
  4e:	0000                	unimp
  50:	20fc                	fld	fa5,192(s1)
  52:	0000                	unimp
  54:	04f0                	addi	a2,sp,588
	...
  5e:	0000                	unimp
  60:	001c                	0x1c
  62:	0000                	unimp
  64:	0002                	c.slli64	zero
  66:	1d41                	addi	s10,s10,-16
  68:	0000                	unimp
  6a:	0004                	0x4
  6c:	0000                	unimp
  6e:	0000                	unimp
  70:	25ec                	fld	fa1,200(a1)
  72:	0000                	unimp
  74:	0024                	addi	s1,sp,8
	...
  7e:	0000                	unimp
  80:	001c                	0x1c
  82:	0000                	unimp
  84:	0002                	c.slli64	zero
  86:	00001d67          	0x1d67
  8a:	0004                	0x4
  8c:	0000                	unimp
  8e:	0000                	unimp
  90:	2610                	fld	fa2,8(a2)
  92:	0000                	unimp
  94:	00b4                	addi	a3,sp,72
	...
  9e:	0000                	unimp
  a0:	0014                	0x14
  a2:	0000                	unimp
  a4:	0002                	c.slli64	zero
  a6:	1d8d                	addi	s11,s11,-29
  a8:	0000                	unimp
  aa:	0004                	0x4
	...

Disassembly of section .debug_ranges:

00000000 <.debug_ranges>:
   0:	0070                	addi	a2,sp,12
   2:	0000                	unimp
   4:	0184                	addi	s1,sp,192
   6:	0000                	unimp
   8:	01d4                	addi	a3,sp,196
   a:	0000                	unimp
   c:	0548                	addi	a0,sp,644
	...
  16:	0000                	unimp
  18:	0090                	addi	a2,sp,64
  1a:	0000                	unimp
  1c:	00bc                	addi	a5,sp,72
  1e:	0000                	unimp
  20:	01d4                	addi	a3,sp,196
  22:	0000                	unimp
  24:	01e8                	addi	a0,sp,204
	...
  2e:	0000                	unimp
  30:	01fc                	addi	a5,sp,204
  32:	0000                	unimp
  34:	0220                	addi	s0,sp,264
  36:	0000                	unimp
  38:	0224                	addi	s1,sp,264
  3a:	0000                	unimp
  3c:	022c                	addi	a1,sp,264
  3e:	0000                	unimp
  40:	02f4                	addi	a3,sp,332
  42:	0000                	unimp
  44:	0308                	addi	a0,sp,384
	...
  4e:	0000                	unimp
  50:	0238                	addi	a4,sp,264
  52:	0000                	unimp
  54:	023c                	addi	a5,sp,264
  56:	0000                	unimp
  58:	0244                	addi	s1,sp,260
  5a:	0000                	unimp
  5c:	024c                	addi	a1,sp,260
  5e:	0000                	unimp
  60:	0250                	addi	a2,sp,260
  62:	0000                	unimp
  64:	025c                	addi	a5,sp,260
  66:	0000                	unimp
  68:	0260                	addi	s0,sp,268
  6a:	0000                	unimp
  6c:	02f4                	addi	a3,sp,332
	...
  76:	0000                	unimp
  78:	0318                	addi	a4,sp,384
  7a:	0000                	unimp
  7c:	034c                	addi	a1,sp,388
  7e:	0000                	unimp
  80:	0374                	addi	a3,sp,396
  82:	0000                	unimp
  84:	0388                	addi	a0,sp,448
	...
  8e:	0000                	unimp
  90:	0398                	addi	a4,sp,448
  92:	0000                	unimp
  94:	039c                	addi	a5,sp,448
  96:	0000                	unimp
  98:	03a0                	addi	s0,sp,456
  9a:	0000                	unimp
  9c:	03a4                	addi	s1,sp,456
  9e:	0000                	unimp
  a0:	03a8                	addi	a0,sp,456
  a2:	0000                	unimp
  a4:	03ac                	addi	a1,sp,456
  a6:	0000                	unimp
  a8:	03b4                	addi	a3,sp,456
  aa:	0000                	unimp
  ac:	03c4                	addi	s1,sp,452
  ae:	0000                	unimp
  b0:	03c8                	addi	a0,sp,452
  b2:	0000                	unimp
  b4:	0470                	addi	a2,sp,524
  b6:	0000                	unimp
  b8:	0474                	addi	a3,sp,524
  ba:	0000                	unimp
  bc:	047c                	addi	a5,sp,524
  be:	0000                	unimp
  c0:	0488                	addi	a0,sp,576
  c2:	0000                	unimp
  c4:	048c                	addi	a1,sp,576
	...
  ce:	0000                	unimp
  d0:	0470                	addi	a2,sp,524
  d2:	0000                	unimp
  d4:	0474                	addi	a3,sp,524
  d6:	0000                	unimp
  d8:	047c                	addi	a5,sp,524
  da:	0000                	unimp
  dc:	0488                	addi	a0,sp,576
  de:	0000                	unimp
  e0:	048c                	addi	a1,sp,576
  e2:	0000                	unimp
  e4:	0504                	addi	s1,sp,640
	...
  f6:	0000                	unimp
  f8:	0038                	addi	a4,sp,8
  fa:	0000                	unimp
  fc:	0294                	addi	a3,sp,320
  fe:	0000                	unimp
 100:	02d0                	addi	a2,sp,324
 102:	0000                	unimp
 104:	05c8                	addi	a0,sp,708
 106:	0000                	unimp
 108:	05cc                	addi	a1,sp,708
 10a:	0000                	unimp
 10c:	05d8                	addi	a4,sp,708
	...
 116:	0000                	unimp
 118:	0050                	addi	a2,sp,4
 11a:	0000                	unimp
 11c:	0058                	addi	a4,sp,4
 11e:	0000                	unimp
 120:	0058                	addi	a4,sp,4
 122:	0000                	unimp
 124:	0080                	addi	s0,sp,64
 126:	0000                	unimp
 128:	0168                	addi	a0,sp,140
 12a:	0000                	unimp
 12c:	0180                	addi	s0,sp,192
	...
 136:	0000                	unimp
 138:	0160                	addi	s0,sp,140
 13a:	0000                	unimp
 13c:	0168                	addi	a0,sp,140
 13e:	0000                	unimp
 140:	0434                	addi	a3,sp,520
 142:	0000                	unimp
 144:	05c8                	addi	a0,sp,708
	...
 14e:	0000                	unimp
 150:	0450                	addi	a2,sp,516
 152:	0000                	unimp
 154:	045c                	addi	a5,sp,516
 156:	0000                	unimp
 158:	0460                	addi	s0,sp,524
 15a:	0000                	unimp
 15c:	051c                	addi	a5,sp,640
 15e:	0000                	unimp
 160:	0520                	addi	s0,sp,648
 162:	0000                	unimp
 164:	0524                	addi	s1,sp,648
 166:	0000                	unimp
 168:	0530                	addi	a2,sp,648
 16a:	0000                	unimp
 16c:	0534                	addi	a3,sp,648
	...
 176:	0000                	unimp
 178:	051c                	addi	a5,sp,640
 17a:	0000                	unimp
 17c:	0520                	addi	s0,sp,648
 17e:	0000                	unimp
 180:	0524                	addi	s1,sp,648
 182:	0000                	unimp
 184:	0530                	addi	a2,sp,648
 186:	0000                	unimp
 188:	0534                	addi	a3,sp,648
 18a:	0000                	unimp
 18c:	0598                	addi	a4,sp,704
 18e:	0000                	unimp
 190:	05a0                	addi	s0,sp,712
 192:	0000                	unimp
 194:	05b4                	addi	a3,sp,712
 196:	0000                	unimp
 198:	05b8                	addi	a4,sp,712
 19a:	0000                	unimp
 19c:	05bc                	addi	a5,sp,712
	...
 1a6:	0000                	unimp
 1a8:	056c                	addi	a1,sp,652
 1aa:	0000                	unimp
 1ac:	0578                	addi	a4,sp,652
 1ae:	0000                	unimp
 1b0:	0584                	addi	s1,sp,704
 1b2:	0000                	unimp
 1b4:	0588                	addi	a0,sp,704
	...
 1be:	0000                	unimp
 1c0:	0194                	addi	a3,sp,192
 1c2:	0000                	unimp
 1c4:	01c0                	addi	s0,sp,196
 1c6:	0000                	unimp
 1c8:	02d0                	addi	a2,sp,324
 1ca:	0000                	unimp
 1cc:	02e4                	addi	s1,sp,332
	...
 1d6:	0000                	unimp
 1d8:	02f8                	addi	a4,sp,332
 1da:	0000                	unimp
 1dc:	0304                	addi	s1,sp,384
 1de:	0000                	unimp
 1e0:	0308                	addi	a0,sp,384
 1e2:	0000                	unimp
 1e4:	03d0                	addi	a2,sp,452
	...
 1ee:	0000                	unimp
 1f0:	03d4                	addi	a3,sp,452
 1f2:	0000                	unimp
 1f4:	0408                	addi	a0,sp,512
 1f6:	0000                	unimp
 1f8:	0420                	addi	s0,sp,520
 1fa:	0000                	unimp
 1fc:	0434                	addi	a3,sp,520
	...
 206:	0000                	unimp
 208:	0038                	addi	a4,sp,8
 20a:	0000                	unimp
 20c:	0038                	addi	a4,sp,8
 20e:	0000                	unimp
 210:	003c                	addi	a5,sp,8
 212:	0000                	unimp
 214:	0150                	addi	a2,sp,132
 216:	0000                	unimp
 218:	0188                	addi	a0,sp,192
 21a:	0000                	unimp
 21c:	04f0                	addi	a2,sp,588
	...
 226:	0000                	unimp
 228:	005c                	addi	a5,sp,4
 22a:	0000                	unimp
 22c:	0088                	addi	a0,sp,64
 22e:	0000                	unimp
 230:	0188                	addi	a0,sp,192
 232:	0000                	unimp
 234:	019c                	addi	a5,sp,192
	...
 23e:	0000                	unimp
 240:	01b0                	addi	a2,sp,200
 242:	0000                	unimp
 244:	01d4                	addi	a3,sp,196
 246:	0000                	unimp
 248:	01d8                	addi	a4,sp,196
 24a:	0000                	unimp
 24c:	01e0                	addi	s0,sp,204
 24e:	0000                	unimp
 250:	02a8                	addi	a0,sp,328
 252:	0000                	unimp
 254:	02bc                	addi	a5,sp,328
	...
 25e:	0000                	unimp
 260:	01f4                	addi	a3,sp,204
 262:	0000                	unimp
 264:	01f8                	addi	a4,sp,204
 266:	0000                	unimp
 268:	01fc                	addi	a5,sp,204
 26a:	0000                	unimp
 26c:	020c                	addi	a1,sp,256
 26e:	0000                	unimp
 270:	0210                	addi	a2,sp,256
 272:	0000                	unimp
 274:	02a8                	addi	a0,sp,328
	...
 27e:	0000                	unimp
 280:	02c0                	addi	s0,sp,324
 282:	0000                	unimp
 284:	02f4                	addi	a3,sp,332
 286:	0000                	unimp
 288:	031c                	addi	a5,sp,384
 28a:	0000                	unimp
 28c:	0330                	addi	a2,sp,392
	...
 296:	0000                	unimp
 298:	0348                	addi	a0,sp,388
 29a:	0000                	unimp
 29c:	034c                	addi	a1,sp,388
 29e:	0000                	unimp
 2a0:	0350                	addi	a2,sp,388
 2a2:	0000                	unimp
 2a4:	0358                	addi	a4,sp,388
 2a6:	0000                	unimp
 2a8:	035c                	addi	a5,sp,388
 2aa:	0000                	unimp
 2ac:	037c                	addi	a5,sp,396
 2ae:	0000                	unimp
 2b0:	0380                	addi	s0,sp,448
 2b2:	0000                	unimp
 2b4:	0418                	addi	a4,sp,512
 2b6:	0000                	unimp
 2b8:	041c                	addi	a5,sp,512
 2ba:	0000                	unimp
 2bc:	0424                	addi	s1,sp,520
 2be:	0000                	unimp
 2c0:	0430                	addi	a2,sp,520
 2c2:	0000                	unimp
 2c4:	0434                	addi	a3,sp,520
	...
 2ce:	0000                	unimp
 2d0:	0418                	addi	a4,sp,512
 2d2:	0000                	unimp
 2d4:	041c                	addi	a5,sp,512
 2d6:	0000                	unimp
 2d8:	0424                	addi	s1,sp,520
 2da:	0000                	unimp
 2dc:	0430                	addi	a2,sp,520
 2de:	0000                	unimp
 2e0:	0434                	addi	a3,sp,520
 2e2:	0000                	unimp
 2e4:	04ac                	addi	a1,sp,584
	...

Disassembly of section .debug_line:

00000000 <.debug_line>:
       0:	089e                	slli	a7,a7,0x7
       2:	0000                	unimp
       4:	004f0003          	lb	zero,4(t5) # 7739c <__C_STACK_TOP__+0x6739c>
       8:	0000                	unimp
       a:	0101                	addi	sp,sp,0
       c:	000d0efb          	0xd0efb
      10:	0101                	addi	sp,sp,0
      12:	0101                	addi	sp,sp,0
      14:	0000                	unimp
      16:	0100                	addi	s0,sp,128
      18:	0000                	unimp
      1a:	2e01                	jal	32a <trap_entry+0x4e>
      1c:	2f2e                	fld	ft10,200(sp)
      1e:	2e2e                	fld	ft8,200(sp)
      20:	2f2e2e2f          	0x2f2e2e2f
      24:	2e2e                	fld	ft8,200(sp)
      26:	2f2e2e2f          	0x2f2e2e2f
      2a:	2f2e                	fld	ft10,200(sp)
      2c:	6972                	flw	fs2,28(sp)
      2e:	2d766373          	csrrsi	t1,0x2d7,12
      32:	2f636367          	0x2f636367
      36:	696c                	flw	fa1,84(a0)
      38:	6762                	flw	fa4,24(sp)
      3a:	00006363          	bltu	zero,zero,40 <buflen.0>
      3e:	696c                	flw	fa1,84(a0)
      40:	6762                	flw	fa4,24(sp)
      42:	2e326363          	bltu	tp,gp,328 <trap_entry+0x4c>
      46:	00010063          	beqz	sp,46 <buflen.0+0x6>
      4a:	6c00                	flw	fs0,24(s0)
      4c:	6269                	lui	tp,0x1a
      4e:	32636367          	0x32636367
      52:	682e                	flw	fa6,200(sp)
      54:	0100                	addi	s0,sp,128
      56:	0000                	unimp
      58:	0500                	addi	s0,sp,640
      5a:	0001                	nop
      5c:	0205                	addi	tp,tp,1
      5e:	15dc                	addi	a5,sp,740
      60:	0000                	unimp
      62:	0109e703          	0x109e703
      66:	0306                	slli	t1,t1,0x1
      68:	0900                	addi	s0,sp,144
      6a:	0038                	addi	a4,sp,8
      6c:	0501                	addi	a0,a0,0
      6e:	01030603          	lb	a2,16(t1)
      72:	0809                	addi	a6,a6,2
      74:	0100                	addi	s0,sp,128
      76:	00090103          	lb	sp,0(s2)
      7a:	0100                	addi	s0,sp,128
      7c:	00090103          	lb	sp,0(s2)
      80:	0100                	addi	s0,sp,128
      82:	00090103          	lb	sp,0(s2)
      86:	0100                	addi	s0,sp,128
      88:	00090203          	lb	tp,0(s2)
      8c:	0100                	addi	s0,sp,128
      8e:	0605                	addi	a2,a2,1
      90:	0306                	slli	t1,t1,0x1
      92:	0900                	addi	s0,sp,144
      94:	0004                	0x4
      96:	0501                	addi	a0,a0,0
      98:	0605                	addi	a2,a2,1
      9a:	04090103          	lb	sp,64(s2)
      9e:	0100                	addi	s0,sp,128
      a0:	0d05                	addi	s10,s10,1
      a2:	0306                	slli	t1,t1,0x1
      a4:	0901                	addi	s2,s2,0
      a6:	0000                	unimp
      a8:	0501                	addi	a0,a0,0
      aa:	097f0307          	0x97f0307
      ae:	0010                	0x10
      b0:	0501                	addi	a0,a0,0
      b2:	02030603          	lb	a2,32(t1)
      b6:	0409                	addi	s0,s0,2
      b8:	0100                	addi	s0,sp,128
      ba:	0605                	addi	a2,a2,1
      bc:	0306                	slli	t1,t1,0x1
      be:	0900                	addi	s0,sp,144
      c0:	0000                	unimp
      c2:	0501                	addi	a0,a0,0
      c4:	0605                	addi	a2,a2,1
      c6:	04090103          	lb	sp,64(s2)
      ca:	0100                	addi	s0,sp,128
      cc:	0d05                	addi	s10,s10,1
      ce:	0306                	slli	t1,t1,0x1
      d0:	0900                	addi	s0,sp,144
      d2:	0000                	unimp
      d4:	0501                	addi	a0,a0,0
      d6:	02030603          	lb	a2,32(t1)
      da:	1009                	c.nop	-30
      dc:	0100                	addi	s0,sp,128
      de:	097e8503          	lb	a0,151(t4)
      e2:	0000                	unimp
      e4:	0301                	addi	t1,t1,0
      e6:	0901                	addi	s2,s2,0
      e8:	0000                	unimp
      ea:	0301                	addi	t1,t1,0
      ec:	0901                	addi	s2,s2,0
      ee:	0000                	unimp
      f0:	0301                	addi	t1,t1,0
      f2:	0901                	addi	s2,s2,0
      f4:	0000                	unimp
      f6:	0301                	addi	t1,t1,0
      f8:	0901                	addi	s2,s2,0
      fa:	0000                	unimp
      fc:	0301                	addi	t1,t1,0
      fe:	0901                	addi	s2,s2,0
     100:	0000                	unimp
     102:	0301                	addi	t1,t1,0
     104:	0902                	c.slli64	s2
     106:	0000                	unimp
     108:	0501                	addi	a0,a0,0
     10a:	0606                	slli	a2,a2,0x1
     10c:	00090003          	lb	zero,0(s2)
     110:	0100                	addi	s0,sp,128
     112:	0305                	addi	t1,t1,1
     114:	0306                	slli	t1,t1,0x1
     116:	0901                	addi	s2,s2,0
     118:	0004                	0x4
     11a:	0501                	addi	a0,a0,0
     11c:	0606                	slli	a2,a2,0x1
     11e:	00090003          	lb	zero,0(s2)
     122:	0100                	addi	s0,sp,128
     124:	0305                	addi	t1,t1,1
     126:	0306                	slli	t1,t1,0x1
     128:	0901                	addi	s2,s2,0
     12a:	0004                	0x4
     12c:	0501                	addi	a0,a0,0
     12e:	0606                	slli	a2,a2,0x1
     130:	00090003          	lb	zero,0(s2)
     134:	0100                	addi	s0,sp,128
     136:	0305                	addi	t1,t1,1
     138:	0306                	slli	t1,t1,0x1
     13a:	0901                	addi	s2,s2,0
     13c:	0004                	0x4
     13e:	0501                	addi	a0,a0,0
     140:	0606                	slli	a2,a2,0x1
     142:	00090003          	lb	zero,0(s2)
     146:	0100                	addi	s0,sp,128
     148:	0305                	addi	t1,t1,1
     14a:	0306                	slli	t1,t1,0x1
     14c:	0925                	addi	s2,s2,9
     14e:	0004                	0x4
     150:	0501                	addi	a0,a0,0
     152:	0606                	slli	a2,a2,0x1
     154:	00090003          	lb	zero,0(s2)
     158:	0100                	addi	s0,sp,128
     15a:	0705                	addi	a4,a4,1
     15c:	0306                	slli	t1,t1,0x1
     15e:	0902                	c.slli64	s2
     160:	0004                	0x4
     162:	0501                	addi	a0,a0,0
     164:	060a                	slli	a2,a2,0x2
     166:	08090003          	lb	zero,128(s2)
     16a:	0100                	addi	s0,sp,128
     16c:	0405                	addi	s0,s0,1
     16e:	0306                	slli	t1,t1,0x1
     170:	0904                	addi	s1,sp,144
     172:	0004                	0x4
     174:	0301                	addi	t1,t1,0
     176:	0900                	addi	s0,sp,144
     178:	0000                	unimp
     17a:	0301                	addi	t1,t1,0
     17c:	0900                	addi	s0,sp,144
     17e:	0000                	unimp
     180:	0301                	addi	t1,t1,0
     182:	0900                	addi	s0,sp,144
     184:	0000                	unimp
     186:	0301                	addi	t1,t1,0
     188:	0900                	addi	s0,sp,144
     18a:	0000                	unimp
     18c:	0301                	addi	t1,t1,0
     18e:	0900                	addi	s0,sp,144
     190:	0014                	0x14
     192:	0301                	addi	t1,t1,0
     194:	0900                	addi	s0,sp,144
     196:	0018                	0x18
     198:	0301                	addi	t1,t1,0
     19a:	0902                	c.slli64	s2
     19c:	0000                	unimp
     19e:	0501                	addi	a0,a0,0
     1a0:	00030607          	0x30607
     1a4:	0009                	c.nop	2
     1a6:	0100                	addi	s0,sp,128
     1a8:	0805                	addi	a6,a6,1
     1aa:	0306                	slli	t1,t1,0x1
     1ac:	0905                	addi	s2,s2,1
     1ae:	0004                	0x4
     1b0:	0501                	addi	a0,a0,0
     1b2:	0611                	addi	a2,a2,4
     1b4:	00090103          	lb	sp,0(s2)
     1b8:	0100                	addi	s0,sp,128
     1ba:	1e05                	addi	t3,t3,-31
     1bc:	04090003          	lb	zero,64(s2)
     1c0:	0100                	addi	s0,sp,128
     1c2:	0b05                	addi	s6,s6,1
     1c4:	04097f03          	0x4097f03
     1c8:	0100                	addi	s0,sp,128
     1ca:	0805                	addi	a6,a6,1
     1cc:	0306                	slli	t1,t1,0x1
     1ce:	0901                	addi	s2,s2,0
     1d0:	0004                	0x4
     1d2:	0501                	addi	a0,a0,0
     1d4:	0003060b          	0x3060b
     1d8:	0009                	c.nop	2
     1da:	0100                	addi	s0,sp,128
     1dc:	0805                	addi	a6,a6,1
     1de:	0306                	slli	t1,t1,0x1
     1e0:	0901                	addi	s2,s2,0
     1e2:	0004                	0x4
     1e4:	0501                	addi	a0,a0,0
     1e6:	0003060b          	0x3060b
     1ea:	0009                	c.nop	2
     1ec:	0100                	addi	s0,sp,128
     1ee:	0405                	addi	s0,s0,1
     1f0:	0306                	slli	t1,t1,0x1
     1f2:	00040903          	lb	s2,0(s0)
     1f6:	0301                	addi	t1,t1,0
     1f8:	0900                	addi	s0,sp,144
     1fa:	0000                	unimp
     1fc:	0301                	addi	t1,t1,0
     1fe:	0900                	addi	s0,sp,144
     200:	0000                	unimp
     202:	0301                	addi	t1,t1,0
     204:	0900                	addi	s0,sp,144
     206:	0000                	unimp
     208:	0501                	addi	a0,a0,0
     20a:	0308                	addi	a0,sp,384
     20c:	0925                	addi	s2,s2,9
     20e:	0000                	unimp
     210:	0501                	addi	a0,a0,0
     212:	0304                	addi	s1,sp,384
     214:	0905                	addi	s2,s2,1
     216:	0000                	unimp
     218:	0301                	addi	t1,t1,0
     21a:	0900                	addi	s0,sp,144
     21c:	0000                	unimp
     21e:	0301                	addi	t1,t1,0
     220:	0900                	addi	s0,sp,144
     222:	0000                	unimp
     224:	0301                	addi	t1,t1,0
     226:	0900                	addi	s0,sp,144
     228:	0000                	unimp
     22a:	0301                	addi	t1,t1,0
     22c:	0900                	addi	s0,sp,144
     22e:	0004                	0x4
     230:	0301                	addi	t1,t1,0
     232:	0900                	addi	s0,sp,144
     234:	0024                	addi	s1,sp,8
     236:	0301                	addi	t1,t1,0
     238:	0900                	addi	s0,sp,144
     23a:	0000                	unimp
     23c:	0301                	addi	t1,t1,0
     23e:	0900                	addi	s0,sp,144
     240:	0004                	0x4
     242:	0301                	addi	t1,t1,0
     244:	0900                	addi	s0,sp,144
     246:	0008                	0x8
     248:	0301                	addi	t1,t1,0
     24a:	0900                	addi	s0,sp,144
     24c:	000c                	0xc
     24e:	0301                	addi	t1,t1,0
     250:	0900                	addi	s0,sp,144
     252:	0004                	0x4
     254:	0301                	addi	t1,t1,0
     256:	0900                	addi	s0,sp,144
     258:	0004                	0x4
     25a:	0301                	addi	t1,t1,0
     25c:	0900                	addi	s0,sp,144
     25e:	0004                	0x4
     260:	0301                	addi	t1,t1,0
     262:	0900                	addi	s0,sp,144
     264:	0004                	0x4
     266:	0301                	addi	t1,t1,0
     268:	0900                	addi	s0,sp,144
     26a:	0004                	0x4
     26c:	0301                	addi	t1,t1,0
     26e:	0900                	addi	s0,sp,144
     270:	0004                	0x4
     272:	0301                	addi	t1,t1,0
     274:	0900                	addi	s0,sp,144
     276:	0010                	0x10
     278:	0301                	addi	t1,t1,0
     27a:	0900                	addi	s0,sp,144
     27c:	0014                	0x14
     27e:	0301                	addi	t1,t1,0
     280:	0900                	addi	s0,sp,144
     282:	0010                	0x10
     284:	0301                	addi	t1,t1,0
     286:	0900                	addi	s0,sp,144
     288:	0004                	0x4
     28a:	0301                	addi	t1,t1,0
     28c:	0900                	addi	s0,sp,144
     28e:	0004                	0x4
     290:	0301                	addi	t1,t1,0
     292:	0900                	addi	s0,sp,144
     294:	0004                	0x4
     296:	0301                	addi	t1,t1,0
     298:	0900                	addi	s0,sp,144
     29a:	0004                	0x4
     29c:	0301                	addi	t1,t1,0
     29e:	0900                	addi	s0,sp,144
     2a0:	0004                	0x4
     2a2:	0301                	addi	t1,t1,0
     2a4:	0900                	addi	s0,sp,144
     2a6:	0004                	0x4
     2a8:	0301                	addi	t1,t1,0
     2aa:	0900                	addi	s0,sp,144
     2ac:	0004                	0x4
     2ae:	0301                	addi	t1,t1,0
     2b0:	0900                	addi	s0,sp,144
     2b2:	0000                	unimp
     2b4:	0301                	addi	t1,t1,0
     2b6:	0900                	addi	s0,sp,144
     2b8:	0000                	unimp
     2ba:	0501                	addi	a0,a0,0
     2bc:	09050307          	0x9050307
     2c0:	0000                	unimp
     2c2:	0501                	addi	a0,a0,0
     2c4:	0304                	addi	s1,sp,384
     2c6:	0902                	c.slli64	s2
     2c8:	0000                	unimp
     2ca:	0501                	addi	a0,a0,0
     2cc:	0612                	slli	a2,a2,0x4
     2ce:	00090003          	lb	zero,0(s2)
     2d2:	0100                	addi	s0,sp,128
     2d4:	0405                	addi	s0,s0,1
     2d6:	0306                	slli	t1,t1,0x1
     2d8:	0901                	addi	s2,s2,0
     2da:	0004                	0x4
     2dc:	0301                	addi	t1,t1,0
     2de:	0901                	addi	s2,s2,0
     2e0:	0000                	unimp
     2e2:	0501                	addi	a0,a0,0
     2e4:	060c                	addi	a1,sp,768
     2e6:	00090003          	lb	zero,0(s2)
     2ea:	0100                	addi	s0,sp,128
     2ec:	0305                	addi	t1,t1,1
     2ee:	0306                	slli	t1,t1,0x1
     2f0:	00da                	slli	ra,ra,0x16
     2f2:	0409                	addi	s0,s0,2
     2f4:	0100                	addi	s0,sp,128
     2f6:	00090103          	lb	sp,0(s2)
     2fa:	0100                	addi	s0,sp,128
     2fc:	00092d03          	lw	s10,0(s2)
     300:	0100                	addi	s0,sp,128
     302:	0605                	addi	a2,a2,1
     304:	0306                	slli	t1,t1,0x1
     306:	0900                	addi	s0,sp,144
     308:	0000                	unimp
     30a:	0501                	addi	a0,a0,0
     30c:	0605                	addi	a2,a2,1
     30e:	04090103          	lb	sp,64(s2)
     312:	0100                	addi	s0,sp,128
     314:	0905                	addi	s2,s2,1
     316:	0306                	slli	t1,t1,0x1
     318:	0900                	addi	s0,sp,144
     31a:	0000                	unimp
     31c:	0501                	addi	a0,a0,0
     31e:	02030603          	lb	a2,32(t1)
     322:	1009                	c.nop	-30
     324:	0100                	addi	s0,sp,128
     326:	0105                	addi	sp,sp,1
     328:	0306                	slli	t1,t1,0x1
     32a:	0901                	addi	s2,s2,0
     32c:	0000                	unimp
     32e:	0501                	addi	a0,a0,0
     330:	0304                	addi	s1,sp,384
     332:	7eb5                	lui	t4,0xfffed
     334:	3c09                	jal	fffffd46 <__C_STACK_TOP__+0xfffefd46>
     336:	0100                	addi	s0,sp,128
     338:	0306                	slli	t1,t1,0x1
     33a:	0915                	addi	s2,s2,5
     33c:	0014                	0x14
     33e:	0501                	addi	a0,a0,0
     340:	00030607          	0x30607
     344:	0009                	c.nop	2
     346:	0100                	addi	s0,sp,128
     348:	0605                	addi	a2,a2,1
     34a:	0306                	slli	t1,t1,0x1
     34c:	0901                	addi	s2,s2,0
     34e:	0004                	0x4
     350:	0501                	addi	a0,a0,0
     352:	0609                	addi	a2,a2,2
     354:	00090003          	lb	zero,0(s2)
     358:	0100                	addi	s0,sp,128
     35a:	0405                	addi	s0,s0,1
     35c:	0306                	slli	t1,t1,0x1
     35e:	0902                	c.slli64	s2
     360:	0010                	0x10
     362:	0301                	addi	t1,t1,0
     364:	0900                	addi	s0,sp,144
     366:	0000                	unimp
     368:	0301                	addi	t1,t1,0
     36a:	0900                	addi	s0,sp,144
     36c:	0000                	unimp
     36e:	0301                	addi	t1,t1,0
     370:	0900                	addi	s0,sp,144
     372:	0000                	unimp
     374:	0301                	addi	t1,t1,0
     376:	0900                	addi	s0,sp,144
     378:	0000                	unimp
     37a:	0301                	addi	t1,t1,0
     37c:	0900                	addi	s0,sp,144
     37e:	0014                	0x14
     380:	0501                	addi	a0,a0,0
     382:	0b03060b          	0xb03060b
     386:	1009                	c.nop	-30
     388:	0100                	addi	s0,sp,128
     38a:	0405                	addi	s0,s0,1
     38c:	04097503          	0x4097503
     390:	0100                	addi	s0,sp,128
     392:	0306                	slli	t1,t1,0x1
     394:	0900                	addi	s0,sp,144
     396:	0008                	0x8
     398:	0301                	addi	t1,t1,0
     39a:	0902                	c.slli64	s2
     39c:	0000                	unimp
     39e:	0501                	addi	a0,a0,0
     3a0:	00030607          	0x30607
     3a4:	0009                	c.nop	2
     3a6:	0100                	addi	s0,sp,128
     3a8:	0805                	addi	a6,a6,1
     3aa:	0306                	slli	t1,t1,0x1
     3ac:	0910                	addi	a2,sp,144
     3ae:	0004                	0x4
     3b0:	0301                	addi	t1,t1,0
     3b2:	0902                	c.slli64	s2
     3b4:	0000                	unimp
     3b6:	0501                	addi	a0,a0,0
     3b8:	0003060b          	0x3060b
     3bc:	0009                	c.nop	2
     3be:	0100                	addi	s0,sp,128
     3c0:	0805                	addi	a6,a6,1
     3c2:	0306                	slli	t1,t1,0x1
     3c4:	0901                	addi	s2,s2,0
     3c6:	0004                	0x4
     3c8:	0501                	addi	a0,a0,0
     3ca:	0003060b          	0x3060b
     3ce:	0009                	c.nop	2
     3d0:	0100                	addi	s0,sp,128
     3d2:	0805                	addi	a6,a6,1
     3d4:	0306                	slli	t1,t1,0x1
     3d6:	0901                	addi	s2,s2,0
     3d8:	0004                	0x4
     3da:	0601                	addi	a2,a2,0
     3dc:	00090303          	lb	t1,0(s2)
     3e0:	0100                	addi	s0,sp,128
     3e2:	1e05                	addi	t3,t3,-31
     3e4:	04097d03          	0x4097d03
     3e8:	0100                	addi	s0,sp,128
     3ea:	1105                	addi	sp,sp,-31
     3ec:	04090003          	lb	zero,64(s2)
     3f0:	0100                	addi	s0,sp,128
     3f2:	0805                	addi	a6,a6,1
     3f4:	04090303          	lb	t1,64(s2)
     3f8:	0100                	addi	s0,sp,128
     3fa:	0b05                	addi	s6,s6,1
     3fc:	08097d03          	0x8097d03
     400:	0100                	addi	s0,sp,128
     402:	0805                	addi	a6,a6,1
     404:	0306                	slli	t1,t1,0x1
     406:	0901                	addi	s2,s2,0
     408:	0004                	0x4
     40a:	0601                	addi	a2,a2,0
     40c:	00090203          	lb	tp,0(s2)
     410:	0100                	addi	s0,sp,128
     412:	0b05                	addi	s6,s6,1
     414:	0c097e03          	0xc097e03
     418:	0100                	addi	s0,sp,128
     41a:	0805                	addi	a6,a6,1
     41c:	0306                	slli	t1,t1,0x1
     41e:	0902                	c.slli64	s2
     420:	0004                	0x4
     422:	0301                	addi	t1,t1,0
     424:	0900                	addi	s0,sp,144
     426:	0000                	unimp
     428:	0301                	addi	t1,t1,0
     42a:	0900                	addi	s0,sp,144
     42c:	0000                	unimp
     42e:	0301                	addi	t1,t1,0
     430:	0900                	addi	s0,sp,144
     432:	0000                	unimp
     434:	0301                	addi	t1,t1,0
     436:	0900                	addi	s0,sp,144
     438:	0000                	unimp
     43a:	0301                	addi	t1,t1,0
     43c:	0900                	addi	s0,sp,144
     43e:	0010                	0x10
     440:	0301                	addi	t1,t1,0
     442:	0900                	addi	s0,sp,144
     444:	0000                	unimp
     446:	0301                	addi	t1,t1,0
     448:	0900                	addi	s0,sp,144
     44a:	0004                	0x4
     44c:	0301                	addi	t1,t1,0
     44e:	0900                	addi	s0,sp,144
     450:	0008                	0x8
     452:	0301                	addi	t1,t1,0
     454:	0900                	addi	s0,sp,144
     456:	000c                	0xc
     458:	0301                	addi	t1,t1,0
     45a:	0900                	addi	s0,sp,144
     45c:	0004                	0x4
     45e:	0301                	addi	t1,t1,0
     460:	0900                	addi	s0,sp,144
     462:	0004                	0x4
     464:	0301                	addi	t1,t1,0
     466:	0900                	addi	s0,sp,144
     468:	0004                	0x4
     46a:	0301                	addi	t1,t1,0
     46c:	0900                	addi	s0,sp,144
     46e:	0004                	0x4
     470:	0301                	addi	t1,t1,0
     472:	0900                	addi	s0,sp,144
     474:	0004                	0x4
     476:	0301                	addi	t1,t1,0
     478:	0900                	addi	s0,sp,144
     47a:	0004                	0x4
     47c:	0301                	addi	t1,t1,0
     47e:	0900                	addi	s0,sp,144
     480:	0010                	0x10
     482:	0301                	addi	t1,t1,0
     484:	0900                	addi	s0,sp,144
     486:	0010                	0x10
     488:	0301                	addi	t1,t1,0
     48a:	0900                	addi	s0,sp,144
     48c:	0008                	0x8
     48e:	0301                	addi	t1,t1,0
     490:	0900                	addi	s0,sp,144
     492:	0010                	0x10
     494:	0301                	addi	t1,t1,0
     496:	0900                	addi	s0,sp,144
     498:	0004                	0x4
     49a:	0301                	addi	t1,t1,0
     49c:	0900                	addi	s0,sp,144
     49e:	0004                	0x4
     4a0:	0301                	addi	t1,t1,0
     4a2:	0900                	addi	s0,sp,144
     4a4:	0004                	0x4
     4a6:	0301                	addi	t1,t1,0
     4a8:	0900                	addi	s0,sp,144
     4aa:	0004                	0x4
     4ac:	0301                	addi	t1,t1,0
     4ae:	0900                	addi	s0,sp,144
     4b0:	0004                	0x4
     4b2:	0301                	addi	t1,t1,0
     4b4:	0900                	addi	s0,sp,144
     4b6:	0004                	0x4
     4b8:	0301                	addi	t1,t1,0
     4ba:	0900                	addi	s0,sp,144
     4bc:	0000                	unimp
     4be:	0501                	addi	a0,a0,0
     4c0:	0604                	addi	s1,sp,768
     4c2:	04096703          	0x4096703
     4c6:	0100                	addi	s0,sp,128
     4c8:	0705                	addi	a4,a4,1
     4ca:	0306                	slli	t1,t1,0x1
     4cc:	092e                	slli	s2,s2,0xb
     4ce:	0014                	0x14
     4d0:	0501                	addi	a0,a0,0
     4d2:	060a                	slli	a2,a2,0x2
     4d4:	00090003          	lb	zero,0(s2)
     4d8:	0100                	addi	s0,sp,128
     4da:	0405                	addi	s0,s0,1
     4dc:	0306                	slli	t1,t1,0x1
     4de:	0904                	addi	s1,sp,144
     4e0:	0004                	0x4
     4e2:	0301                	addi	t1,t1,0
     4e4:	0901                	addi	s2,s2,0
     4e6:	0000                	unimp
     4e8:	0301                	addi	t1,t1,0
     4ea:	00000903          	lb	s2,0(zero) # 0 <buf.1>
     4ee:	0501                	addi	a0,a0,0
     4f0:	0308                	addi	a0,sp,384
     4f2:	0902                	c.slli64	s2
     4f4:	0000                	unimp
     4f6:	0301                	addi	t1,t1,0
     4f8:	0901                	addi	s2,s2,0
     4fa:	0000                	unimp
     4fc:	0301                	addi	t1,t1,0
     4fe:	0901                	addi	s2,s2,0
     500:	0000                	unimp
     502:	0501                	addi	a0,a0,0
     504:	0610                	addi	a2,sp,768
     506:	00090003          	lb	zero,0(s2)
     50a:	0100                	addi	s0,sp,128
     50c:	0405                	addi	s0,s0,1
     50e:	0306                	slli	t1,t1,0x1
     510:	000c0907          	0xc0907
     514:	0301                	addi	t1,t1,0
     516:	0900                	addi	s0,sp,144
     518:	0000                	unimp
     51a:	0301                	addi	t1,t1,0
     51c:	0900                	addi	s0,sp,144
     51e:	0000                	unimp
     520:	0301                	addi	t1,t1,0
     522:	0900                	addi	s0,sp,144
     524:	0000                	unimp
     526:	0301                	addi	t1,t1,0
     528:	0900                	addi	s0,sp,144
     52a:	0000                	unimp
     52c:	0301                	addi	t1,t1,0
     52e:	0900                	addi	s0,sp,144
     530:	0014                	0x14
     532:	0301                	addi	t1,t1,0
     534:	0900                	addi	s0,sp,144
     536:	0020                	addi	s0,sp,8
     538:	0301                	addi	t1,t1,0
     53a:	0901                	addi	s2,s2,0
     53c:	0000                	unimp
     53e:	0501                	addi	a0,a0,0
     540:	00030607          	0x30607
     544:	0009                	c.nop	2
     546:	0100                	addi	s0,sp,128
     548:	0805                	addi	a6,a6,1
     54a:	0306                	slli	t1,t1,0x1
     54c:	090a                	slli	s2,s2,0x2
     54e:	0004                	0x4
     550:	0501                	addi	a0,a0,0
     552:	0003060b          	0x3060b
     556:	0009                	c.nop	2
     558:	0100                	addi	s0,sp,128
     55a:	1405                	addi	s0,s0,-31
     55c:	04090003          	lb	zero,64(s2)
     560:	0100                	addi	s0,sp,128
     562:	0505                	addi	a0,a0,1
     564:	0306                	slli	t1,t1,0x1
     566:	0902                	c.slli64	s2
     568:	0004                	0x4
     56a:	0301                	addi	t1,t1,0
     56c:	0901                	addi	s2,s2,0
     56e:	0000                	unimp
     570:	0301                	addi	t1,t1,0
     572:	0900                	addi	s0,sp,144
     574:	0000                	unimp
     576:	0301                	addi	t1,t1,0
     578:	0900                	addi	s0,sp,144
     57a:	0000                	unimp
     57c:	0301                	addi	t1,t1,0
     57e:	0900                	addi	s0,sp,144
     580:	0004                	0x4
     582:	0301                	addi	t1,t1,0
     584:	0900                	addi	s0,sp,144
     586:	000c                	0xc
     588:	0301                	addi	t1,t1,0
     58a:	0900                	addi	s0,sp,144
     58c:	0000                	unimp
     58e:	0501                	addi	a0,a0,0
     590:	0308                	addi	a0,sp,384
     592:	0905                	addi	s2,s2,1
     594:	0000                	unimp
     596:	0301                	addi	t1,t1,0
     598:	0902                	c.slli64	s2
     59a:	0000                	unimp
     59c:	0501                	addi	a0,a0,0
     59e:	0305                	addi	t1,t1,1
     5a0:	0902                	c.slli64	s2
     5a2:	0000                	unimp
     5a4:	0301                	addi	t1,t1,0
     5a6:	0901                	addi	s2,s2,0
     5a8:	0000                	unimp
     5aa:	0301                	addi	t1,t1,0
     5ac:	0901                	addi	s2,s2,0
     5ae:	0000                	unimp
     5b0:	0501                	addi	a0,a0,0
     5b2:	060d                	addi	a2,a2,3
     5b4:	00090003          	lb	zero,0(s2)
     5b8:	0100                	addi	s0,sp,128
     5ba:	0405                	addi	s0,s0,1
     5bc:	0c096703          	0xc096703
     5c0:	0100                	addi	s0,sp,128
     5c2:	0805                	addi	a6,a6,1
     5c4:	0306                	slli	t1,t1,0x1
     5c6:	091e                	slli	s2,s2,0x7
     5c8:	0014                	0x14
     5ca:	0301                	addi	t1,t1,0
     5cc:	00000903          	lb	s2,0(zero) # 0 <buf.1>
     5d0:	0301                	addi	t1,t1,0
     5d2:	0902                	c.slli64	s2
     5d4:	0000                	unimp
     5d6:	0501                	addi	a0,a0,0
     5d8:	061e                	slli	a2,a2,0x7
     5da:	00090003          	lb	zero,0(s2)
     5de:	0100                	addi	s0,sp,128
     5e0:	1105                	addi	sp,sp,-31
     5e2:	04090003          	lb	zero,64(s2)
     5e6:	0100                	addi	s0,sp,128
     5e8:	0b05                	addi	s6,s6,1
     5ea:	04090003          	lb	zero,64(s2)
     5ee:	0100                	addi	s0,sp,128
     5f0:	0805                	addi	a6,a6,1
     5f2:	0306                	slli	t1,t1,0x1
     5f4:	0901                	addi	s2,s2,0
     5f6:	0004                	0x4
     5f8:	0501                	addi	a0,a0,0
     5fa:	0103060b          	0x103060b
     5fe:	0009                	c.nop	2
     600:	0100                	addi	s0,sp,128
     602:	0805                	addi	a6,a6,1
     604:	04090403          	lb	s0,64(s2)
     608:	0100                	addi	s0,sp,128
     60a:	1105                	addi	sp,sp,-31
     60c:	04097d03          	0x4097d03
     610:	0100                	addi	s0,sp,128
     612:	0805                	addi	a6,a6,1
     614:	04090303          	lb	t1,64(s2)
     618:	0100                	addi	s0,sp,128
     61a:	1e05                	addi	t3,t3,-31
     61c:	04097d03          	0x4097d03
     620:	0100                	addi	s0,sp,128
     622:	0805                	addi	a6,a6,1
     624:	04090303          	lb	t1,64(s2)
     628:	0100                	addi	s0,sp,128
     62a:	0b05                	addi	s6,s6,1
     62c:	04097d03          	0x4097d03
     630:	0100                	addi	s0,sp,128
     632:	04097e03          	0x4097e03
     636:	0100                	addi	s0,sp,128
     638:	0805                	addi	a6,a6,1
     63a:	0306                	slli	t1,t1,0x1
     63c:	0901                	addi	s2,s2,0
     63e:	0004                	0x4
     640:	0301                	addi	t1,t1,0
     642:	0901                	addi	s2,s2,0
     644:	0000                	unimp
     646:	0301                	addi	t1,t1,0
     648:	0901                	addi	s2,s2,0
     64a:	0000                	unimp
     64c:	0601                	addi	a2,a2,0
     64e:	00090203          	lb	tp,0(s2)
     652:	0100                	addi	s0,sp,128
     654:	0b05                	addi	s6,s6,1
     656:	10097e03          	0x10097e03
     65a:	0100                	addi	s0,sp,128
     65c:	0805                	addi	a6,a6,1
     65e:	0306                	slli	t1,t1,0x1
     660:	0902                	c.slli64	s2
     662:	0004                	0x4
     664:	0301                	addi	t1,t1,0
     666:	0900                	addi	s0,sp,144
     668:	0000                	unimp
     66a:	0301                	addi	t1,t1,0
     66c:	0900                	addi	s0,sp,144
     66e:	0000                	unimp
     670:	0301                	addi	t1,t1,0
     672:	0900                	addi	s0,sp,144
     674:	0000                	unimp
     676:	0301                	addi	t1,t1,0
     678:	0900                	addi	s0,sp,144
     67a:	0000                	unimp
     67c:	0301                	addi	t1,t1,0
     67e:	0900                	addi	s0,sp,144
     680:	000c                	0xc
     682:	0301                	addi	t1,t1,0
     684:	0900                	addi	s0,sp,144
     686:	0000                	unimp
     688:	0301                	addi	t1,t1,0
     68a:	0900                	addi	s0,sp,144
     68c:	0004                	0x4
     68e:	0301                	addi	t1,t1,0
     690:	0900                	addi	s0,sp,144
     692:	000c                	0xc
     694:	0301                	addi	t1,t1,0
     696:	0900                	addi	s0,sp,144
     698:	000c                	0xc
     69a:	0301                	addi	t1,t1,0
     69c:	0900                	addi	s0,sp,144
     69e:	0008                	0x8
     6a0:	0301                	addi	t1,t1,0
     6a2:	0900                	addi	s0,sp,144
     6a4:	0008                	0x8
     6a6:	0301                	addi	t1,t1,0
     6a8:	0900                	addi	s0,sp,144
     6aa:	0004                	0x4
     6ac:	0301                	addi	t1,t1,0
     6ae:	0900                	addi	s0,sp,144
     6b0:	0004                	0x4
     6b2:	0301                	addi	t1,t1,0
     6b4:	0900                	addi	s0,sp,144
     6b6:	0008                	0x8
     6b8:	0301                	addi	t1,t1,0
     6ba:	0900                	addi	s0,sp,144
     6bc:	0004                	0x4
     6be:	0301                	addi	t1,t1,0
     6c0:	0900                	addi	s0,sp,144
     6c2:	0010                	0x10
     6c4:	0301                	addi	t1,t1,0
     6c6:	0900                	addi	s0,sp,144
     6c8:	0010                	0x10
     6ca:	0301                	addi	t1,t1,0
     6cc:	0900                	addi	s0,sp,144
     6ce:	000c                	0xc
     6d0:	0301                	addi	t1,t1,0
     6d2:	0900                	addi	s0,sp,144
     6d4:	0010                	0x10
     6d6:	0301                	addi	t1,t1,0
     6d8:	0900                	addi	s0,sp,144
     6da:	0008                	0x8
     6dc:	0301                	addi	t1,t1,0
     6de:	0900                	addi	s0,sp,144
     6e0:	0008                	0x8
     6e2:	0301                	addi	t1,t1,0
     6e4:	0900                	addi	s0,sp,144
     6e6:	0004                	0x4
     6e8:	0301                	addi	t1,t1,0
     6ea:	0900                	addi	s0,sp,144
     6ec:	0004                	0x4
     6ee:	0301                	addi	t1,t1,0
     6f0:	0900                	addi	s0,sp,144
     6f2:	0008                	0x8
     6f4:	0601                	addi	a2,a2,0
     6f6:	00090103          	lb	sp,0(s2)
     6fa:	0100                	addi	s0,sp,128
     6fc:	04097f03          	0x4097f03
     700:	0100                	addi	s0,sp,128
     702:	08090103          	lb	sp,128(s2)
     706:	0100                	addi	s0,sp,128
     708:	0c097f03          	0xc097f03
     70c:	0100                	addi	s0,sp,128
     70e:	0306                	slli	t1,t1,0x1
     710:	0900                	addi	s0,sp,144
     712:	0004                	0x4
     714:	0301                	addi	t1,t1,0
     716:	0900                	addi	s0,sp,144
     718:	0000                	unimp
     71a:	0301                	addi	t1,t1,0
     71c:	0900                	addi	s0,sp,144
     71e:	0000                	unimp
     720:	0301                	addi	t1,t1,0
     722:	0901                	addi	s2,s2,0
     724:	0000                	unimp
     726:	0301                	addi	t1,t1,0
     728:	0900                	addi	s0,sp,144
     72a:	0000                	unimp
     72c:	0301                	addi	t1,t1,0
     72e:	0900                	addi	s0,sp,144
     730:	0000                	unimp
     732:	0301                	addi	t1,t1,0
     734:	0900                	addi	s0,sp,144
     736:	0000                	unimp
     738:	0301                	addi	t1,t1,0
     73a:	0900                	addi	s0,sp,144
     73c:	0000                	unimp
     73e:	0301                	addi	t1,t1,0
     740:	0900                	addi	s0,sp,144
     742:	0004                	0x4
     744:	0301                	addi	t1,t1,0
     746:	0900                	addi	s0,sp,144
     748:	0000                	unimp
     74a:	0301                	addi	t1,t1,0
     74c:	0900                	addi	s0,sp,144
     74e:	0004                	0x4
     750:	0301                	addi	t1,t1,0
     752:	0900                	addi	s0,sp,144
     754:	0000                	unimp
     756:	0301                	addi	t1,t1,0
     758:	0900                	addi	s0,sp,144
     75a:	0004                	0x4
     75c:	0301                	addi	t1,t1,0
     75e:	0900                	addi	s0,sp,144
     760:	0004                	0x4
     762:	0301                	addi	t1,t1,0
     764:	0900                	addi	s0,sp,144
     766:	0004                	0x4
     768:	0301                	addi	t1,t1,0
     76a:	0900                	addi	s0,sp,144
     76c:	0004                	0x4
     76e:	0301                	addi	t1,t1,0
     770:	0900                	addi	s0,sp,144
     772:	0000                	unimp
     774:	0301                	addi	t1,t1,0
     776:	0900                	addi	s0,sp,144
     778:	0008                	0x8
     77a:	0301                	addi	t1,t1,0
     77c:	0900                	addi	s0,sp,144
     77e:	0000                	unimp
     780:	0301                	addi	t1,t1,0
     782:	0900                	addi	s0,sp,144
     784:	0004                	0x4
     786:	0301                	addi	t1,t1,0
     788:	0900                	addi	s0,sp,144
     78a:	0004                	0x4
     78c:	0301                	addi	t1,t1,0
     78e:	0900                	addi	s0,sp,144
     790:	0000                	unimp
     792:	0301                	addi	t1,t1,0
     794:	0900                	addi	s0,sp,144
     796:	0008                	0x8
     798:	0301                	addi	t1,t1,0
     79a:	0900                	addi	s0,sp,144
     79c:	0000                	unimp
     79e:	0301                	addi	t1,t1,0
     7a0:	0900                	addi	s0,sp,144
     7a2:	0004                	0x4
     7a4:	0301                	addi	t1,t1,0
     7a6:	0900                	addi	s0,sp,144
     7a8:	0004                	0x4
     7aa:	0301                	addi	t1,t1,0
     7ac:	0900                	addi	s0,sp,144
     7ae:	0000                	unimp
     7b0:	0301                	addi	t1,t1,0
     7b2:	0900                	addi	s0,sp,144
     7b4:	0008                	0x8
     7b6:	0301                	addi	t1,t1,0
     7b8:	0900                	addi	s0,sp,144
     7ba:	0000                	unimp
     7bc:	0301                	addi	t1,t1,0
     7be:	0900                	addi	s0,sp,144
     7c0:	0004                	0x4
     7c2:	0301                	addi	t1,t1,0
     7c4:	0900                	addi	s0,sp,144
     7c6:	0000                	unimp
     7c8:	0301                	addi	t1,t1,0
     7ca:	0900                	addi	s0,sp,144
     7cc:	0000                	unimp
     7ce:	0301                	addi	t1,t1,0
     7d0:	0900                	addi	s0,sp,144
     7d2:	000c                	0xc
     7d4:	0301                	addi	t1,t1,0
     7d6:	0900                	addi	s0,sp,144
     7d8:	0004                	0x4
     7da:	0301                	addi	t1,t1,0
     7dc:	0900                	addi	s0,sp,144
     7de:	0004                	0x4
     7e0:	0301                	addi	t1,t1,0
     7e2:	0900                	addi	s0,sp,144
     7e4:	0008                	0x8
     7e6:	0301                	addi	t1,t1,0
     7e8:	0900                	addi	s0,sp,144
     7ea:	0018                	0x18
     7ec:	0301                	addi	t1,t1,0
     7ee:	0902                	c.slli64	s2
     7f0:	0000                	unimp
     7f2:	0501                	addi	a0,a0,0
     7f4:	0003060b          	0x3060b
     7f8:	0009                	c.nop	2
     7fa:	0100                	addi	s0,sp,128
     7fc:	1405                	addi	s0,s0,-31
     7fe:	04090003          	lb	zero,64(s2)
     802:	0100                	addi	s0,sp,128
     804:	2105                	jal	c24 <vprintfmt.constprop.0+0x77e>
     806:	04090003          	lb	zero,64(s2)
     80a:	0100                	addi	s0,sp,128
     80c:	0505                	addi	a0,a0,1
     80e:	0306                	slli	t1,t1,0x1
     810:	0902                	c.slli64	s2
     812:	0004                	0x4
     814:	0301                	addi	t1,t1,0
     816:	0901                	addi	s2,s2,0
     818:	0000                	unimp
     81a:	0301                	addi	t1,t1,0
     81c:	0900                	addi	s0,sp,144
     81e:	0000                	unimp
     820:	0301                	addi	t1,t1,0
     822:	0900                	addi	s0,sp,144
     824:	0000                	unimp
     826:	0301                	addi	t1,t1,0
     828:	0900                	addi	s0,sp,144
     82a:	0004                	0x4
     82c:	0301                	addi	t1,t1,0
     82e:	0900                	addi	s0,sp,144
     830:	000c                	0xc
     832:	0301                	addi	t1,t1,0
     834:	0900                	addi	s0,sp,144
     836:	0004                	0x4
     838:	0501                	addi	a0,a0,0
     83a:	0308                	addi	a0,sp,384
     83c:	00000903          	lb	s2,0(zero) # 0 <buf.1>
     840:	0301                	addi	t1,t1,0
     842:	00000903          	lb	s2,0(zero) # 0 <buf.1>
     846:	0501                	addi	a0,a0,0
     848:	0305                	addi	t1,t1,1
     84a:	0902                	c.slli64	s2
     84c:	0000                	unimp
     84e:	0301                	addi	t1,t1,0
     850:	0900                	addi	s0,sp,144
     852:	0000                	unimp
     854:	0301                	addi	t1,t1,0
     856:	0900                	addi	s0,sp,144
     858:	0000                	unimp
     85a:	0301                	addi	t1,t1,0
     85c:	0900                	addi	s0,sp,144
     85e:	0004                	0x4
     860:	0301                	addi	t1,t1,0
     862:	0900                	addi	s0,sp,144
     864:	000c                	0xc
     866:	0301                	addi	t1,t1,0
     868:	0900                	addi	s0,sp,144
     86a:	0000                	unimp
     86c:	0301                	addi	t1,t1,0
     86e:	0901                	addi	s2,s2,0
     870:	0000                	unimp
     872:	0501                	addi	a0,a0,0
     874:	0614                	addi	a3,sp,768
     876:	00090003          	lb	zero,0(s2)
     87a:	0100                	addi	s0,sp,128
     87c:	2005                	jal	89c <vprintfmt.constprop.0+0x3f6>
     87e:	04090003          	lb	zero,64(s2)
     882:	0100                	addi	s0,sp,128
     884:	0505                	addi	a0,a0,1
     886:	0306                	slli	t1,t1,0x1
     888:	0901                	addi	s2,s2,0
     88a:	0004                	0x4
     88c:	0301                	addi	t1,t1,0
     88e:	0901                	addi	s2,s2,0
     890:	0000                	unimp
     892:	0501                	addi	a0,a0,0
     894:	060d                	addi	a2,a2,3
     896:	00090003          	lb	zero,0(s2)
     89a:	0100                	addi	s0,sp,128
     89c:	0c09                	addi	s8,s8,2
     89e:	0000                	unimp
     8a0:	0101                	addi	sp,sp,0
     8a2:	0785                	addi	a5,a5,1
     8a4:	0000                	unimp
     8a6:	004f0003          	lb	zero,4(t5)
     8aa:	0000                	unimp
     8ac:	0101                	addi	sp,sp,0
     8ae:	000d0efb          	0xd0efb
     8b2:	0101                	addi	sp,sp,0
     8b4:	0101                	addi	sp,sp,0
     8b6:	0000                	unimp
     8b8:	0100                	addi	s0,sp,128
     8ba:	0000                	unimp
     8bc:	2e01                	jal	bcc <vprintfmt.constprop.0+0x726>
     8be:	2f2e                	fld	ft10,200(sp)
     8c0:	2e2e                	fld	ft8,200(sp)
     8c2:	2f2e2e2f          	0x2f2e2e2f
     8c6:	2e2e                	fld	ft8,200(sp)
     8c8:	2f2e2e2f          	0x2f2e2e2f
     8cc:	2f2e                	fld	ft10,200(sp)
     8ce:	6972                	flw	fs2,28(sp)
     8d0:	2d766373          	csrrsi	t1,0x2d7,12
     8d4:	2f636367          	0x2f636367
     8d8:	696c                	flw	fa1,84(a0)
     8da:	6762                	flw	fa4,24(sp)
     8dc:	00006363          	bltu	zero,zero,8e2 <vprintfmt.constprop.0+0x43c>
     8e0:	696c                	flw	fa1,84(a0)
     8e2:	6762                	flw	fa4,24(sp)
     8e4:	2e326363          	bltu	tp,gp,bca <vprintfmt.constprop.0+0x724>
     8e8:	00010063          	beqz	sp,8e8 <vprintfmt.constprop.0+0x442>
     8ec:	6c00                	flw	fs0,24(s0)
     8ee:	6269                	lui	tp,0x1a
     8f0:	32636367          	0x32636367
     8f4:	682e                	flw	fa6,200(sp)
     8f6:	0100                	addi	s0,sp,128
     8f8:	0000                	unimp
     8fa:	0500                	addi	s0,sp,640
     8fc:	0001                	nop
     8fe:	0205                	addi	tp,tp,1
     900:	1b24                	addi	s1,sp,440
     902:	0000                	unimp
     904:	010aa603          	lw	a2,16(s5)
     908:	0305                	addi	t1,t1,1
     90a:	00090103          	lb	sp,0(s2)
     90e:	0100                	addi	s0,sp,128
     910:	097dd103          	lhu	sp,151(s11)
     914:	0000                	unimp
     916:	0301                	addi	t1,t1,0
     918:	0901                	addi	s2,s2,0
     91a:	0000                	unimp
     91c:	0301                	addi	t1,t1,0
     91e:	0901                	addi	s2,s2,0
     920:	0000                	unimp
     922:	0301                	addi	t1,t1,0
     924:	0901                	addi	s2,s2,0
     926:	0000                	unimp
     928:	0301                	addi	t1,t1,0
     92a:	0901                	addi	s2,s2,0
     92c:	0000                	unimp
     92e:	0301                	addi	t1,t1,0
     930:	0901                	addi	s2,s2,0
     932:	0000                	unimp
     934:	0301                	addi	t1,t1,0
     936:	0902                	c.slli64	s2
     938:	0000                	unimp
     93a:	0301                	addi	t1,t1,0
     93c:	0901                	addi	s2,s2,0
     93e:	0000                	unimp
     940:	0301                	addi	t1,t1,0
     942:	0901                	addi	s2,s2,0
     944:	0000                	unimp
     946:	0301                	addi	t1,t1,0
     948:	0901                	addi	s2,s2,0
     94a:	0000                	unimp
     94c:	0301                	addi	t1,t1,0
     94e:	0925                	addi	s2,s2,9
     950:	0000                	unimp
     952:	0501                	addi	a0,a0,0
     954:	0601                	addi	a2,a2,0
     956:	0901ff03          	0x901ff03
     95a:	0000                	unimp
     95c:	0301                	addi	t1,t1,0
     95e:	0900                	addi	s0,sp,144
     960:	0030                	addi	a2,sp,8
     962:	0501                	addi	a0,a0,0
     964:	0306                	slli	t1,t1,0x1
     966:	7e81                	lui	t4,0xfffe0
     968:	0809                	addi	a6,a6,2
     96a:	0100                	addi	s0,sp,128
     96c:	0705                	addi	a4,a4,1
     96e:	0306                	slli	t1,t1,0x1
     970:	0902                	c.slli64	s2
     972:	000c                	0xc
     974:	0501                	addi	a0,a0,0
     976:	060a                	slli	a2,a2,0x2
     978:	08090003          	lb	zero,128(s2)
     97c:	0100                	addi	s0,sp,128
     97e:	0405                	addi	s0,s0,1
     980:	04090403          	lb	s0,64(s2)
     984:	0100                	addi	s0,sp,128
     986:	0306                	slli	t1,t1,0x1
     988:	0900                	addi	s0,sp,144
     98a:	0008                	0x8
     98c:	0301                	addi	t1,t1,0
     98e:	0900                	addi	s0,sp,144
     990:	0000                	unimp
     992:	0301                	addi	t1,t1,0
     994:	0900                	addi	s0,sp,144
     996:	0000                	unimp
     998:	0301                	addi	t1,t1,0
     99a:	0900                	addi	s0,sp,144
     99c:	0000                	unimp
     99e:	0301                	addi	t1,t1,0
     9a0:	0900                	addi	s0,sp,144
     9a2:	0000                	unimp
     9a4:	0301                	addi	t1,t1,0
     9a6:	0900                	addi	s0,sp,144
     9a8:	0010                	0x10
     9aa:	0301                	addi	t1,t1,0
     9ac:	0900                	addi	s0,sp,144
     9ae:	0018                	0x18
     9b0:	0301                	addi	t1,t1,0
     9b2:	0902                	c.slli64	s2
     9b4:	0000                	unimp
     9b6:	0501                	addi	a0,a0,0
     9b8:	00030607          	0x30607
     9bc:	0009                	c.nop	2
     9be:	0100                	addi	s0,sp,128
     9c0:	0805                	addi	a6,a6,1
     9c2:	0306                	slli	t1,t1,0x1
     9c4:	0905                	addi	s2,s2,1
     9c6:	0004                	0x4
     9c8:	0501                	addi	a0,a0,0
     9ca:	0611                	addi	a2,a2,4
     9cc:	00090103          	lb	sp,0(s2)
     9d0:	0100                	addi	s0,sp,128
     9d2:	1e05                	addi	t3,t3,-31
     9d4:	04090003          	lb	zero,64(s2)
     9d8:	0100                	addi	s0,sp,128
     9da:	0b05                	addi	s6,s6,1
     9dc:	04097f03          	0x4097f03
     9e0:	0100                	addi	s0,sp,128
     9e2:	0805                	addi	a6,a6,1
     9e4:	0306                	slli	t1,t1,0x1
     9e6:	0901                	addi	s2,s2,0
     9e8:	0004                	0x4
     9ea:	0501                	addi	a0,a0,0
     9ec:	0003060b          	0x3060b
     9f0:	0009                	c.nop	2
     9f2:	0100                	addi	s0,sp,128
     9f4:	0805                	addi	a6,a6,1
     9f6:	0306                	slli	t1,t1,0x1
     9f8:	0901                	addi	s2,s2,0
     9fa:	0004                	0x4
     9fc:	0501                	addi	a0,a0,0
     9fe:	0003060b          	0x3060b
     a02:	0009                	c.nop	2
     a04:	0100                	addi	s0,sp,128
     a06:	0405                	addi	s0,s0,1
     a08:	0306                	slli	t1,t1,0x1
     a0a:	00040903          	lb	s2,0(s0)
     a0e:	0301                	addi	t1,t1,0
     a10:	0900                	addi	s0,sp,144
     a12:	0000                	unimp
     a14:	0301                	addi	t1,t1,0
     a16:	0900                	addi	s0,sp,144
     a18:	0000                	unimp
     a1a:	0301                	addi	t1,t1,0
     a1c:	0900                	addi	s0,sp,144
     a1e:	0000                	unimp
     a20:	0301                	addi	t1,t1,0
     a22:	0900                	addi	s0,sp,144
     a24:	0004                	0x4
     a26:	0301                	addi	t1,t1,0
     a28:	0900                	addi	s0,sp,144
     a2a:	0024                	addi	s1,sp,8
     a2c:	0301                	addi	t1,t1,0
     a2e:	0900                	addi	s0,sp,144
     a30:	0000                	unimp
     a32:	0301                	addi	t1,t1,0
     a34:	0900                	addi	s0,sp,144
     a36:	0004                	0x4
     a38:	0301                	addi	t1,t1,0
     a3a:	0900                	addi	s0,sp,144
     a3c:	000c                	0xc
     a3e:	0301                	addi	t1,t1,0
     a40:	0900                	addi	s0,sp,144
     a42:	000c                	0xc
     a44:	0301                	addi	t1,t1,0
     a46:	0900                	addi	s0,sp,144
     a48:	0008                	0x8
     a4a:	0301                	addi	t1,t1,0
     a4c:	0900                	addi	s0,sp,144
     a4e:	0008                	0x8
     a50:	0301                	addi	t1,t1,0
     a52:	0900                	addi	s0,sp,144
     a54:	0004                	0x4
     a56:	0301                	addi	t1,t1,0
     a58:	0900                	addi	s0,sp,144
     a5a:	0004                	0x4
     a5c:	0301                	addi	t1,t1,0
     a5e:	0900                	addi	s0,sp,144
     a60:	0008                	0x8
     a62:	0301                	addi	t1,t1,0
     a64:	0900                	addi	s0,sp,144
     a66:	0004                	0x4
     a68:	0301                	addi	t1,t1,0
     a6a:	0900                	addi	s0,sp,144
     a6c:	0010                	0x10
     a6e:	0301                	addi	t1,t1,0
     a70:	0900                	addi	s0,sp,144
     a72:	0014                	0x14
     a74:	0301                	addi	t1,t1,0
     a76:	0900                	addi	s0,sp,144
     a78:	0014                	0x14
     a7a:	0301                	addi	t1,t1,0
     a7c:	0900                	addi	s0,sp,144
     a7e:	0004                	0x4
     a80:	0301                	addi	t1,t1,0
     a82:	0900                	addi	s0,sp,144
     a84:	0008                	0x8
     a86:	0301                	addi	t1,t1,0
     a88:	0900                	addi	s0,sp,144
     a8a:	0008                	0x8
     a8c:	0301                	addi	t1,t1,0
     a8e:	0900                	addi	s0,sp,144
     a90:	0004                	0x4
     a92:	0301                	addi	t1,t1,0
     a94:	0900                	addi	s0,sp,144
     a96:	0004                	0x4
     a98:	0301                	addi	t1,t1,0
     a9a:	0900                	addi	s0,sp,144
     a9c:	0004                	0x4
     a9e:	0301                	addi	t1,t1,0
     aa0:	0900                	addi	s0,sp,144
     aa2:	0000                	unimp
     aa4:	0301                	addi	t1,t1,0
     aa6:	0900                	addi	s0,sp,144
     aa8:	0008                	0x8
     aaa:	0301                	addi	t1,t1,0
     aac:	0900                	addi	s0,sp,144
     aae:	0000                	unimp
     ab0:	0301                	addi	t1,t1,0
     ab2:	0901                	addi	s2,s2,0
     ab4:	0000                	unimp
     ab6:	0501                	addi	a0,a0,0
     ab8:	fe03060b          	0xfe03060b
     abc:	0900                	addi	s0,sp,144
     abe:	0000                	unimp
     ac0:	0501                	addi	a0,a0,0
     ac2:	0304                	addi	s1,sp,384
     ac4:	7ef5                	lui	t4,0xffffd
     ac6:	0809                	addi	a6,a6,2
     ac8:	0100                	addi	s0,sp,128
     aca:	0306                	slli	t1,t1,0x1
     acc:	0915                	addi	s2,s2,5
     ace:	0018                	0x18
     ad0:	0501                	addi	a0,a0,0
     ad2:	00030607          	0x30607
     ad6:	0009                	c.nop	2
     ad8:	0100                	addi	s0,sp,128
     ada:	0605                	addi	a2,a2,1
     adc:	0306                	slli	t1,t1,0x1
     ade:	0901                	addi	s2,s2,0
     ae0:	0004                	0x4
     ae2:	0501                	addi	a0,a0,0
     ae4:	0609                	addi	a2,a2,2
     ae6:	00090003          	lb	zero,0(s2)
     aea:	0100                	addi	s0,sp,128
     aec:	0405                	addi	s0,s0,1
     aee:	0306                	slli	t1,t1,0x1
     af0:	0902                	c.slli64	s2
     af2:	0010                	0x10
     af4:	0301                	addi	t1,t1,0
     af6:	0900                	addi	s0,sp,144
     af8:	0000                	unimp
     afa:	0301                	addi	t1,t1,0
     afc:	0900                	addi	s0,sp,144
     afe:	0000                	unimp
     b00:	0301                	addi	t1,t1,0
     b02:	0900                	addi	s0,sp,144
     b04:	0000                	unimp
     b06:	0301                	addi	t1,t1,0
     b08:	0900                	addi	s0,sp,144
     b0a:	0000                	unimp
     b0c:	0301                	addi	t1,t1,0
     b0e:	0900                	addi	s0,sp,144
     b10:	0014                	0x14
     b12:	0301                	addi	t1,t1,0
     b14:	0900                	addi	s0,sp,144
     b16:	0018                	0x18
     b18:	0301                	addi	t1,t1,0
     b1a:	0902                	c.slli64	s2
     b1c:	0000                	unimp
     b1e:	0501                	addi	a0,a0,0
     b20:	00030607          	0x30607
     b24:	0009                	c.nop	2
     b26:	0100                	addi	s0,sp,128
     b28:	0805                	addi	a6,a6,1
     b2a:	0306                	slli	t1,t1,0x1
     b2c:	0909                	addi	s2,s2,2
     b2e:	0004                	0x4
     b30:	0501                	addi	a0,a0,0
     b32:	0003060b          	0x3060b
     b36:	0009                	c.nop	2
     b38:	0100                	addi	s0,sp,128
     b3a:	0805                	addi	a6,a6,1
     b3c:	0306                	slli	t1,t1,0x1
     b3e:	0901                	addi	s2,s2,0
     b40:	0004                	0x4
     b42:	0501                	addi	a0,a0,0
     b44:	0003060b          	0x3060b
     b48:	0009                	c.nop	2
     b4a:	0100                	addi	s0,sp,128
     b4c:	0805                	addi	a6,a6,1
     b4e:	0306                	slli	t1,t1,0x1
     b50:	090d                	addi	s2,s2,3
     b52:	0004                	0x4
     b54:	0501                	addi	a0,a0,0
     b56:	0304                	addi	s1,sp,384
     b58:	0905                	addi	s2,s2,1
     b5a:	0000                	unimp
     b5c:	0301                	addi	t1,t1,0
     b5e:	0900                	addi	s0,sp,144
     b60:	0000                	unimp
     b62:	0301                	addi	t1,t1,0
     b64:	0900                	addi	s0,sp,144
     b66:	0000                	unimp
     b68:	0301                	addi	t1,t1,0
     b6a:	0900                	addi	s0,sp,144
     b6c:	0000                	unimp
     b6e:	0301                	addi	t1,t1,0
     b70:	0900                	addi	s0,sp,144
     b72:	0004                	0x4
     b74:	0301                	addi	t1,t1,0
     b76:	0900                	addi	s0,sp,144
     b78:	0024                	addi	s1,sp,8
     b7a:	0301                	addi	t1,t1,0
     b7c:	0900                	addi	s0,sp,144
     b7e:	0000                	unimp
     b80:	0301                	addi	t1,t1,0
     b82:	0900                	addi	s0,sp,144
     b84:	0004                	0x4
     b86:	0301                	addi	t1,t1,0
     b88:	0900                	addi	s0,sp,144
     b8a:	000c                	0xc
     b8c:	0301                	addi	t1,t1,0
     b8e:	0900                	addi	s0,sp,144
     b90:	000c                	0xc
     b92:	0301                	addi	t1,t1,0
     b94:	0900                	addi	s0,sp,144
     b96:	0008                	0x8
     b98:	0301                	addi	t1,t1,0
     b9a:	0900                	addi	s0,sp,144
     b9c:	0008                	0x8
     b9e:	0301                	addi	t1,t1,0
     ba0:	0900                	addi	s0,sp,144
     ba2:	0004                	0x4
     ba4:	0301                	addi	t1,t1,0
     ba6:	0900                	addi	s0,sp,144
     ba8:	0004                	0x4
     baa:	0301                	addi	t1,t1,0
     bac:	0900                	addi	s0,sp,144
     bae:	0008                	0x8
     bb0:	0301                	addi	t1,t1,0
     bb2:	0900                	addi	s0,sp,144
     bb4:	0004                	0x4
     bb6:	0301                	addi	t1,t1,0
     bb8:	0900                	addi	s0,sp,144
     bba:	0010                	0x10
     bbc:	0301                	addi	t1,t1,0
     bbe:	0900                	addi	s0,sp,144
     bc0:	0014                	0x14
     bc2:	0301                	addi	t1,t1,0
     bc4:	0900                	addi	s0,sp,144
     bc6:	0014                	0x14
     bc8:	0301                	addi	t1,t1,0
     bca:	0900                	addi	s0,sp,144
     bcc:	0004                	0x4
     bce:	0301                	addi	t1,t1,0
     bd0:	0900                	addi	s0,sp,144
     bd2:	0008                	0x8
     bd4:	0301                	addi	t1,t1,0
     bd6:	0900                	addi	s0,sp,144
     bd8:	0008                	0x8
     bda:	0301                	addi	t1,t1,0
     bdc:	0900                	addi	s0,sp,144
     bde:	0004                	0x4
     be0:	0301                	addi	t1,t1,0
     be2:	0900                	addi	s0,sp,144
     be4:	0004                	0x4
     be6:	0301                	addi	t1,t1,0
     be8:	0900                	addi	s0,sp,144
     bea:	0004                	0x4
     bec:	0301                	addi	t1,t1,0
     bee:	0900                	addi	s0,sp,144
     bf0:	0000                	unimp
     bf2:	0301                	addi	t1,t1,0
     bf4:	0900                	addi	s0,sp,144
     bf6:	0008                	0x8
     bf8:	0501                	addi	a0,a0,0
     bfa:	00e30303          	lb	t1,14(t1)
     bfe:	0009                	c.nop	2
     c00:	0100                	addi	s0,sp,128
     c02:	00090103          	lb	sp,0(s2)
     c06:	0100                	addi	s0,sp,128
     c08:	0105                	addi	sp,sp,1
     c0a:	0306                	slli	t1,t1,0x1
     c0c:	00e1                	addi	ra,ra,24
     c0e:	0009                	c.nop	2
     c10:	0100                	addi	s0,sp,128
     c12:	0405                	addi	s0,s0,1
     c14:	097e9d03          	lh	s10,151(t4) # ffffd097 <__C_STACK_TOP__+0xfffed097>
     c18:	003c                	addi	a5,sp,8
     c1a:	0501                	addi	a0,a0,0
     c1c:	0608                	addi	a0,sp,768
     c1e:	14091203          	lh	tp,320(s2)
     c22:	0100                	addi	s0,sp,128
     c24:	00090203          	lb	tp,0(s2)
     c28:	0100                	addi	s0,sp,128
     c2a:	0b05                	addi	s6,s6,1
     c2c:	0306                	slli	t1,t1,0x1
     c2e:	0900                	addi	s0,sp,144
     c30:	0000                	unimp
     c32:	0501                	addi	a0,a0,0
     c34:	0608                	addi	a0,sp,768
     c36:	04090103          	lb	sp,64(s2)
     c3a:	0100                	addi	s0,sp,128
     c3c:	0b05                	addi	s6,s6,1
     c3e:	0306                	slli	t1,t1,0x1
     c40:	0900                	addi	s0,sp,144
     c42:	0000                	unimp
     c44:	0501                	addi	a0,a0,0
     c46:	0608                	addi	a0,sp,768
     c48:	04090103          	lb	sp,64(s2)
     c4c:	0100                	addi	s0,sp,128
     c4e:	1e05                	addi	t3,t3,-31
     c50:	0306                	slli	t1,t1,0x1
     c52:	0900                	addi	s0,sp,144
     c54:	0000                	unimp
     c56:	0501                	addi	a0,a0,0
     c58:	0311                	addi	t1,t1,4
     c5a:	0900                	addi	s0,sp,144
     c5c:	0004                	0x4
     c5e:	0501                	addi	a0,a0,0
     c60:	0900030b          	0x900030b
     c64:	0004                	0x4
     c66:	0501                	addi	a0,a0,0
     c68:	0608                	addi	a0,sp,768
     c6a:	04090103          	lb	sp,64(s2)
     c6e:	0100                	addi	s0,sp,128
     c70:	0306                	slli	t1,t1,0x1
     c72:	0902                	c.slli64	s2
     c74:	0000                	unimp
     c76:	0501                	addi	a0,a0,0
     c78:	097e030b          	0x97e030b
     c7c:	000c                	0xc
     c7e:	0501                	addi	a0,a0,0
     c80:	0608                	addi	a0,sp,768
     c82:	04090203          	lb	tp,64(s2)
     c86:	0100                	addi	s0,sp,128
     c88:	00090003          	lb	zero,0(s2)
     c8c:	0100                	addi	s0,sp,128
     c8e:	00090003          	lb	zero,0(s2)
     c92:	0100                	addi	s0,sp,128
     c94:	00090003          	lb	zero,0(s2)
     c98:	0100                	addi	s0,sp,128
     c9a:	00090003          	lb	zero,0(s2)
     c9e:	0100                	addi	s0,sp,128
     ca0:	1c090003          	lb	zero,448(s2)
     ca4:	0100                	addi	s0,sp,128
     ca6:	00090003          	lb	zero,0(s2)
     caa:	0100                	addi	s0,sp,128
     cac:	04090003          	lb	zero,64(s2)
     cb0:	0100                	addi	s0,sp,128
     cb2:	0c090003          	lb	zero,192(s2)
     cb6:	0100                	addi	s0,sp,128
     cb8:	0c090003          	lb	zero,192(s2)
     cbc:	0100                	addi	s0,sp,128
     cbe:	08090003          	lb	zero,128(s2)
     cc2:	0100                	addi	s0,sp,128
     cc4:	08090003          	lb	zero,128(s2)
     cc8:	0100                	addi	s0,sp,128
     cca:	04090003          	lb	zero,64(s2)
     cce:	0100                	addi	s0,sp,128
     cd0:	04090003          	lb	zero,64(s2)
     cd4:	0100                	addi	s0,sp,128
     cd6:	08090003          	lb	zero,128(s2)
     cda:	0100                	addi	s0,sp,128
     cdc:	04090003          	lb	zero,64(s2)
     ce0:	0100                	addi	s0,sp,128
     ce2:	14090003          	lb	zero,320(s2)
     ce6:	0100                	addi	s0,sp,128
     ce8:	10090003          	lb	zero,256(s2)
     cec:	0100                	addi	s0,sp,128
     cee:	14090003          	lb	zero,320(s2)
     cf2:	0100                	addi	s0,sp,128
     cf4:	04090003          	lb	zero,64(s2)
     cf8:	0100                	addi	s0,sp,128
     cfa:	08090003          	lb	zero,128(s2)
     cfe:	0100                	addi	s0,sp,128
     d00:	08090003          	lb	zero,128(s2)
     d04:	0100                	addi	s0,sp,128
     d06:	04090003          	lb	zero,64(s2)
     d0a:	0100                	addi	s0,sp,128
     d0c:	04090003          	lb	zero,64(s2)
     d10:	0100                	addi	s0,sp,128
     d12:	08090003          	lb	zero,128(s2)
     d16:	0100                	addi	s0,sp,128
     d18:	08090003          	lb	zero,128(s2)
     d1c:	0100                	addi	s0,sp,128
     d1e:	04090003          	lb	zero,64(s2)
     d22:	0100                	addi	s0,sp,128
     d24:	0705                	addi	a4,a4,1
     d26:	04091503          	lh	a0,64(s2)
     d2a:	0100                	addi	s0,sp,128
     d2c:	0a05                	addi	s4,s4,1
     d2e:	0306                	slli	t1,t1,0x1
     d30:	0900                	addi	s0,sp,144
     d32:	0000                	unimp
     d34:	0501                	addi	a0,a0,0
     d36:	0604                	addi	s1,sp,768
     d38:	04091303          	lh	t1,64(s2)
     d3c:	0100                	addi	s0,sp,128
     d3e:	00090003          	lb	zero,0(s2)
     d42:	0100                	addi	s0,sp,128
     d44:	00090003          	lb	zero,0(s2)
     d48:	0100                	addi	s0,sp,128
     d4a:	00090003          	lb	zero,0(s2)
     d4e:	0100                	addi	s0,sp,128
     d50:	00090003          	lb	zero,0(s2)
     d54:	0100                	addi	s0,sp,128
     d56:	14090003          	lb	zero,320(s2)
     d5a:	0100                	addi	s0,sp,128
     d5c:	20090003          	lb	zero,512(s2)
     d60:	0100                	addi	s0,sp,128
     d62:	00090103          	lb	sp,0(s2)
     d66:	0100                	addi	s0,sp,128
     d68:	0705                	addi	a4,a4,1
     d6a:	0306                	slli	t1,t1,0x1
     d6c:	0900                	addi	s0,sp,144
     d6e:	0000                	unimp
     d70:	0501                	addi	a0,a0,0
     d72:	0608                	addi	a0,sp,768
     d74:	04090a03          	lb	s4,64(s2)
     d78:	0100                	addi	s0,sp,128
     d7a:	0306                	slli	t1,t1,0x1
     d7c:	0902                	c.slli64	s2
     d7e:	0000                	unimp
     d80:	0501                	addi	a0,a0,0
     d82:	097e030b          	0x97e030b
     d86:	0004                	0x4
     d88:	0501                	addi	a0,a0,0
     d8a:	0314                	addi	a3,sp,384
     d8c:	0900                	addi	s0,sp,144
     d8e:	0004                	0x4
     d90:	0501                	addi	a0,a0,0
     d92:	0304                	addi	s1,sp,384
     d94:	0975                	addi	s2,s2,29
     d96:	000c                	0xc
     d98:	0501                	addi	a0,a0,0
     d9a:	0608                	addi	a0,sp,768
     d9c:	14091e03          	lh	t3,320(s2)
     da0:	0100                	addi	s0,sp,128
     da2:	00090303          	lb	t1,0(s2)
     da6:	0100                	addi	s0,sp,128
     da8:	00090203          	lb	tp,0(s2)
     dac:	0100                	addi	s0,sp,128
     dae:	1e05                	addi	t3,t3,-31
     db0:	0306                	slli	t1,t1,0x1
     db2:	0900                	addi	s0,sp,144
     db4:	0000                	unimp
     db6:	0501                	addi	a0,a0,0
     db8:	0311                	addi	t1,t1,4
     dba:	0900                	addi	s0,sp,144
     dbc:	0004                	0x4
     dbe:	0501                	addi	a0,a0,0
     dc0:	0900030b          	0x900030b
     dc4:	0004                	0x4
     dc6:	0501                	addi	a0,a0,0
     dc8:	0608                	addi	a0,sp,768
     dca:	04090103          	lb	sp,64(s2)
     dce:	0100                	addi	s0,sp,128
     dd0:	0b05                	addi	s6,s6,1
     dd2:	0306                	slli	t1,t1,0x1
     dd4:	0901                	addi	s2,s2,0
     dd6:	0000                	unimp
     dd8:	0501                	addi	a0,a0,0
     dda:	0311                	addi	t1,t1,4
     ddc:	0901                	addi	s2,s2,0
     dde:	0004                	0x4
     de0:	0501                	addi	a0,a0,0
     de2:	031e                	slli	t1,t1,0x7
     de4:	0900                	addi	s0,sp,144
     de6:	0004                	0x4
     de8:	0501                	addi	a0,a0,0
     dea:	0900030b          	0x900030b
     dee:	0004                	0x4
     df0:	0501                	addi	a0,a0,0
     df2:	0308                	addi	a0,sp,384
     df4:	00040903          	lb	s2,0(s0)
     df8:	0501                	addi	a0,a0,0
     dfa:	097b030b          	0x97b030b
     dfe:	000c                	0xc
     e00:	0501                	addi	a0,a0,0
     e02:	0608                	addi	a0,sp,768
     e04:	04090103          	lb	sp,64(s2)
     e08:	0100                	addi	s0,sp,128
     e0a:	00090103          	lb	sp,0(s2)
     e0e:	0100                	addi	s0,sp,128
     e10:	00090103          	lb	sp,0(s2)
     e14:	0100                	addi	s0,sp,128
     e16:	00090203          	lb	tp,0(s2)
     e1a:	0100                	addi	s0,sp,128
     e1c:	00090003          	lb	zero,0(s2)
     e20:	0100                	addi	s0,sp,128
     e22:	00090003          	lb	zero,0(s2)
     e26:	0100                	addi	s0,sp,128
     e28:	00090003          	lb	zero,0(s2)
     e2c:	0100                	addi	s0,sp,128
     e2e:	00090003          	lb	zero,0(s2)
     e32:	0100                	addi	s0,sp,128
     e34:	1c090003          	lb	zero,448(s2)
     e38:	0100                	addi	s0,sp,128
     e3a:	00090003          	lb	zero,0(s2)
     e3e:	0100                	addi	s0,sp,128
     e40:	04090003          	lb	zero,64(s2)
     e44:	0100                	addi	s0,sp,128
     e46:	0c090003          	lb	zero,192(s2)
     e4a:	0100                	addi	s0,sp,128
     e4c:	0c090003          	lb	zero,192(s2)
     e50:	0100                	addi	s0,sp,128
     e52:	08090003          	lb	zero,128(s2)
     e56:	0100                	addi	s0,sp,128
     e58:	08090003          	lb	zero,128(s2)
     e5c:	0100                	addi	s0,sp,128
     e5e:	04090003          	lb	zero,64(s2)
     e62:	0100                	addi	s0,sp,128
     e64:	04090003          	lb	zero,64(s2)
     e68:	0100                	addi	s0,sp,128
     e6a:	08090003          	lb	zero,128(s2)
     e6e:	0100                	addi	s0,sp,128
     e70:	04090003          	lb	zero,64(s2)
     e74:	0100                	addi	s0,sp,128
     e76:	14090003          	lb	zero,320(s2)
     e7a:	0100                	addi	s0,sp,128
     e7c:	10090003          	lb	zero,256(s2)
     e80:	0100                	addi	s0,sp,128
     e82:	14090003          	lb	zero,320(s2)
     e86:	0100                	addi	s0,sp,128
     e88:	04090003          	lb	zero,64(s2)
     e8c:	0100                	addi	s0,sp,128
     e8e:	08090003          	lb	zero,128(s2)
     e92:	0100                	addi	s0,sp,128
     e94:	08090003          	lb	zero,128(s2)
     e98:	0100                	addi	s0,sp,128
     e9a:	04090003          	lb	zero,64(s2)
     e9e:	0100                	addi	s0,sp,128
     ea0:	04090003          	lb	zero,64(s2)
     ea4:	0100                	addi	s0,sp,128
     ea6:	08090003          	lb	zero,128(s2)
     eaa:	0100                	addi	s0,sp,128
     eac:	0306                	slli	t1,t1,0x1
     eae:	0901                	addi	s2,s2,0
     eb0:	0004                	0x4
     eb2:	0301                	addi	t1,t1,0
     eb4:	097f                	0x97f
     eb6:	0004                	0x4
     eb8:	0301                	addi	t1,t1,0
     eba:	0901                	addi	s2,s2,0
     ebc:	0004                	0x4
     ebe:	0301                	addi	t1,t1,0
     ec0:	097f                	0x97f
     ec2:	000c                	0xc
     ec4:	0601                	addi	a2,a2,0
     ec6:	04090003          	lb	zero,64(s2)
     eca:	0100                	addi	s0,sp,128
     ecc:	00090003          	lb	zero,0(s2)
     ed0:	0100                	addi	s0,sp,128
     ed2:	00090003          	lb	zero,0(s2)
     ed6:	0100                	addi	s0,sp,128
     ed8:	00090103          	lb	sp,0(s2)
     edc:	0100                	addi	s0,sp,128
     ede:	00090003          	lb	zero,0(s2)
     ee2:	0100                	addi	s0,sp,128
     ee4:	00090003          	lb	zero,0(s2)
     ee8:	0100                	addi	s0,sp,128
     eea:	00090003          	lb	zero,0(s2)
     eee:	0100                	addi	s0,sp,128
     ef0:	00090003          	lb	zero,0(s2)
     ef4:	0100                	addi	s0,sp,128
     ef6:	04090003          	lb	zero,64(s2)
     efa:	0100                	addi	s0,sp,128
     efc:	00090003          	lb	zero,0(s2)
     f00:	0100                	addi	s0,sp,128
     f02:	04090003          	lb	zero,64(s2)
     f06:	0100                	addi	s0,sp,128
     f08:	00090003          	lb	zero,0(s2)
     f0c:	0100                	addi	s0,sp,128
     f0e:	04090003          	lb	zero,64(s2)
     f12:	0100                	addi	s0,sp,128
     f14:	04090003          	lb	zero,64(s2)
     f18:	0100                	addi	s0,sp,128
     f1a:	04090003          	lb	zero,64(s2)
     f1e:	0100                	addi	s0,sp,128
     f20:	04090003          	lb	zero,64(s2)
     f24:	0100                	addi	s0,sp,128
     f26:	00090003          	lb	zero,0(s2)
     f2a:	0100                	addi	s0,sp,128
     f2c:	08090003          	lb	zero,128(s2)
     f30:	0100                	addi	s0,sp,128
     f32:	00090003          	lb	zero,0(s2)
     f36:	0100                	addi	s0,sp,128
     f38:	04090003          	lb	zero,64(s2)
     f3c:	0100                	addi	s0,sp,128
     f3e:	04090003          	lb	zero,64(s2)
     f42:	0100                	addi	s0,sp,128
     f44:	00090003          	lb	zero,0(s2)
     f48:	0100                	addi	s0,sp,128
     f4a:	08090003          	lb	zero,128(s2)
     f4e:	0100                	addi	s0,sp,128
     f50:	00090003          	lb	zero,0(s2)
     f54:	0100                	addi	s0,sp,128
     f56:	04090003          	lb	zero,64(s2)
     f5a:	0100                	addi	s0,sp,128
     f5c:	04090003          	lb	zero,64(s2)
     f60:	0100                	addi	s0,sp,128
     f62:	00090003          	lb	zero,0(s2)
     f66:	0100                	addi	s0,sp,128
     f68:	08090003          	lb	zero,128(s2)
     f6c:	0100                	addi	s0,sp,128
     f6e:	00090003          	lb	zero,0(s2)
     f72:	0100                	addi	s0,sp,128
     f74:	04090003          	lb	zero,64(s2)
     f78:	0100                	addi	s0,sp,128
     f7a:	10090003          	lb	zero,256(s2)
     f7e:	0100                	addi	s0,sp,128
     f80:	00090003          	lb	zero,0(s2)
     f84:	0100                	addi	s0,sp,128
     f86:	00090003          	lb	zero,0(s2)
     f8a:	0100                	addi	s0,sp,128
     f8c:	04090003          	lb	zero,64(s2)
     f90:	0100                	addi	s0,sp,128
     f92:	04090003          	lb	zero,64(s2)
     f96:	0100                	addi	s0,sp,128
     f98:	08090003          	lb	zero,128(s2)
     f9c:	0100                	addi	s0,sp,128
     f9e:	00090003          	lb	zero,0(s2)
     fa2:	0100                	addi	s0,sp,128
     fa4:	00090203          	lb	tp,0(s2)
     fa8:	0100                	addi	s0,sp,128
     faa:	0b05                	addi	s6,s6,1
     fac:	0306                	slli	t1,t1,0x1
     fae:	0900                	addi	s0,sp,144
     fb0:	0000                	unimp
     fb2:	0501                	addi	a0,a0,0
     fb4:	0314                	addi	a3,sp,384
     fb6:	0900                	addi	s0,sp,144
     fb8:	0004                	0x4
     fba:	0501                	addi	a0,a0,0
     fbc:	0308                	addi	a0,sp,384
     fbe:	097e                	slli	s2,s2,0x1f
     fc0:	0004                	0x4
     fc2:	0501                	addi	a0,a0,0
     fc4:	097d030b          	0x97d030b
     fc8:	0014                	0x14
     fca:	0501                	addi	a0,a0,0
     fcc:	0308                	addi	a0,sp,384
     fce:	00040903          	lb	s2,0(s0)
     fd2:	0501                	addi	a0,a0,0
     fd4:	0908030b          	0x908030b
     fd8:	0004                	0x4
     fda:	0501                	addi	a0,a0,0
     fdc:	0321                	addi	t1,t1,8
     fde:	097a                	slli	s2,s2,0x1e
     fe0:	0004                	0x4
     fe2:	0501                	addi	a0,a0,0
     fe4:	0605                	addi	a2,a2,1
     fe6:	04090203          	lb	tp,64(s2)
     fea:	0100                	addi	s0,sp,128
     fec:	0705                	addi	a4,a4,1
     fee:	0306                	slli	t1,t1,0x1
     ff0:	0900                	addi	s0,sp,144
     ff2:	0000                	unimp
     ff4:	0501                	addi	a0,a0,0
     ff6:	0605                	addi	a2,a2,1
     ff8:	04090103          	lb	sp,64(s2)
     ffc:	0100                	addi	s0,sp,128
     ffe:	00090003          	lb	zero,0(s2)
    1002:	0100                	addi	s0,sp,128
    1004:	00090003          	lb	zero,0(s2)
    1008:	0100                	addi	s0,sp,128
    100a:	00090003          	lb	zero,0(s2)
    100e:	0100                	addi	s0,sp,128
    1010:	00090003          	lb	zero,0(s2)
    1014:	0100                	addi	s0,sp,128
    1016:	0705                	addi	a4,a4,1
    1018:	0306                	slli	t1,t1,0x1
    101a:	00040943          	fmadd.s	fs2,fs0,ft0,ft0,rne
    101e:	0301                	addi	t1,t1,0
    1020:	097f                	0x97f
    1022:	0004                	0x4
    1024:	0901                	addi	s2,s2,0
    1026:	0008                	0x8
    1028:	0100                	addi	s0,sp,128
    102a:	cd01                	beqz	a0,1042 <vprintfmt.constprop.0+0xb9c>
    102c:	03000007          	0x3000007
    1030:	4f00                	lw	s0,24(a4)
    1032:	0000                	unimp
    1034:	0100                	addi	s0,sp,128
    1036:	fb01                	bnez	a4,f46 <vprintfmt.constprop.0+0xaa0>
    1038:	0d0e                	slli	s10,s10,0x3
    103a:	0100                	addi	s0,sp,128
    103c:	0101                	addi	sp,sp,0
    103e:	0001                	nop
    1040:	0000                	unimp
    1042:	0001                	nop
    1044:	0100                	addi	s0,sp,128
    1046:	2e2e                	fld	ft8,200(sp)
    1048:	2f2e2e2f          	0x2f2e2e2f
    104c:	2e2e                	fld	ft8,200(sp)
    104e:	2f2e2e2f          	0x2f2e2e2f
    1052:	2e2e                	fld	ft8,200(sp)
    1054:	722f2e2f          	0x722f2e2f
    1058:	7369                	lui	t1,0xffffa
    105a:	672d7663          	bgeu	s10,s2,16c6 <__moddi3+0xea>
    105e:	6c2f6363          	bltu	t5,sp,1724 <__moddi3+0x148>
    1062:	6269                	lui	tp,0x1a
    1064:	00636367          	0x636367
    1068:	6c00                	flw	fs0,24(s0)
    106a:	6269                	lui	tp,0x1a
    106c:	32636367          	0x32636367
    1070:	632e                	flw	ft6,200(sp)
    1072:	0100                	addi	s0,sp,128
    1074:	0000                	unimp
    1076:	696c                	flw	fa1,84(a0)
    1078:	6762                	flw	fa4,24(sp)
    107a:	2e326363          	bltu	tp,gp,1360 <vprintfmt.constprop.0+0xeba>
    107e:	0068                	addi	a0,sp,12
    1080:	0001                	nop
    1082:	0000                	unimp
    1084:	0105                	addi	sp,sp,1
    1086:	0500                	addi	s0,sp,640
    1088:	fc02                	fsw	ft0,56(sp)
    108a:	0020                	addi	s0,sp,8
    108c:	0300                	addi	s0,sp,384
    108e:	0a9a                	slli	s5,s5,0x6
    1090:	0601                	addi	a2,a2,0
    1092:	34090003          	lb	zero,832(s2)
    1096:	0100                	addi	s0,sp,128
    1098:	0305                	addi	t1,t1,1
    109a:	0306                	slli	t1,t1,0x1
    109c:	0901                	addi	s2,s2,0
    109e:	0004                	0x4
    10a0:	0301                	addi	t1,t1,0
    10a2:	0902                	c.slli64	s2
    10a4:	0000                	unimp
    10a6:	0301                	addi	t1,t1,0
    10a8:	00097ddb          	0x97ddb
    10ac:	0100                	addi	s0,sp,128
    10ae:	00090103          	lb	sp,0(s2)
    10b2:	0100                	addi	s0,sp,128
    10b4:	00090103          	lb	sp,0(s2)
    10b8:	0100                	addi	s0,sp,128
    10ba:	00090103          	lb	sp,0(s2)
    10be:	0100                	addi	s0,sp,128
    10c0:	00090103          	lb	sp,0(s2)
    10c4:	0100                	addi	s0,sp,128
    10c6:	00090103          	lb	sp,0(s2)
    10ca:	0100                	addi	s0,sp,128
    10cc:	00090203          	lb	tp,0(s2)
    10d0:	0100                	addi	s0,sp,128
    10d2:	00090103          	lb	sp,0(s2)
    10d6:	0100                	addi	s0,sp,128
    10d8:	00090103          	lb	sp,0(s2)
    10dc:	0100                	addi	s0,sp,128
    10de:	0105                	addi	sp,sp,1
    10e0:	0306                	slli	t1,t1,0x1
    10e2:	0299                	addi	t0,t0,6
    10e4:	0009                	c.nop	2
    10e6:	0100                	addi	s0,sp,128
    10e8:	0605                	addi	a2,a2,1
    10ea:	097de703          	0x97de703
    10ee:	0004                	0x4
    10f0:	0501                	addi	a0,a0,0
    10f2:	01030603          	lb	a2,16(t1) # ffffa010 <__C_STACK_TOP__+0xfffea010>
    10f6:	0409                	addi	s0,s0,2
    10f8:	0100                	addi	s0,sp,128
    10fa:	0605                	addi	a2,a2,1
    10fc:	0306                	slli	t1,t1,0x1
    10fe:	0900                	addi	s0,sp,144
    1100:	0000                	unimp
    1102:	0501                	addi	a0,a0,0
    1104:	25030603          	lb	a2,592(t1)
    1108:	0409                	addi	s0,s0,2
    110a:	0100                	addi	s0,sp,128
    110c:	0605                	addi	a2,a2,1
    110e:	0306                	slli	t1,t1,0x1
    1110:	0900                	addi	s0,sp,144
    1112:	0000                	unimp
    1114:	0501                	addi	a0,a0,0
    1116:	02030607          	0x2030607
    111a:	0c09                	addi	s8,s8,2
    111c:	0100                	addi	s0,sp,128
    111e:	0a05                	addi	s4,s4,1
    1120:	0306                	slli	t1,t1,0x1
    1122:	0900                	addi	s0,sp,144
    1124:	0008                	0x8
    1126:	0501                	addi	a0,a0,0
    1128:	0604                	addi	s1,sp,768
    112a:	04090403          	lb	s0,64(s2)
    112e:	0100                	addi	s0,sp,128
    1130:	00090003          	lb	zero,0(s2)
    1134:	0100                	addi	s0,sp,128
    1136:	00090003          	lb	zero,0(s2)
    113a:	0100                	addi	s0,sp,128
    113c:	00090003          	lb	zero,0(s2)
    1140:	0100                	addi	s0,sp,128
    1142:	00090003          	lb	zero,0(s2)
    1146:	0100                	addi	s0,sp,128
    1148:	14090003          	lb	zero,320(s2)
    114c:	0100                	addi	s0,sp,128
    114e:	18090003          	lb	zero,384(s2)
    1152:	0100                	addi	s0,sp,128
    1154:	00090203          	lb	tp,0(s2)
    1158:	0100                	addi	s0,sp,128
    115a:	0705                	addi	a4,a4,1
    115c:	0306                	slli	t1,t1,0x1
    115e:	0900                	addi	s0,sp,144
    1160:	0000                	unimp
    1162:	0501                	addi	a0,a0,0
    1164:	0608                	addi	a0,sp,768
    1166:	04090503          	lb	a0,64(s2)
    116a:	0100                	addi	s0,sp,128
    116c:	1105                	addi	sp,sp,-31
    116e:	0306                	slli	t1,t1,0x1
    1170:	0901                	addi	s2,s2,0
    1172:	0000                	unimp
    1174:	0501                	addi	a0,a0,0
    1176:	031e                	slli	t1,t1,0x7
    1178:	0900                	addi	s0,sp,144
    117a:	0004                	0x4
    117c:	0501                	addi	a0,a0,0
    117e:	097f030b          	0x97f030b
    1182:	0004                	0x4
    1184:	0501                	addi	a0,a0,0
    1186:	0608                	addi	a0,sp,768
    1188:	04090103          	lb	sp,64(s2)
    118c:	0100                	addi	s0,sp,128
    118e:	0b05                	addi	s6,s6,1
    1190:	0306                	slli	t1,t1,0x1
    1192:	0900                	addi	s0,sp,144
    1194:	0000                	unimp
    1196:	0501                	addi	a0,a0,0
    1198:	0608                	addi	a0,sp,768
    119a:	04090103          	lb	sp,64(s2)
    119e:	0100                	addi	s0,sp,128
    11a0:	0b05                	addi	s6,s6,1
    11a2:	0306                	slli	t1,t1,0x1
    11a4:	0900                	addi	s0,sp,144
    11a6:	0000                	unimp
    11a8:	0501                	addi	a0,a0,0
    11aa:	0604                	addi	s1,sp,768
    11ac:	04090303          	lb	t1,64(s2)
    11b0:	0100                	addi	s0,sp,128
    11b2:	00090003          	lb	zero,0(s2)
    11b6:	0100                	addi	s0,sp,128
    11b8:	00090003          	lb	zero,0(s2)
    11bc:	0100                	addi	s0,sp,128
    11be:	00090003          	lb	zero,0(s2)
    11c2:	0100                	addi	s0,sp,128
    11c4:	0805                	addi	a6,a6,1
    11c6:	00092503          	lw	a0,0(s2)
    11ca:	0100                	addi	s0,sp,128
    11cc:	0405                	addi	s0,s0,1
    11ce:	00090503          	lb	a0,0(s2)
    11d2:	0100                	addi	s0,sp,128
    11d4:	00090003          	lb	zero,0(s2)
    11d8:	0100                	addi	s0,sp,128
    11da:	00090003          	lb	zero,0(s2)
    11de:	0100                	addi	s0,sp,128
    11e0:	00090003          	lb	zero,0(s2)
    11e4:	0100                	addi	s0,sp,128
    11e6:	04090003          	lb	zero,64(s2)
    11ea:	0100                	addi	s0,sp,128
    11ec:	24090003          	lb	zero,576(s2)
    11f0:	0100                	addi	s0,sp,128
    11f2:	00090003          	lb	zero,0(s2)
    11f6:	0100                	addi	s0,sp,128
    11f8:	04090003          	lb	zero,64(s2)
    11fc:	0100                	addi	s0,sp,128
    11fe:	08090003          	lb	zero,128(s2)
    1202:	0100                	addi	s0,sp,128
    1204:	0c090003          	lb	zero,192(s2)
    1208:	0100                	addi	s0,sp,128
    120a:	04090003          	lb	zero,64(s2)
    120e:	0100                	addi	s0,sp,128
    1210:	04090003          	lb	zero,64(s2)
    1214:	0100                	addi	s0,sp,128
    1216:	04090003          	lb	zero,64(s2)
    121a:	0100                	addi	s0,sp,128
    121c:	04090003          	lb	zero,64(s2)
    1220:	0100                	addi	s0,sp,128
    1222:	04090003          	lb	zero,64(s2)
    1226:	0100                	addi	s0,sp,128
    1228:	04090003          	lb	zero,64(s2)
    122c:	0100                	addi	s0,sp,128
    122e:	10090003          	lb	zero,256(s2)
    1232:	0100                	addi	s0,sp,128
    1234:	14090003          	lb	zero,320(s2)
    1238:	0100                	addi	s0,sp,128
    123a:	10090003          	lb	zero,256(s2)
    123e:	0100                	addi	s0,sp,128
    1240:	04090003          	lb	zero,64(s2)
    1244:	0100                	addi	s0,sp,128
    1246:	04090003          	lb	zero,64(s2)
    124a:	0100                	addi	s0,sp,128
    124c:	04090003          	lb	zero,64(s2)
    1250:	0100                	addi	s0,sp,128
    1252:	04090003          	lb	zero,64(s2)
    1256:	0100                	addi	s0,sp,128
    1258:	04090003          	lb	zero,64(s2)
    125c:	0100                	addi	s0,sp,128
    125e:	04090003          	lb	zero,64(s2)
    1262:	0100                	addi	s0,sp,128
    1264:	04090003          	lb	zero,64(s2)
    1268:	0100                	addi	s0,sp,128
    126a:	00090003          	lb	zero,0(s2)
    126e:	0100                	addi	s0,sp,128
    1270:	00090003          	lb	zero,0(s2)
    1274:	0100                	addi	s0,sp,128
    1276:	0705                	addi	a4,a4,1
    1278:	00090503          	lb	a0,0(s2)
    127c:	0100                	addi	s0,sp,128
    127e:	0405                	addi	s0,s0,1
    1280:	00090203          	lb	tp,0(s2)
    1284:	0100                	addi	s0,sp,128
    1286:	1205                	addi	tp,tp,-31
    1288:	0306                	slli	t1,t1,0x1
    128a:	0900                	addi	s0,sp,144
    128c:	0000                	unimp
    128e:	0501                	addi	a0,a0,0
    1290:	0604                	addi	s1,sp,768
    1292:	04090103          	lb	sp,64(s2)
    1296:	0100                	addi	s0,sp,128
    1298:	00090103          	lb	sp,0(s2)
    129c:	0100                	addi	s0,sp,128
    129e:	0c05                	addi	s8,s8,1
    12a0:	0306                	slli	t1,t1,0x1
    12a2:	0900                	addi	s0,sp,144
    12a4:	0000                	unimp
    12a6:	0501                	addi	a0,a0,0
    12a8:	da030603          	lb	a2,-608(t1)
    12ac:	0900                	addi	s0,sp,144
    12ae:	0004                	0x4
    12b0:	0301                	addi	t1,t1,0
    12b2:	0901                	addi	s2,s2,0
    12b4:	0000                	unimp
    12b6:	0301                	addi	t1,t1,0
    12b8:	00d8                	addi	a4,sp,68
    12ba:	0009                	c.nop	2
    12bc:	0100                	addi	s0,sp,128
    12be:	0105                	addi	sp,sp,1
    12c0:	0306                	slli	t1,t1,0x1
    12c2:	0901                	addi	s2,s2,0
    12c4:	0000                	unimp
    12c6:	0501                	addi	a0,a0,0
    12c8:	0304                	addi	s1,sp,384
    12ca:	7e8d                	lui	t4,0xfffe3
    12cc:	3809                	jal	ade <vprintfmt.constprop.0+0x638>
    12ce:	0100                	addi	s0,sp,128
    12d0:	0306                	slli	t1,t1,0x1
    12d2:	0915                	addi	s2,s2,5
    12d4:	0014                	0x14
    12d6:	0501                	addi	a0,a0,0
    12d8:	00030607          	0x30607
    12dc:	0009                	c.nop	2
    12de:	0100                	addi	s0,sp,128
    12e0:	0605                	addi	a2,a2,1
    12e2:	0306                	slli	t1,t1,0x1
    12e4:	0901                	addi	s2,s2,0
    12e6:	0004                	0x4
    12e8:	0501                	addi	a0,a0,0
    12ea:	0609                	addi	a2,a2,2
    12ec:	00090003          	lb	zero,0(s2)
    12f0:	0100                	addi	s0,sp,128
    12f2:	0405                	addi	s0,s0,1
    12f4:	0306                	slli	t1,t1,0x1
    12f6:	0902                	c.slli64	s2
    12f8:	0010                	0x10
    12fa:	0301                	addi	t1,t1,0
    12fc:	0900                	addi	s0,sp,144
    12fe:	0000                	unimp
    1300:	0301                	addi	t1,t1,0
    1302:	0900                	addi	s0,sp,144
    1304:	0000                	unimp
    1306:	0301                	addi	t1,t1,0
    1308:	0900                	addi	s0,sp,144
    130a:	0000                	unimp
    130c:	0301                	addi	t1,t1,0
    130e:	0900                	addi	s0,sp,144
    1310:	0000                	unimp
    1312:	0301                	addi	t1,t1,0
    1314:	0900                	addi	s0,sp,144
    1316:	0014                	0x14
    1318:	0501                	addi	a0,a0,0
    131a:	0b03060b          	0xb03060b
    131e:	1009                	c.nop	-30
    1320:	0100                	addi	s0,sp,128
    1322:	0405                	addi	s0,s0,1
    1324:	04097503          	0x4097503
    1328:	0100                	addi	s0,sp,128
    132a:	0306                	slli	t1,t1,0x1
    132c:	0900                	addi	s0,sp,144
    132e:	0008                	0x8
    1330:	0301                	addi	t1,t1,0
    1332:	0902                	c.slli64	s2
    1334:	0000                	unimp
    1336:	0501                	addi	a0,a0,0
    1338:	00030607          	0x30607
    133c:	0009                	c.nop	2
    133e:	0100                	addi	s0,sp,128
    1340:	0805                	addi	a6,a6,1
    1342:	0306                	slli	t1,t1,0x1
    1344:	0910                	addi	a2,sp,144
    1346:	0004                	0x4
    1348:	0301                	addi	t1,t1,0
    134a:	0902                	c.slli64	s2
    134c:	0000                	unimp
    134e:	0501                	addi	a0,a0,0
    1350:	0003060b          	0x3060b
    1354:	0009                	c.nop	2
    1356:	0100                	addi	s0,sp,128
    1358:	0805                	addi	a6,a6,1
    135a:	0306                	slli	t1,t1,0x1
    135c:	0901                	addi	s2,s2,0
    135e:	0004                	0x4
    1360:	0501                	addi	a0,a0,0
    1362:	0003060b          	0x3060b
    1366:	0009                	c.nop	2
    1368:	0100                	addi	s0,sp,128
    136a:	0805                	addi	a6,a6,1
    136c:	0306                	slli	t1,t1,0x1
    136e:	0901                	addi	s2,s2,0
    1370:	0004                	0x4
    1372:	0501                	addi	a0,a0,0
    1374:	0611                	addi	a2,a2,4
    1376:	00090003          	lb	zero,0(s2)
    137a:	0100                	addi	s0,sp,128
    137c:	1e05                	addi	t3,t3,-31
    137e:	04090003          	lb	zero,64(s2)
    1382:	0100                	addi	s0,sp,128
    1384:	0805                	addi	a6,a6,1
    1386:	04090303          	lb	t1,64(s2)
    138a:	0100                	addi	s0,sp,128
    138c:	0b05                	addi	s6,s6,1
    138e:	04097d03          	0x4097d03
    1392:	0100                	addi	s0,sp,128
    1394:	0805                	addi	a6,a6,1
    1396:	0306                	slli	t1,t1,0x1
    1398:	0901                	addi	s2,s2,0
    139a:	0004                	0x4
    139c:	0601                	addi	a2,a2,0
    139e:	00090203          	lb	tp,0(s2)
    13a2:	0100                	addi	s0,sp,128
    13a4:	0b05                	addi	s6,s6,1
    13a6:	10097e03          	0x10097e03
    13aa:	0100                	addi	s0,sp,128
    13ac:	0805                	addi	a6,a6,1
    13ae:	0306                	slli	t1,t1,0x1
    13b0:	0902                	c.slli64	s2
    13b2:	0004                	0x4
    13b4:	0301                	addi	t1,t1,0
    13b6:	0900                	addi	s0,sp,144
    13b8:	0000                	unimp
    13ba:	0301                	addi	t1,t1,0
    13bc:	0900                	addi	s0,sp,144
    13be:	0000                	unimp
    13c0:	0301                	addi	t1,t1,0
    13c2:	0900                	addi	s0,sp,144
    13c4:	0000                	unimp
    13c6:	0301                	addi	t1,t1,0
    13c8:	0900                	addi	s0,sp,144
    13ca:	0000                	unimp
    13cc:	0301                	addi	t1,t1,0
    13ce:	0900                	addi	s0,sp,144
    13d0:	0014                	0x14
    13d2:	0301                	addi	t1,t1,0
    13d4:	0900                	addi	s0,sp,144
    13d6:	0000                	unimp
    13d8:	0301                	addi	t1,t1,0
    13da:	0900                	addi	s0,sp,144
    13dc:	0004                	0x4
    13de:	0301                	addi	t1,t1,0
    13e0:	0900                	addi	s0,sp,144
    13e2:	0008                	0x8
    13e4:	0301                	addi	t1,t1,0
    13e6:	0900                	addi	s0,sp,144
    13e8:	000c                	0xc
    13ea:	0301                	addi	t1,t1,0
    13ec:	0900                	addi	s0,sp,144
    13ee:	0004                	0x4
    13f0:	0301                	addi	t1,t1,0
    13f2:	0900                	addi	s0,sp,144
    13f4:	0004                	0x4
    13f6:	0301                	addi	t1,t1,0
    13f8:	0900                	addi	s0,sp,144
    13fa:	0004                	0x4
    13fc:	0301                	addi	t1,t1,0
    13fe:	0900                	addi	s0,sp,144
    1400:	0004                	0x4
    1402:	0301                	addi	t1,t1,0
    1404:	0900                	addi	s0,sp,144
    1406:	0004                	0x4
    1408:	0301                	addi	t1,t1,0
    140a:	0900                	addi	s0,sp,144
    140c:	0004                	0x4
    140e:	0301                	addi	t1,t1,0
    1410:	0900                	addi	s0,sp,144
    1412:	0010                	0x10
    1414:	0301                	addi	t1,t1,0
    1416:	0900                	addi	s0,sp,144
    1418:	0010                	0x10
    141a:	0301                	addi	t1,t1,0
    141c:	0900                	addi	s0,sp,144
    141e:	0008                	0x8
    1420:	0301                	addi	t1,t1,0
    1422:	0900                	addi	s0,sp,144
    1424:	0010                	0x10
    1426:	0301                	addi	t1,t1,0
    1428:	0900                	addi	s0,sp,144
    142a:	0004                	0x4
    142c:	0301                	addi	t1,t1,0
    142e:	0900                	addi	s0,sp,144
    1430:	0004                	0x4
    1432:	0301                	addi	t1,t1,0
    1434:	0900                	addi	s0,sp,144
    1436:	0004                	0x4
    1438:	0301                	addi	t1,t1,0
    143a:	0900                	addi	s0,sp,144
    143c:	0004                	0x4
    143e:	0301                	addi	t1,t1,0
    1440:	0900                	addi	s0,sp,144
    1442:	0004                	0x4
    1444:	0301                	addi	t1,t1,0
    1446:	0900                	addi	s0,sp,144
    1448:	0004                	0x4
    144a:	0301                	addi	t1,t1,0
    144c:	0900                	addi	s0,sp,144
    144e:	0000                	unimp
    1450:	0501                	addi	a0,a0,0
    1452:	0604                	addi	s1,sp,768
    1454:	04096703          	0x4096703
    1458:	0100                	addi	s0,sp,128
    145a:	0705                	addi	a4,a4,1
    145c:	0306                	slli	t1,t1,0x1
    145e:	092e                	slli	s2,s2,0xb
    1460:	0014                	0x14
    1462:	0501                	addi	a0,a0,0
    1464:	060a                	slli	a2,a2,0x2
    1466:	00090003          	lb	zero,0(s2)
    146a:	0100                	addi	s0,sp,128
    146c:	0405                	addi	s0,s0,1
    146e:	0306                	slli	t1,t1,0x1
    1470:	00040913          	mv	s2,s0
    1474:	0301                	addi	t1,t1,0
    1476:	0900                	addi	s0,sp,144
    1478:	0000                	unimp
    147a:	0301                	addi	t1,t1,0
    147c:	0900                	addi	s0,sp,144
    147e:	0000                	unimp
    1480:	0301                	addi	t1,t1,0
    1482:	0900                	addi	s0,sp,144
    1484:	0000                	unimp
    1486:	0301                	addi	t1,t1,0
    1488:	0900                	addi	s0,sp,144
    148a:	0000                	unimp
    148c:	0301                	addi	t1,t1,0
    148e:	0900                	addi	s0,sp,144
    1490:	0014                	0x14
    1492:	0301                	addi	t1,t1,0
    1494:	0900                	addi	s0,sp,144
    1496:	0020                	addi	s0,sp,8
    1498:	0301                	addi	t1,t1,0
    149a:	0901                	addi	s2,s2,0
    149c:	0000                	unimp
    149e:	0501                	addi	a0,a0,0
    14a0:	00030607          	0x30607
    14a4:	0009                	c.nop	2
    14a6:	0100                	addi	s0,sp,128
    14a8:	0805                	addi	a6,a6,1
    14aa:	0306                	slli	t1,t1,0x1
    14ac:	090a                	slli	s2,s2,0x2
    14ae:	0004                	0x4
    14b0:	0501                	addi	a0,a0,0
    14b2:	0003060b          	0x3060b
    14b6:	0009                	c.nop	2
    14b8:	0100                	addi	s0,sp,128
    14ba:	1405                	addi	s0,s0,-31
    14bc:	04090003          	lb	zero,64(s2)
    14c0:	0100                	addi	s0,sp,128
    14c2:	0505                	addi	a0,a0,1
    14c4:	0306                	slli	t1,t1,0x1
    14c6:	0902                	c.slli64	s2
    14c8:	0004                	0x4
    14ca:	0301                	addi	t1,t1,0
    14cc:	0901                	addi	s2,s2,0
    14ce:	0000                	unimp
    14d0:	0301                	addi	t1,t1,0
    14d2:	0900                	addi	s0,sp,144
    14d4:	0000                	unimp
    14d6:	0301                	addi	t1,t1,0
    14d8:	0900                	addi	s0,sp,144
    14da:	0000                	unimp
    14dc:	0301                	addi	t1,t1,0
    14de:	0900                	addi	s0,sp,144
    14e0:	0004                	0x4
    14e2:	0301                	addi	t1,t1,0
    14e4:	0900                	addi	s0,sp,144
    14e6:	000c                	0xc
    14e8:	0301                	addi	t1,t1,0
    14ea:	0900                	addi	s0,sp,144
    14ec:	0000                	unimp
    14ee:	0501                	addi	a0,a0,0
    14f0:	0308                	addi	a0,sp,384
    14f2:	0905                	addi	s2,s2,1
    14f4:	0000                	unimp
    14f6:	0301                	addi	t1,t1,0
    14f8:	0902                	c.slli64	s2
    14fa:	0000                	unimp
    14fc:	0501                	addi	a0,a0,0
    14fe:	0305                	addi	t1,t1,1
    1500:	0902                	c.slli64	s2
    1502:	0000                	unimp
    1504:	0301                	addi	t1,t1,0
    1506:	0901                	addi	s2,s2,0
    1508:	0000                	unimp
    150a:	0301                	addi	t1,t1,0
    150c:	0901                	addi	s2,s2,0
    150e:	0000                	unimp
    1510:	0501                	addi	a0,a0,0
    1512:	060d                	addi	a2,a2,3
    1514:	00090003          	lb	zero,0(s2)
    1518:	0100                	addi	s0,sp,128
    151a:	0405                	addi	s0,s0,1
    151c:	0c096703          	0xc096703
    1520:	0100                	addi	s0,sp,128
    1522:	0805                	addi	a6,a6,1
    1524:	0306                	slli	t1,t1,0x1
    1526:	091e                	slli	s2,s2,0x7
    1528:	0014                	0x14
    152a:	0301                	addi	t1,t1,0
    152c:	00000903          	lb	s2,0(zero) # 0 <buf.1>
    1530:	0301                	addi	t1,t1,0
    1532:	0902                	c.slli64	s2
    1534:	0000                	unimp
    1536:	0501                	addi	a0,a0,0
    1538:	0611                	addi	a2,a2,4
    153a:	00090003          	lb	zero,0(s2)
    153e:	0100                	addi	s0,sp,128
    1540:	1e05                	addi	t3,t3,-31
    1542:	04090003          	lb	zero,64(s2)
    1546:	0100                	addi	s0,sp,128
    1548:	0b05                	addi	s6,s6,1
    154a:	04090003          	lb	zero,64(s2)
    154e:	0100                	addi	s0,sp,128
    1550:	0805                	addi	a6,a6,1
    1552:	0306                	slli	t1,t1,0x1
    1554:	0901                	addi	s2,s2,0
    1556:	0004                	0x4
    1558:	0501                	addi	a0,a0,0
    155a:	0103060b          	0x103060b
    155e:	0009                	c.nop	2
    1560:	0100                	addi	s0,sp,128
    1562:	1105                	addi	sp,sp,-31
    1564:	04090103          	lb	sp,64(s2)
    1568:	0100                	addi	s0,sp,128
    156a:	1e05                	addi	t3,t3,-31
    156c:	04090003          	lb	zero,64(s2)
    1570:	0100                	addi	s0,sp,128
    1572:	0805                	addi	a6,a6,1
    1574:	04090303          	lb	t1,64(s2)
    1578:	0100                	addi	s0,sp,128
    157a:	0b05                	addi	s6,s6,1
    157c:	04097d03          	0x4097d03
    1580:	0100                	addi	s0,sp,128
    1582:	0805                	addi	a6,a6,1
    1584:	04090303          	lb	t1,64(s2)
    1588:	0100                	addi	s0,sp,128
    158a:	0b05                	addi	s6,s6,1
    158c:	08097b03          	0x8097b03
    1590:	0100                	addi	s0,sp,128
    1592:	0805                	addi	a6,a6,1
    1594:	0306                	slli	t1,t1,0x1
    1596:	0901                	addi	s2,s2,0
    1598:	0004                	0x4
    159a:	0301                	addi	t1,t1,0
    159c:	0901                	addi	s2,s2,0
    159e:	0000                	unimp
    15a0:	0301                	addi	t1,t1,0
    15a2:	0901                	addi	s2,s2,0
    15a4:	0000                	unimp
    15a6:	0601                	addi	a2,a2,0
    15a8:	00090203          	lb	tp,0(s2)
    15ac:	0100                	addi	s0,sp,128
    15ae:	0b05                	addi	s6,s6,1
    15b0:	20097e03          	0x20097e03
    15b4:	0100                	addi	s0,sp,128
    15b6:	0805                	addi	a6,a6,1
    15b8:	0306                	slli	t1,t1,0x1
    15ba:	0902                	c.slli64	s2
    15bc:	0004                	0x4
    15be:	0301                	addi	t1,t1,0
    15c0:	0900                	addi	s0,sp,144
    15c2:	0000                	unimp
    15c4:	0301                	addi	t1,t1,0
    15c6:	0900                	addi	s0,sp,144
    15c8:	0000                	unimp
    15ca:	0301                	addi	t1,t1,0
    15cc:	0900                	addi	s0,sp,144
    15ce:	0000                	unimp
    15d0:	0301                	addi	t1,t1,0
    15d2:	0900                	addi	s0,sp,144
    15d4:	0000                	unimp
    15d6:	0301                	addi	t1,t1,0
    15d8:	0900                	addi	s0,sp,144
    15da:	0000                	unimp
    15dc:	0301                	addi	t1,t1,0
    15de:	0900                	addi	s0,sp,144
    15e0:	0000                	unimp
    15e2:	0301                	addi	t1,t1,0
    15e4:	0900                	addi	s0,sp,144
    15e6:	0004                	0x4
    15e8:	0301                	addi	t1,t1,0
    15ea:	0900                	addi	s0,sp,144
    15ec:	0008                	0x8
    15ee:	0301                	addi	t1,t1,0
    15f0:	0900                	addi	s0,sp,144
    15f2:	000c                	0xc
    15f4:	0301                	addi	t1,t1,0
    15f6:	0900                	addi	s0,sp,144
    15f8:	0008                	0x8
    15fa:	0301                	addi	t1,t1,0
    15fc:	0900                	addi	s0,sp,144
    15fe:	0008                	0x8
    1600:	0301                	addi	t1,t1,0
    1602:	0900                	addi	s0,sp,144
    1604:	0004                	0x4
    1606:	0301                	addi	t1,t1,0
    1608:	0900                	addi	s0,sp,144
    160a:	0004                	0x4
    160c:	0301                	addi	t1,t1,0
    160e:	0900                	addi	s0,sp,144
    1610:	0008                	0x8
    1612:	0301                	addi	t1,t1,0
    1614:	0900                	addi	s0,sp,144
    1616:	0004                	0x4
    1618:	0301                	addi	t1,t1,0
    161a:	0900                	addi	s0,sp,144
    161c:	0010                	0x10
    161e:	0301                	addi	t1,t1,0
    1620:	0900                	addi	s0,sp,144
    1622:	0010                	0x10
    1624:	0301                	addi	t1,t1,0
    1626:	0900                	addi	s0,sp,144
    1628:	000c                	0xc
    162a:	0301                	addi	t1,t1,0
    162c:	0900                	addi	s0,sp,144
    162e:	0010                	0x10
    1630:	0301                	addi	t1,t1,0
    1632:	0900                	addi	s0,sp,144
    1634:	0008                	0x8
    1636:	0301                	addi	t1,t1,0
    1638:	0900                	addi	s0,sp,144
    163a:	0008                	0x8
    163c:	0301                	addi	t1,t1,0
    163e:	0900                	addi	s0,sp,144
    1640:	0004                	0x4
    1642:	0301                	addi	t1,t1,0
    1644:	0900                	addi	s0,sp,144
    1646:	0004                	0x4
    1648:	0301                	addi	t1,t1,0
    164a:	0900                	addi	s0,sp,144
    164c:	0008                	0x8
    164e:	0601                	addi	a2,a2,0
    1650:	00090103          	lb	sp,0(s2)
    1654:	0100                	addi	s0,sp,128
    1656:	04097f03          	0x4097f03
    165a:	0100                	addi	s0,sp,128
    165c:	08090103          	lb	sp,128(s2)
    1660:	0100                	addi	s0,sp,128
    1662:	0c097f03          	0xc097f03
    1666:	0100                	addi	s0,sp,128
    1668:	0306                	slli	t1,t1,0x1
    166a:	0900                	addi	s0,sp,144
    166c:	0004                	0x4
    166e:	0301                	addi	t1,t1,0
    1670:	0900                	addi	s0,sp,144
    1672:	0000                	unimp
    1674:	0301                	addi	t1,t1,0
    1676:	0900                	addi	s0,sp,144
    1678:	0000                	unimp
    167a:	0301                	addi	t1,t1,0
    167c:	0901                	addi	s2,s2,0
    167e:	0000                	unimp
    1680:	0301                	addi	t1,t1,0
    1682:	0900                	addi	s0,sp,144
    1684:	0000                	unimp
    1686:	0301                	addi	t1,t1,0
    1688:	0900                	addi	s0,sp,144
    168a:	0000                	unimp
    168c:	0301                	addi	t1,t1,0
    168e:	0900                	addi	s0,sp,144
    1690:	0000                	unimp
    1692:	0301                	addi	t1,t1,0
    1694:	0900                	addi	s0,sp,144
    1696:	0000                	unimp
    1698:	0301                	addi	t1,t1,0
    169a:	0900                	addi	s0,sp,144
    169c:	0004                	0x4
    169e:	0301                	addi	t1,t1,0
    16a0:	0900                	addi	s0,sp,144
    16a2:	0000                	unimp
    16a4:	0301                	addi	t1,t1,0
    16a6:	0900                	addi	s0,sp,144
    16a8:	0004                	0x4
    16aa:	0301                	addi	t1,t1,0
    16ac:	0900                	addi	s0,sp,144
    16ae:	0000                	unimp
    16b0:	0301                	addi	t1,t1,0
    16b2:	0900                	addi	s0,sp,144
    16b4:	0004                	0x4
    16b6:	0301                	addi	t1,t1,0
    16b8:	0900                	addi	s0,sp,144
    16ba:	0004                	0x4
    16bc:	0301                	addi	t1,t1,0
    16be:	0900                	addi	s0,sp,144
    16c0:	0004                	0x4
    16c2:	0301                	addi	t1,t1,0
    16c4:	0900                	addi	s0,sp,144
    16c6:	0004                	0x4
    16c8:	0301                	addi	t1,t1,0
    16ca:	0900                	addi	s0,sp,144
    16cc:	0000                	unimp
    16ce:	0301                	addi	t1,t1,0
    16d0:	0900                	addi	s0,sp,144
    16d2:	0008                	0x8
    16d4:	0301                	addi	t1,t1,0
    16d6:	0900                	addi	s0,sp,144
    16d8:	0000                	unimp
    16da:	0301                	addi	t1,t1,0
    16dc:	0900                	addi	s0,sp,144
    16de:	0004                	0x4
    16e0:	0301                	addi	t1,t1,0
    16e2:	0900                	addi	s0,sp,144
    16e4:	0004                	0x4
    16e6:	0301                	addi	t1,t1,0
    16e8:	0900                	addi	s0,sp,144
    16ea:	0000                	unimp
    16ec:	0301                	addi	t1,t1,0
    16ee:	0900                	addi	s0,sp,144
    16f0:	0008                	0x8
    16f2:	0301                	addi	t1,t1,0
    16f4:	0900                	addi	s0,sp,144
    16f6:	0000                	unimp
    16f8:	0301                	addi	t1,t1,0
    16fa:	0900                	addi	s0,sp,144
    16fc:	0004                	0x4
    16fe:	0301                	addi	t1,t1,0
    1700:	0900                	addi	s0,sp,144
    1702:	0004                	0x4
    1704:	0301                	addi	t1,t1,0
    1706:	0900                	addi	s0,sp,144
    1708:	0000                	unimp
    170a:	0301                	addi	t1,t1,0
    170c:	0900                	addi	s0,sp,144
    170e:	0008                	0x8
    1710:	0301                	addi	t1,t1,0
    1712:	0900                	addi	s0,sp,144
    1714:	0000                	unimp
    1716:	0301                	addi	t1,t1,0
    1718:	0900                	addi	s0,sp,144
    171a:	0004                	0x4
    171c:	0301                	addi	t1,t1,0
    171e:	0900                	addi	s0,sp,144
    1720:	0000                	unimp
    1722:	0301                	addi	t1,t1,0
    1724:	0900                	addi	s0,sp,144
    1726:	0000                	unimp
    1728:	0301                	addi	t1,t1,0
    172a:	0900                	addi	s0,sp,144
    172c:	000c                	0xc
    172e:	0301                	addi	t1,t1,0
    1730:	0900                	addi	s0,sp,144
    1732:	0004                	0x4
    1734:	0301                	addi	t1,t1,0
    1736:	0900                	addi	s0,sp,144
    1738:	0004                	0x4
    173a:	0301                	addi	t1,t1,0
    173c:	0900                	addi	s0,sp,144
    173e:	0008                	0x8
    1740:	0301                	addi	t1,t1,0
    1742:	0900                	addi	s0,sp,144
    1744:	0018                	0x18
    1746:	0301                	addi	t1,t1,0
    1748:	0902                	c.slli64	s2
    174a:	0000                	unimp
    174c:	0501                	addi	a0,a0,0
    174e:	0003060b          	0x3060b
    1752:	0009                	c.nop	2
    1754:	0100                	addi	s0,sp,128
    1756:	1405                	addi	s0,s0,-31
    1758:	04090003          	lb	zero,64(s2)
    175c:	0100                	addi	s0,sp,128
    175e:	2105                	jal	1b7e <__udivdi3+0x5a>
    1760:	04090003          	lb	zero,64(s2)
    1764:	0100                	addi	s0,sp,128
    1766:	0505                	addi	a0,a0,1
    1768:	0306                	slli	t1,t1,0x1
    176a:	0902                	c.slli64	s2
    176c:	0004                	0x4
    176e:	0301                	addi	t1,t1,0
    1770:	0901                	addi	s2,s2,0
    1772:	0000                	unimp
    1774:	0301                	addi	t1,t1,0
    1776:	0900                	addi	s0,sp,144
    1778:	0000                	unimp
    177a:	0301                	addi	t1,t1,0
    177c:	0900                	addi	s0,sp,144
    177e:	0000                	unimp
    1780:	0301                	addi	t1,t1,0
    1782:	0900                	addi	s0,sp,144
    1784:	0004                	0x4
    1786:	0301                	addi	t1,t1,0
    1788:	0900                	addi	s0,sp,144
    178a:	000c                	0xc
    178c:	0301                	addi	t1,t1,0
    178e:	0900                	addi	s0,sp,144
    1790:	0004                	0x4
    1792:	0501                	addi	a0,a0,0
    1794:	0308                	addi	a0,sp,384
    1796:	00000903          	lb	s2,0(zero) # 0 <buf.1>
    179a:	0301                	addi	t1,t1,0
    179c:	00000903          	lb	s2,0(zero) # 0 <buf.1>
    17a0:	0501                	addi	a0,a0,0
    17a2:	0305                	addi	t1,t1,1
    17a4:	0902                	c.slli64	s2
    17a6:	0000                	unimp
    17a8:	0301                	addi	t1,t1,0
    17aa:	0900                	addi	s0,sp,144
    17ac:	0000                	unimp
    17ae:	0301                	addi	t1,t1,0
    17b0:	0900                	addi	s0,sp,144
    17b2:	0000                	unimp
    17b4:	0301                	addi	t1,t1,0
    17b6:	0900                	addi	s0,sp,144
    17b8:	0004                	0x4
    17ba:	0301                	addi	t1,t1,0
    17bc:	0900                	addi	s0,sp,144
    17be:	000c                	0xc
    17c0:	0301                	addi	t1,t1,0
    17c2:	0900                	addi	s0,sp,144
    17c4:	0000                	unimp
    17c6:	0301                	addi	t1,t1,0
    17c8:	0901                	addi	s2,s2,0
    17ca:	0000                	unimp
    17cc:	0501                	addi	a0,a0,0
    17ce:	0614                	addi	a3,sp,768
    17d0:	00090003          	lb	zero,0(s2)
    17d4:	0100                	addi	s0,sp,128
    17d6:	2005                	jal	17f6 <__moddi3+0x21a>
    17d8:	04090003          	lb	zero,64(s2)
    17dc:	0100                	addi	s0,sp,128
    17de:	0505                	addi	a0,a0,1
    17e0:	0306                	slli	t1,t1,0x1
    17e2:	0901                	addi	s2,s2,0
    17e4:	0004                	0x4
    17e6:	0301                	addi	t1,t1,0
    17e8:	0901                	addi	s2,s2,0
    17ea:	0000                	unimp
    17ec:	0501                	addi	a0,a0,0
    17ee:	060d                	addi	a2,a2,3
    17f0:	00090003          	lb	zero,0(s2)
    17f4:	0100                	addi	s0,sp,128
    17f6:	0c09                	addi	s8,s8,2
    17f8:	0000                	unimp
    17fa:	0101                	addi	sp,sp,0
    17fc:	0094                	addi	a3,sp,64
    17fe:	0000                	unimp
    1800:	004e0003          	lb	zero,4(t3) # fffe9004 <__C_STACK_TOP__+0xfffd9004>
    1804:	0000                	unimp
    1806:	0101                	addi	sp,sp,0
    1808:	000d0efb          	0xd0efb
    180c:	0101                	addi	sp,sp,0
    180e:	0101                	addi	sp,sp,0
    1810:	0000                	unimp
    1812:	0100                	addi	s0,sp,128
    1814:	0000                	unimp
    1816:	2e01                	jal	1b26 <__udivdi3+0x2>
    1818:	2f2e                	fld	ft10,200(sp)
    181a:	2e2e                	fld	ft8,200(sp)
    181c:	2f2e2e2f          	0x2f2e2e2f
    1820:	2e2e                	fld	ft8,200(sp)
    1822:	2f2e2e2f          	0x2f2e2e2f
    1826:	2f2e                	fld	ft10,200(sp)
    1828:	6972                	flw	fs2,28(sp)
    182a:	2d766373          	csrrsi	t1,0x2d7,12
    182e:	2f636367          	0x2f636367
    1832:	696c                	flw	fa1,84(a0)
    1834:	6762                	flw	fa4,24(sp)
    1836:	632f6363          	bltu	t5,s2,1e5c <__udivdi3+0x338>
    183a:	69666e6f          	jal	t3,67ed0 <__C_STACK_TOP__+0x57ed0>
    183e:	69722f67          	0x69722f67
    1842:	00766373          	csrrsi	t1,0x7,12
    1846:	6d00                	flw	fs0,24(a0)
    1848:	6c75                	lui	s8,0x1d
    184a:	6964                	flw	fs1,84(a0)
    184c:	00532e33          	slt	t3,t1,t0
    1850:	0001                	nop
    1852:	0000                	unimp
    1854:	0500                	addi	s0,sp,640
    1856:	ec02                	fsw	ft0,24(sp)
    1858:	0025                	c.nop	9
    185a:	0300                	addi	s0,sp,384
    185c:	0124                	addi	s1,sp,136
    185e:	04090103          	lb	sp,64(s2)
    1862:	0100                	addi	s0,sp,128
    1864:	04090203          	lb	tp,64(s2)
    1868:	0100                	addi	s0,sp,128
    186a:	04090103          	lb	sp,64(s2)
    186e:	0100                	addi	s0,sp,128
    1870:	04090103          	lb	sp,64(s2)
    1874:	0100                	addi	s0,sp,128
    1876:	04090203          	lb	tp,64(s2)
    187a:	0100                	addi	s0,sp,128
    187c:	04090103          	lb	sp,64(s2)
    1880:	0100                	addi	s0,sp,128
    1882:	04090103          	lb	sp,64(s2)
    1886:	0100                	addi	s0,sp,128
    1888:	04090103          	lb	sp,64(s2)
    188c:	0100                	addi	s0,sp,128
    188e:	0409                	addi	s0,s0,2
    1890:	0000                	unimp
    1892:	0101                	addi	sp,sp,0
    1894:	016a                	slli	sp,sp,0x1a
    1896:	0000                	unimp
    1898:	004b0003          	lb	zero,4(s6)
    189c:	0000                	unimp
    189e:	0101                	addi	sp,sp,0
    18a0:	000d0efb          	0xd0efb
    18a4:	0101                	addi	sp,sp,0
    18a6:	0101                	addi	sp,sp,0
    18a8:	0000                	unimp
    18aa:	0100                	addi	s0,sp,128
    18ac:	0000                	unimp
    18ae:	2e01                	jal	1bbe <__udivdi3+0x9a>
    18b0:	2f2e                	fld	ft10,200(sp)
    18b2:	2e2e                	fld	ft8,200(sp)
    18b4:	2f2e2e2f          	0x2f2e2e2f
    18b8:	2e2e                	fld	ft8,200(sp)
    18ba:	2f2e2e2f          	0x2f2e2e2f
    18be:	2f2e                	fld	ft10,200(sp)
    18c0:	6972                	flw	fs2,28(sp)
    18c2:	2d766373          	csrrsi	t1,0x2d7,12
    18c6:	2f636367          	0x2f636367
    18ca:	696c                	flw	fa1,84(a0)
    18cc:	6762                	flw	fa4,24(sp)
    18ce:	632f6363          	bltu	t5,s2,1ef4 <__udivdi3+0x3d0>
    18d2:	69666e6f          	jal	t3,67f68 <__C_STACK_TOP__+0x57f68>
    18d6:	69722f67          	0x69722f67
    18da:	00766373          	csrrsi	t1,0x7,12
    18de:	6400                	flw	fs0,8(s0)
    18e0:	7669                	lui	a2,0xffffa
    18e2:	532e                	lw	t1,232(sp)
    18e4:	0100                	addi	s0,sp,128
    18e6:	0000                	unimp
    18e8:	0000                	unimp
    18ea:	0205                	addi	tp,tp,1
    18ec:	2610                	fld	fa2,8(a2)
    18ee:	0000                	unimp
    18f0:	0100c403          	lbu	s0,16(ra)
    18f4:	04090103          	lb	sp,64(s2)
    18f8:	0100                	addi	s0,sp,128
    18fa:	04090403          	lb	s0,64(s2)
    18fe:	0100                	addi	s0,sp,128
    1900:	04090103          	lb	sp,64(s2)
    1904:	0100                	addi	s0,sp,128
    1906:	04090103          	lb	sp,64(s2)
    190a:	0100                	addi	s0,sp,128
    190c:	04090103          	lb	sp,64(s2)
    1910:	0100                	addi	s0,sp,128
    1912:	04090103          	lb	sp,64(s2)
    1916:	0100                	addi	s0,sp,128
    1918:	04090103          	lb	sp,64(s2)
    191c:	0100                	addi	s0,sp,128
    191e:	04090203          	lb	tp,64(s2)
    1922:	0100                	addi	s0,sp,128
    1924:	04090103          	lb	sp,64(s2)
    1928:	0100                	addi	s0,sp,128
    192a:	04090103          	lb	sp,64(s2)
    192e:	0100                	addi	s0,sp,128
    1930:	04090103          	lb	sp,64(s2)
    1934:	0100                	addi	s0,sp,128
    1936:	04090203          	lb	tp,64(s2)
    193a:	0100                	addi	s0,sp,128
    193c:	04090203          	lb	tp,64(s2)
    1940:	0100                	addi	s0,sp,128
    1942:	04090103          	lb	sp,64(s2)
    1946:	0100                	addi	s0,sp,128
    1948:	04090103          	lb	sp,64(s2)
    194c:	0100                	addi	s0,sp,128
    194e:	04090203          	lb	tp,64(s2)
    1952:	0100                	addi	s0,sp,128
    1954:	04090103          	lb	sp,64(s2)
    1958:	0100                	addi	s0,sp,128
    195a:	04090103          	lb	sp,64(s2)
    195e:	0100                	addi	s0,sp,128
    1960:	04090203          	lb	tp,64(s2)
    1964:	0100                	addi	s0,sp,128
    1966:	04090503          	lb	a0,64(s2)
    196a:	0100                	addi	s0,sp,128
    196c:	04090103          	lb	sp,64(s2)
    1970:	0100                	addi	s0,sp,128
    1972:	04090103          	lb	sp,64(s2)
    1976:	0100                	addi	s0,sp,128
    1978:	04090103          	lb	sp,64(s2)
    197c:	0100                	addi	s0,sp,128
    197e:	04090503          	lb	a0,64(s2)
    1982:	0100                	addi	s0,sp,128
    1984:	04090203          	lb	tp,64(s2)
    1988:	0100                	addi	s0,sp,128
    198a:	04090203          	lb	tp,64(s2)
    198e:	0100                	addi	s0,sp,128
    1990:	04090103          	lb	sp,64(s2)
    1994:	0100                	addi	s0,sp,128
    1996:	04090203          	lb	tp,64(s2)
    199a:	0100                	addi	s0,sp,128
    199c:	04090203          	lb	tp,64(s2)
    19a0:	0100                	addi	s0,sp,128
    19a2:	04090103          	lb	sp,64(s2)
    19a6:	0100                	addi	s0,sp,128
    19a8:	04090103          	lb	sp,64(s2)
    19ac:	0100                	addi	s0,sp,128
    19ae:	04090103          	lb	sp,64(s2)
    19b2:	0100                	addi	s0,sp,128
    19b4:	04090403          	lb	s0,64(s2)
    19b8:	0100                	addi	s0,sp,128
    19ba:	04090103          	lb	sp,64(s2)
    19be:	0100                	addi	s0,sp,128
    19c0:	04090103          	lb	sp,64(s2)
    19c4:	0100                	addi	s0,sp,128
    19c6:	04090203          	lb	tp,64(s2)
    19ca:	0100                	addi	s0,sp,128
    19cc:	04090103          	lb	sp,64(s2)
    19d0:	0100                	addi	s0,sp,128
    19d2:	04090103          	lb	sp,64(s2)
    19d6:	0100                	addi	s0,sp,128
    19d8:	04090203          	lb	tp,64(s2)
    19dc:	0100                	addi	s0,sp,128
    19de:	04090103          	lb	sp,64(s2)
    19e2:	0100                	addi	s0,sp,128
    19e4:	04090203          	lb	tp,64(s2)
    19e8:	0100                	addi	s0,sp,128
    19ea:	04090103          	lb	sp,64(s2)
    19ee:	0100                	addi	s0,sp,128
    19f0:	04090103          	lb	sp,64(s2)
    19f4:	0100                	addi	s0,sp,128
    19f6:	04090103          	lb	sp,64(s2)
    19fa:	0100                	addi	s0,sp,128
    19fc:	0409                	addi	s0,s0,2
    19fe:	0000                	unimp
    1a00:	0101                	addi	sp,sp,0
    1a02:	0055                	c.nop	21
    1a04:	0000                	unimp
    1a06:	004f0003          	lb	zero,4(t5)
    1a0a:	0000                	unimp
    1a0c:	0101                	addi	sp,sp,0
    1a0e:	000d0efb          	0xd0efb
    1a12:	0101                	addi	sp,sp,0
    1a14:	0101                	addi	sp,sp,0
    1a16:	0000                	unimp
    1a18:	0100                	addi	s0,sp,128
    1a1a:	0000                	unimp
    1a1c:	2e01                	jal	1d2c <__udivdi3+0x208>
    1a1e:	2f2e                	fld	ft10,200(sp)
    1a20:	2e2e                	fld	ft8,200(sp)
    1a22:	2f2e2e2f          	0x2f2e2e2f
    1a26:	2e2e                	fld	ft8,200(sp)
    1a28:	2f2e2e2f          	0x2f2e2e2f
    1a2c:	2f2e                	fld	ft10,200(sp)
    1a2e:	6972                	flw	fs2,28(sp)
    1a30:	2d766373          	csrrsi	t1,0x2d7,12
    1a34:	2f636367          	0x2f636367
    1a38:	696c                	flw	fa1,84(a0)
    1a3a:	6762                	flw	fa4,24(sp)
    1a3c:	00006363          	bltu	zero,zero,1a42 <__moddi3+0x466>
    1a40:	696c                	flw	fa1,84(a0)
    1a42:	6762                	flw	fa4,24(sp)
    1a44:	2e326363          	bltu	tp,gp,1d2a <__udivdi3+0x206>
    1a48:	0068                	addi	a0,sp,12
    1a4a:	0001                	nop
    1a4c:	6c00                	flw	fs0,24(s0)
    1a4e:	6269                	lui	tp,0x1a
    1a50:	32636367          	0x32636367
    1a54:	632e                	flw	ft6,200(sp)
    1a56:	0100                	addi	s0,sp,128
    1a58:	0000                	unimp
	...

Disassembly of section .debug_str:

00000000 <.debug_str>:
   0:	5744                	lw	s1,44(a4)
   2:	6e75                	lui	t3,0x1d
   4:	6f69                	lui	t5,0x1a
   6:	006e                	c.slli	zero,0x1b
   8:	706d6f63          	bltu	s10,t1,726 <vprintfmt.constprop.0+0x280>
   c:	656c                	flw	fa1,76(a0)
   e:	2078                	fld	fa4,192(s0)
  10:	6c66                	flw	fs8,88(sp)
  12:	0074616f          	jal	sp,46818 <__C_STACK_TOP__+0x36818>
  16:	5f5f 756d 736c      	0x736c756d5f5f
  1c:	3369                	jal	fffffda6 <__C_STACK_TOP__+0xfffefda6>
  1e:	2e00                	fld	fs0,24(a2)
  20:	2f2e                	fld	ft10,200(sp)
  22:	2e2e                	fld	ft8,200(sp)
  24:	2f2e2e2f          	0x2f2e2e2f
  28:	2e2e                	fld	ft8,200(sp)
  2a:	2f2e2e2f          	0x2f2e2e2f
  2e:	2f2e                	fld	ft10,200(sp)
  30:	6972                	flw	fs2,28(sp)
  32:	2d766373          	csrrsi	t1,0x2d7,12
  36:	2f636367          	0x2f636367
  3a:	696c                	flw	fa1,84(a0)
  3c:	6762                	flw	fa4,24(sp)
  3e:	6c2f6363          	bltu	t5,sp,704 <vprintfmt.constprop.0+0x25e>
  42:	6269                	lui	tp,0x1a
  44:	32636367          	0x32636367
  48:	632e                	flw	ft6,200(sp)
  4a:	2f00                	fld	fs0,24(a4)
  4c:	6f68                	flw	fa0,92(a4)
  4e:	656d                	lui	a0,0x1b
  50:	6573752f          	0x6573752f
  54:	3172                	fld	ft2,312(sp)
  56:	2f30                	fld	fa2,88(a4)
  58:	7562                	flw	fa0,56(sp)
  5a:	6c69                	lui	s8,0x1a
  5c:	2f64                	fld	fs1,216(a4)
  5e:	6972                	flw	fs2,28(sp)
  60:	2d766373          	csrrsi	t1,0x2d7,12
  64:	2d756e67          	0x2d756e67
  68:	6f74                	flw	fa3,92(a4)
  6a:	68636c6f          	jal	s8,366f0 <__C_STACK_TOP__+0x266f0>
  6e:	6961                	lui	s2,0x18
  70:	2f6e                	fld	ft10,216(sp)
  72:	7562                	flw	fa0,56(sp)
  74:	6c69                	lui	s8,0x1a
  76:	2d64                	fld	fs1,216(a0)
  78:	2d636367          	0x2d636367
  7c:	656e                	flw	fa0,216(sp)
  7e:	62696c77          	0x62696c77
  82:	732d                	lui	t1,0xfffeb
  84:	6174                	flw	fa3,68(a0)
  86:	2f326567          	0x2f326567
  8a:	6972                	flw	fs2,28(sp)
  8c:	36766373          	csrrsi	t1,0x367,12
  90:	2d34                	fld	fa3,88(a0)
  92:	6e75                	lui	t3,0x1d
  94:	776f6e6b          	0x776f6e6b
  98:	2d6e                	fld	fs10,216(sp)
  9a:	6c65                	lui	s8,0x19
  9c:	2f66                	fld	ft10,88(sp)
  9e:	7672                	flw	fa2,60(sp)
  a0:	2f693233          	0x2f693233
  a4:	6c69                	lui	s8,0x1a
  a6:	3370                	fld	fa2,224(a4)
  a8:	2f32                	fld	ft10,264(sp)
  aa:	696c                	flw	fa1,84(a0)
  ac:	6762                	flw	fa4,24(sp)
  ae:	5f006363          	bltu	zero,a6,694 <vprintfmt.constprop.0+0x1ee>
  b2:	645f 0030 6873      	0x68730030645f
  b8:	2074726f          	jal	tp,47abe <__C_STACK_TOP__+0x37abe>
  bc:	6e69                	lui	t3,0x1a
  be:	0074                	addi	a3,sp,12
  c0:	5f5f 6876 5f00      	0x5f0068765f5f
  c6:	6f5f 3070 5f00      	0x5f0030706f5f
  cc:	6f5f 3170 5f00      	0x5f0031706f5f
  d2:	755f 6964 7376      	0x73766964755f
  d8:	3369                	jal	fffffe62 <__C_STACK_TOP__+0xfffefe62>
  da:	6c00                	flw	fs0,24(s0)
  dc:	20676e6f          	jal	t3,762e2 <__C_STACK_TOP__+0x662e2>
  e0:	6f6c                	flw	fa1,92(a4)
  e2:	676e                	flw	fa4,216(sp)
  e4:	6920                	flw	fs0,80(a0)
  e6:	746e                	flw	fs0,248(sp)
  e8:	6c00                	flw	fs0,24(s0)
  ea:	20676e6f          	jal	t3,762f0 <__C_STACK_TOP__+0x662f0>
  ee:	6f6c                	flw	fa1,92(a4)
  f0:	676e                	flw	fa4,216(sp)
  f2:	7520                	flw	fs0,104(a0)
  f4:	736e                	flw	ft6,248(sp)
  f6:	6769                	lui	a4,0x1a
  f8:	656e                	flw	fa0,216(sp)
  fa:	2064                	fld	fs1,192(s0)
  fc:	6e69                	lui	t3,0x1a
  fe:	0074                	addi	a3,sp,12
 100:	6968                	flw	fa0,84(a0)
 102:	47006867          	0x47006867
 106:	554e                	lw	a0,240(sp)
 108:	4320                	lw	s0,64(a4)
 10a:	3731                	jal	16 <buf.1+0x16>
 10c:	3120                	fld	fs0,96(a0)
 10e:	2e30                	fld	fa2,88(a2)
 110:	2e32                	fld	ft8,264(sp)
 112:	2030                	fld	fa2,64(s0)
 114:	6d2d                	lui	s10,0xb
 116:	646f6d63          	bltu	t5,t1,770 <vprintfmt.constprop.0+0x2ca>
 11a:	6c65                	lui	s8,0x19
 11c:	6d3d                	lui	s10,0xf
 11e:	6465                	lui	s0,0x19
 120:	6e61                	lui	t3,0x18
 122:	2079                	jal	1b0 <SIM_STOP+0xb8>
 124:	6d2d                	lui	s10,0xb
 126:	7261                	lui	tp,0xffff8
 128:	723d6863          	bltu	s10,gp,858 <vprintfmt.constprop.0+0x3b2>
 12c:	3376                	fld	ft6,376(sp)
 12e:	6932                	flw	fs2,12(sp)
 130:	2d20                	fld	fs0,88(a0)
 132:	616d                	addi	sp,sp,240
 134:	6962                	flw	fs2,24(sp)
 136:	693d                	lui	s2,0xf
 138:	706c                	flw	fa1,100(s0)
 13a:	2d203233          	0x2d203233
 13e:	636d                	lui	t1,0x1b
 140:	6f6d                	lui	t5,0x1b
 142:	6564                	flw	fs1,76(a0)
 144:	3d6c                	fld	fa1,248(a0)
 146:	656d                	lui	a0,0x1b
 148:	6164                	flw	fs1,68(a0)
 14a:	796e                	flw	fs2,248(sp)
 14c:	2d20                	fld	fs0,88(a0)
 14e:	746d                	lui	s0,0xffffb
 150:	6e75                	lui	t3,0x1d
 152:	3d65                	jal	a <buf.1+0xa>
 154:	6f72                	flw	ft10,28(sp)
 156:	74656b63          	bltu	a0,t1,8ac <vprintfmt.constprop.0+0x406>
 15a:	2d20                	fld	fs0,88(a0)
 15c:	616d                	addi	sp,sp,240
 15e:	6372                	flw	ft6,28(sp)
 160:	3d68                	fld	fa0,248(a0)
 162:	7672                	flw	fa2,60(sp)
 164:	20693233          	0x20693233
 168:	672d                	lui	a4,0xb
 16a:	2d20                	fld	fs0,88(a0)
 16c:	2d20734f          	0x2d20734f
 170:	2d20324f          	0x2d20324f
 174:	2d20734f          	0x2d20734f
 178:	6266                	flw	ft4,88(sp)
 17a:	6975                	lui	s2,0x1d
 17c:	646c                	flw	fa1,76(s0)
 17e:	6e69                	lui	t3,0x1a
 180:	696c2d67          	0x696c2d67
 184:	6762                	flw	fa4,24(sp)
 186:	2d206363          	bltu	zero,s2,44c <STACK_SIZE+0x4c>
 18a:	6e66                	flw	ft8,88(sp)
 18c:	74732d6f          	jal	s10,330d2 <__C_STACK_TOP__+0x230d2>
 190:	6361                	lui	t1,0x18
 192:	72702d6b          	0x72702d6b
 196:	6365746f          	jal	s0,577cc <__C_STACK_TOP__+0x477cc>
 19a:	6f74                	flw	fa3,92(a4)
 19c:	2072                	fld	ft0,280(sp)
 19e:	662d                	lui	a2,0xb
 1a0:	7865                	lui	a6,0xffff9
 1a2:	74706563          	bltu	zero,t2,8ec <vprintfmt.constprop.0+0x446>
 1a6:	6f69                	lui	t5,0x1a
 1a8:	736e                	flw	ft6,248(sp)
 1aa:	2d20                	fld	fs0,88(a0)
 1ac:	6e66                	flw	ft8,88(sp)
 1ae:	632d6e6f          	jal	t3,d67e0 <__C_STACK_TOP__+0xc67e0>
 1b2:	6c61                	lui	s8,0x18
 1b4:	2d6c                	fld	fa1,216(a0)
 1b6:	7865                	lui	a6,0xffff9
 1b8:	74706563          	bltu	zero,t2,902 <vprintfmt.constprop.0+0x45c>
 1bc:	6f69                	lui	t5,0x1a
 1be:	736e                	flw	ft6,248(sp)
 1c0:	2d20                	fld	fs0,88(a0)
 1c2:	7666                	flw	fa2,120(sp)
 1c4:	7369                	lui	t1,0xffffa
 1c6:	6269                	lui	tp,0x1a
 1c8:	6c69                	lui	s8,0x1a
 1ca:	7469                	lui	s0,0xffffa
 1cc:	3d79                	jal	6a <buflen.0+0x2a>
 1ce:	6968                	flw	fa0,84(a0)
 1d0:	6464                	flw	fs1,76(s0)
 1d2:	6e65                	lui	t3,0x19
 1d4:	5f00                	lw	s0,56(a4)
 1d6:	635f 7a6c 745f      	0x745f7a6c635f
 1dc:	6261                	lui	tp,0x18
 1de:	7500                	flw	fs0,40(a0)
 1e0:	736e                	flw	ft6,248(sp)
 1e2:	6769                	lui	a4,0x1a
 1e4:	656e                	flw	fa0,216(sp)
 1e6:	2064                	fld	fs1,192(s0)
 1e8:	72616863          	bltu	sp,t1,918 <vprintfmt.constprop.0+0x472>
 1ec:	5f00                	lw	s0,56(a4)
 1ee:	785f 0030 5f5f      	0x5f5f0030785f
 1f4:	3178                	fld	fa4,224(a0)
 1f6:	5f00                	lw	s0,56(a4)
 1f8:	785f 0032 5f5f      	0x5f5f0032785f
 1fe:	3378                	fld	fa4,224(a4)
 200:	5500                	lw	s0,40(a0)
 202:	4951                	li	s2,20
 204:	7974                	flw	fa3,116(a0)
 206:	6570                	flw	fa2,76(a0)
 208:	4400                	lw	s0,8(s0)
 20a:	72747357          	0x72747357
 20e:	6375                	lui	t1,0x1d
 210:	0074                	addi	a3,sp,12
 212:	726f6873          	csrrsi	a6,0x726,30
 216:	2074                	fld	fa3,192(s0)
 218:	6e75                	lui	t3,0x1d
 21a:	6e676973          	csrrsi	s2,0x6e6,14
 21e:	6465                	lui	s0,0x19
 220:	6920                	flw	fs0,80(a0)
 222:	746e                	flw	fs0,248(sp)
 224:	5f00                	lw	s0,56(a4)
 226:	6d5f 646f 6964      	0x6964646f6d5f
 22c:	5f5f0033          	0x5f5f0033
 230:	3071                	jal	fffffabc <__C_STACK_TOP__+0xfffefabc>
 232:	5f00                	lw	s0,56(a4)
 234:	715f 0031 5f5f      	0x5f5f0031715f
 23a:	3164                	fld	fs1,224(a0)
 23c:	5f00                	lw	s0,56(a4)
 23e:	755f 6f6d 7364      	0x73646f6d755f
 244:	3369                	jal	ffffffce <__C_STACK_TOP__+0xfffeffce>
 246:	5500                	lw	s0,40(a0)
 248:	4944                	lw	s1,20(a0)
 24a:	7974                	flw	fa3,116(a0)
 24c:	6570                	flw	fa2,76(a0)
 24e:	6300                	flw	fs0,0(a4)
 250:	6c706d6f          	jal	s10,7116 <__global_pointer$+0x3f96>
 254:	7865                	lui	a6,0xffff9
 256:	6420                	flw	fs0,72(s0)
 258:	6c62756f          	jal	a0,2791e <__C_STACK_TOP__+0x1791e>
 25c:	0065                	c.nop	25
 25e:	5f5f 6c76 5f00      	0x5f006c765f5f
 264:	755f 6964 6d76      	0x6d766964755f
 26a:	6964646f          	jal	s0,46900 <__C_STACK_TOP__+0x36900>
 26e:	0034                	addi	a3,sp,8
 270:	706d6f63          	bltu	s10,t1,98e <vprintfmt.constprop.0+0x4e8>
 274:	656c                	flw	fa1,76(a0)
 276:	2078                	fld	fa4,192(s0)
 278:	6f6c                	flw	fa1,92(a4)
 27a:	676e                	flw	fa4,216(sp)
 27c:	6420                	flw	fs0,72(s0)
 27e:	6c62756f          	jal	a0,27944 <__C_STACK_TOP__+0x17944>
 282:	0065                	c.nop	25
 284:	5355                	li	t1,-11
 286:	7449                	lui	s0,0xffff2
 288:	7079                	c.lui	zero,0xffffe
 28a:	0065                	c.nop	25
 28c:	5f5f 7278 5f00      	0x5f0072785f5f
 292:	725f 0030 5f5f      	0x5f5f0030725f
 298:	3172                	fld	ft2,312(sp)
 29a:	5f00                	lw	s0,56(a4)
 29c:	755f 0068 5f5f      	0x5f5f0068755f
 2a2:	6c75                	lui	s8,0x1d
 2a4:	5f00                	lw	s0,56(a4)
 2a6:	755f 6964 6476      	0x64766964755f
 2ac:	3369                	jal	36 <CL_SIZE+0x16>
 2ae:	5f00                	lw	s0,56(a4)
 2b0:	755f 6f6d 6464      	0x64646f6d755f
 2b6:	3369                	jal	40 <buflen.0>
 2b8:	2e00                	fld	fs0,24(a2)
 2ba:	2f2e                	fld	ft10,200(sp)
 2bc:	2e2e                	fld	ft8,200(sp)
 2be:	2f2e2e2f          	0x2f2e2e2f
 2c2:	2e2e                	fld	ft8,200(sp)
 2c4:	2f2e2e2f          	0x2f2e2e2f
 2c8:	2f2e                	fld	ft10,200(sp)
 2ca:	6972                	flw	fs2,28(sp)
 2cc:	2d766373          	csrrsi	t1,0x2d7,12
 2d0:	2f636367          	0x2f636367
 2d4:	696c                	flw	fa1,84(a0)
 2d6:	6762                	flw	fa4,24(sp)
 2d8:	632f6363          	bltu	t5,s2,8fe <vprintfmt.constprop.0+0x458>
 2dc:	69666e6f          	jal	t3,66972 <__C_STACK_TOP__+0x56972>
 2e0:	69722f67          	0x69722f67
 2e4:	2f766373          	csrrsi	t1,0x2f7,12
 2e8:	756d                	lui	a0,0xffffb
 2ea:	646c                	flw	fa1,76(s0)
 2ec:	3369                	jal	76 <buflen.0+0x36>
 2ee:	532e                	lw	t1,232(sp)
 2f0:	4700                	lw	s0,8(a4)
 2f2:	554e                	lw	a0,240(sp)
 2f4:	4120                	lw	s0,64(a0)
 2f6:	2e322053          	0x2e322053
 2fa:	312e3633          	0x312e3633
 2fe:	2e00                	fld	fs0,24(a2)
 300:	2f2e                	fld	ft10,200(sp)
 302:	2e2e                	fld	ft8,200(sp)
 304:	2f2e2e2f          	0x2f2e2e2f
 308:	2e2e                	fld	ft8,200(sp)
 30a:	2f2e2e2f          	0x2f2e2e2f
 30e:	2f2e                	fld	ft10,200(sp)
 310:	6972                	flw	fs2,28(sp)
 312:	2d766373          	csrrsi	t1,0x2d7,12
 316:	2f636367          	0x2f636367
 31a:	696c                	flw	fa1,84(a0)
 31c:	6762                	flw	fa4,24(sp)
 31e:	632f6363          	bltu	t5,s2,944 <vprintfmt.constprop.0+0x49e>
 322:	69666e6f          	jal	t3,669b8 <__C_STACK_TOP__+0x569b8>
 326:	69722f67          	0x69722f67
 32a:	2f766373          	csrrsi	t1,0x2f7,12
 32e:	6964                	flw	fs1,84(a0)
 330:	2e76                	fld	ft8,344(sp)
 332:	4e470053          	0x4e470053
 336:	2055                	jal	3da <printf_putch+0x5a>
 338:	20373143          	fmadd.s	ft2,fa4,ft3,ft4,rup
 33c:	3031                	jal	fffffb48 <__C_STACK_TOP__+0xfffefb48>
 33e:	322e                	fld	ft4,232(sp)
 340:	302e                	fld	ft0,232(sp)
 342:	2d20                	fld	fs0,88(a0)
 344:	636d                	lui	t1,0x1b
 346:	6f6d                	lui	t5,0x1b
 348:	6564                	flw	fs1,76(a0)
 34a:	3d6c                	fld	fa1,248(a0)
 34c:	656d                	lui	a0,0x1b
 34e:	6164                	flw	fs1,68(a0)
 350:	796e                	flw	fs2,248(sp)
 352:	2d20                	fld	fs0,88(a0)
 354:	616d                	addi	sp,sp,240
 356:	6372                	flw	ft6,28(sp)
 358:	3d68                	fld	fa0,248(a0)
 35a:	7672                	flw	fa2,60(sp)
 35c:	20693233          	0x20693233
 360:	6d2d                	lui	s10,0xb
 362:	6261                	lui	tp,0x18
 364:	3d69                	jal	1fe <machine_trap_entry+0x3e>
 366:	6c69                	lui	s8,0x1a
 368:	3370                	fld	fa2,224(a4)
 36a:	2032                	fld	ft0,264(sp)
 36c:	6d2d                	lui	s10,0xb
 36e:	646f6d63          	bltu	t5,t1,9c8 <vprintfmt.constprop.0+0x522>
 372:	6c65                	lui	s8,0x19
 374:	6d3d                	lui	s10,0xf
 376:	6465                	lui	s0,0x19
 378:	6e61                	lui	t3,0x18
 37a:	2079                	jal	408 <STACK_SIZE+0x8>
 37c:	6d2d                	lui	s10,0xb
 37e:	7574                	flw	fa3,108(a0)
 380:	656e                	flw	fa0,216(sp)
 382:	723d                	lui	tp,0xfffef
 384:	656b636f          	jal	t1,b69da <__C_STACK_TOP__+0xa69da>
 388:	2074                	fld	fa3,192(s0)
 38a:	6d2d                	lui	s10,0xb
 38c:	7261                	lui	tp,0xffff8
 38e:	723d6863          	bltu	s10,gp,abe <vprintfmt.constprop.0+0x618>
 392:	3376                	fld	ft6,376(sp)
 394:	6932                	flw	fs2,12(sp)
 396:	2d20                	fld	fs0,88(a0)
 398:	4f2d2067          	0x4f2d2067
 39c:	4f2d2073          	csrs	0x4f2,s10
 3a0:	2032                	fld	ft0,264(sp)
 3a2:	4f2d                	li	t5,11
 3a4:	662d2073          	csrs	0x662,s10
 3a8:	7562                	flw	fa0,56(sp)
 3aa:	6c69                	lui	s8,0x1a
 3ac:	6964                	flw	fs1,84(a0)
 3ae:	676e                	flw	fa4,216(sp)
 3b0:	6c2d                	lui	s8,0xb
 3b2:	6269                	lui	tp,0x1a
 3b4:	20636367          	0x20636367
 3b8:	662d                	lui	a2,0xb
 3ba:	6f6e                	flw	ft10,216(sp)
 3bc:	732d                	lui	t1,0xfffeb
 3be:	6174                	flw	fa3,68(a0)
 3c0:	702d6b63          	bltu	s10,sp,ad6 <vprintfmt.constprop.0+0x630>
 3c4:	6f72                	flw	ft10,28(sp)
 3c6:	6574                	flw	fa3,76(a0)
 3c8:	726f7463          	bgeu	t5,t1,af0 <vprintfmt.constprop.0+0x64a>
 3cc:	2d20                	fld	fs0,88(a0)
 3ce:	7666                	flw	fa2,120(sp)
 3d0:	7369                	lui	t1,0xffffa
 3d2:	6269                	lui	tp,0x1a
 3d4:	6c69                	lui	s8,0x1a
 3d6:	7469                	lui	s0,0xffffa
 3d8:	3d79                	jal	276 <_start+0x76>
 3da:	6968                	flw	fa0,84(a0)
 3dc:	6464                	flw	fs1,76(s0)
 3de:	6e65                	lui	t3,0x19
	...
